
kernel.tmp:     file format elf32-i386
kernel.tmp
architecture: i386, flags 0x00000112:
EXEC_P, HAS_SYMS, D_PAGED
start address 0xff500000

Program Header:
    LOAD off    0x00001000 vaddr 0xff500000 paddr 0x00100000 align 2**12
         filesz 0x00008000 memsz 0x00008000 flags r-x
    LOAD off    0x00009000 vaddr 0xff508000 paddr 0x00108000 align 2**12
         filesz 0x00004000 memsz 0x00004068 flags rwx
   STACK off    0x00000000 vaddr 0x00000000 paddr 0x00000000 align 2**2
         filesz 0x00000000 memsz 0x00000000 flags rwx

Sections:
Idx Name          Size      VMA       LMA       File off  Algn
  0 .text         00008000  ff500000  00100000  00001000  2**4
                  CONTENTS, ALLOC, LOAD, READONLY, CODE
  1 .data         00001000  ff508000  00108000  00009000  2**5
                  CONTENTS, ALLOC, LOAD, DATA
  2 .disc         00003000  ff509000  00109000  0000a000  2**5
                  CONTENTS, ALLOC, LOAD, CODE
  3 .bss          00000068  ff50c000  0010c000  0000d000  2**2
                  ALLOC
SYMBOL TABLE:
ff500000 l    d  .text	00000000 .text
ff508000 l    d  .data	00000000 .data
ff509000 l    d  .disc	00000000 .disc
ff50c000 l    d  .bss	00000000 .bss
00000000 l    df *ABS*	00000000 entry.asm
00000001 l       *ABS*	00000000 MULTIBOOT_PAGE_ALIGN
00000002 l       *ABS*	00000000 MULTIBOOT_MEMORY_INFO
00010000 l       *ABS*	00000000 MULTIBOOT_AOUT_KLUDGE
1badb002 l       *ABS*	00000000 MULTIBOOT_HEADER_MAGIC
00010003 l       *ABS*	00000000 MULTIBOOT_HEADER_FLAGS
e4514ffb l       *ABS*	00000000 MULTIBOOT_CHECKSUM
00000008 l       *ABS*	00000000 kCodeSel
00000010 l       *ABS*	00000000 kDataSel
0000001b l       *ABS*	00000000 uCodeSel
00000023 l       *ABS*	00000000 uDataSel
00000028 l       *ABS*	00000000 tssSel
ff500027 l       .text	00000000 okMagic
ff50003c l       .text	00000000 mboot
ff509000 l       .disc	00000000 initPaging
ff509029 l       .disc	00000000 initPaging.clearPages
ff509048 l       .disc	00000000 initPaging.mapFirstTable
ff509060 l       .disc	00000000 initPaging.mappingLoop
ff509092 l       .disc	00000000 initPaging.mapPhysKernel
ff5090c4 l       .disc	00000000 initPaging.mapVirtKernel
ff5090ff l       .disc	00000000 printErrMsg
ff509111 l       .disc	00000000 printErrMsg.cpyStr
ff50911d l       .disc	00000000 stop
2badb002 l       *ABS*	00000000 mbootMagic
ff50af56 l       .disc	00000000 bstrapErrMsg
00001000 l       *ABS*	00000000 initPageDir
00000000 l    df *ABS*	00000000 apic.c
00000000 l    df *ABS*	00000000 cpu_state.asm
00000008 l       *ABS*	00000000 kCodeSel
00000010 l       *ABS*	00000000 kDataSel
0000001b l       *ABS*	00000000 uCodeSel
00000023 l       *ABS*	00000000 uDataSel
00000028 l       *ABS*	00000000 tssSel
00000000 l    df *ABS*	00000000 debug.c
ff500220 l     F .text	0000000b inByte
ff500230 l     F .text	00000012 outByte
ff506162 l     O .text	0000000e __func__.1610
00000000 l    df *ABS*	00000000 exceptions.c
ff5062f0 l     O .text	0000000a __func__.1443
ff50634a l     O .text	0000000f __func__.1471
ff500cb0 l     F .text	000000a7 registerIRQ
ff506395 l     O .text	00000010 __func__.1501
ff500e00 l     F .text	000001d7 dump_regs
ff5063ec l     O .text	0000000c __func__.1586
ff50643b l     O .text	0000000b __func__.1604
ff500d60 l     F .text	00000093 releaseIRQ
00000000 l    df *ABS*	00000000 idt.asm
00000008 l       *ABS*	00000000 kCodeSel
00000010 l       *ABS*	00000000 kDataSel
0000001b l       *ABS*	00000000 uCodeSel
00000023 l       *ABS*	00000000 uDataSel
00000028 l       *ABS*	00000000 tssSel
ff50af93 l       .disc	00000000 idtPointer
00000000 l    df *ABS*	00000000 init.c
ff5065f4 l     O .text	0000000e __func__.1691
ff5011a0 l     F .text	00000012 outByte
ff5011c0 l     F .text	00000009 ioWait
ff506895 l     O .text	00000006 __func__.2149
ff506aef l     O .text	00000005 __func__.2382
ff50af38 l       .disc	00000000 _skip
00000000 l    df *ABS*	00000000 inthand.asm
00000008 l       *ABS*	00000000 kCodeSel
00000010 l       *ABS*	00000000 kDataSel
0000001b l       *ABS*	00000000 uCodeSel
00000023 l       *ABS*	00000000 uDataSel
00000028 l       *ABS*	00000000 tssSel
00000000 l       *ABS*	00000000 idleTID
0000005c l       *ABS*	00000000 TCB_Size
00000040 l       *ABS*	00000000 regSize
00000000 l       *ABS*	00000000 aSpaceOff
00000004 l       *ABS*	00000000 quantaOff
00000005 l       *ABS*	00000000 stateOff
00000005 l       *ABS*	00000000 priorityOff
00000018 l       *ABS*	00000000 regOff
ff5011d0 l       .text	00000000 enterExceptionHandler
ff501212 l       .text	00000000 enterExceptionHandler.loadStack
ff50121a l       .text	00000000 enterExceptionHandler.doSched
ff50123a l       .text	00000000 enterExceptionHandler.load_stack
ff50123d l       .text	00000000 enterExceptionHandler.compare_threads
ff501252 l       .text	00000000 enterExceptionHandler.pop_regs
ff501376 l       .text	00000000 enterIrqHandler
ff5013b8 l       .text	00000000 enterIrqHandler.loadStack
ff5013c0 l       .text	00000000 enterIrqHandler.doSched
ff5013e0 l       .text	00000000 enterIrqHandler.load_stack
ff5013e3 l       .text	00000000 enterIrqHandler.compare_threads
ff5013f8 l       .text	00000000 enterIrqHandler.pop_regs
ff501531 l       .text	00000000 timerHandler.loadStack
ff501539 l       .text	00000000 timerHandler.doSched
ff501559 l       .text	00000000 timerHandler.load_stack
ff50155c l       .text	00000000 timerHandler.compare_threads
ff501571 l       .text	00000000 timerHandler.pop_regs
ff5015c9 l       .text	00000000 syscallHandler.loadStack
ff5015d1 l       .text	00000000 syscallHandler.doSched
ff5015f1 l       .text	00000000 syscallHandler.load_stack
ff5015f4 l       .text	00000000 syscallHandler.compare_threads
ff501609 l       .text	00000000 syscallHandler.pop_regs
00000000 l    df *ABS*	00000000 memory.c
00000000 l    df *ABS*	00000000 message.c
ff506c11 l     O .text	0000000c __func__.1540
ff506caf l     O .text	0000000f __func__.1649
00000000 l    df *ABS*	00000000 paging.c
ff506ce4 l     O .text	0000000a __func__.1472
ff506d3a l     O .text	00000009 __func__.1504
ff506d61 l     O .text	00000009 __func__.1523
ff506d6a l     O .text	00000008 __func__.1555
ff506d88 l     O .text	00000008 __func__.1580
ff506de7 l     O .text	00000009 __func__.1625
ff506e16 l     O .text	0000000a __func__.1672
ff506e47 l     O .text	0000000d __func__.1740
ff506ebe l     O .text	00000009 __func__.1779
ff506f00 l     O .text	00000008 __func__.1825
ff506f49 l     O .text	0000000b __func__.1891
ff506f77 l     O .text	0000000a __func__.1930
ff506fcb l     O .text	0000000f __func__.1993
00000000 l    df *ABS*	00000000 pic.c
ff503580 l     F .text	00000012 outByte
ff5035a0 l     F .text	00000009 ioWait
ff503660 l     F .text	0000000b inByte
00000000 l    df *ABS*	00000000 queue.c
ff506ff5 l     O .text	0000000d __func__.1432
ff507069 l     O .text	0000000d __func__.1512
ff507076 l     O .text	00000008 __func__.1539
ff50708b l     O .text	0000000c __func__.1576
ff507097 l     O .text	00000008 __func__.1632
00000000 l    df *ABS*	00000000 schedule.c
ff503dd7 l       .text	00000000 .halt
ff5070a0 l     O .text	00000009 __func__.1504
ff50720f l     O .text	00000009 __func__.1661
ff507218 l     O .text	0000000c __func__.1676
ff507240 l     O .text	0000000f __func__.1709
ff5072eb l     O .text	0000000f __func__.1761
ff5072fa l     O .text	00000009 __func__.1801
00000000 l    df *ABS*	00000000 signal.c
ff507374 l     O .text	00000009 __func__.1524
00000000 l    df *ABS*	00000000 syscall.c
ff504b00 l     F .text	00000094 sysExit
ff5073d8 l     O .text	00000011 __func__.1591
ff504ba0 l     F .text	000001b0 sysGetThreadInfo
ff50740f l     O .text	00000009 __func__.1639
00000000 l    df *ABS*	00000000 thread.c
ff5074bc l     O .text	0000000b __func__.1567
ff50c000 l     O .bss	00000002 lastTID.1562
ff50754d l     O .text	0000000c __func__.1614
ff507596 l     O .text	0000000c __func__.1640
ff507601 l     O .text	0000000c __func__.1700
ff50763d l     O .text	0000000d __func__.1722
ff507740 l     O .text	0000000e __func__.1788
00000000 l    df *ABS*	00000000 vmm.c
ff507771 l     O .text	00000009 __func__.1462
ff50778c l     O .text	00000012 __func__.1473
ff50779e l     O .text	00000007 __func__.1487
ff5077cc l     O .text	00000010 __func__.1510
ff5077dc l     O .text	00000009 __func__.1533
ff5077fd l     O .text	00000012 __func__.1560
00000000 l    df *ABS*	00000000 gdt.asm
00000008 l       *ABS*	00000000 kCodeSel
00000010 l       *ABS*	00000000 kDataSel
0000001b l       *ABS*	00000000 uCodeSel
00000023 l       *ABS*	00000000 uDataSel
00000028 l       *ABS*	00000000 tssSel
ff509149 l       .disc	00000000 loadCs
ff50af8d l       .disc	00000000 gdtPointer
ff500190 g     F .text	00000088 init_serial
ff504430 g     F .text	000001a8 attachRunQueue
ff509dc0 g     F .disc	00000059 getModuleEndAddr
ff5048d0 g     F .text	00000013 sysSetSigHandler
ff5012e0 g       .text	00000000 intHandler9
ff508000 g     O .data	00000010 IRQState
ff5004b0 g     F .text	0000005b kprintAt
ff500280 g     F .text	00000034 putDebugChar
ff50c058 g     O .bss	00000004 __default_sig_handler
ff50c004 g     O .bss	00000001 tempMapped
ff502df0 g     F .text	00000265 mapPage
ff50015c g       .text	00000000 getCR3
ff5020e0 g     F .text	0000000d reload_cr3
ff5012a9 g       .text	00000000 intHandler5
ff50c05c g     O .bss	00000004 cpuFeatures
ff500470 g     F .text	00000017 setVideoLowMem
ff50130d g       .text	00000000 intHandler13
ff50c008 g     O .bss	00000004 tssEsp0
ff503130 g     F .text	00000248 unmapPage
ff503760 g     F .text	0000003a disableAllIRQ
ff502ae0 g     F .text	000001b3 mapPageTable
ff400500 g       *ABS*	00000000 kernelIDT
ff5014b8 g       .text	00000000 irq13Handler
ff5008a0 g     F .text	000000e9 sysEndIRQ
ff501317 g       .text	00000000 intHandler14
ff500164 g       .text	00000000 getEflags
ff504d50 g     F .text	00000486 _syscall
ff501404 g       .text	00000000 irq1Handler
ff5051e0 g     F .text	00000132 getFreeTID
ff505ef0 g     F .text	000000ff sysGrant
ff5048f0 g     F .text	0000020f sysRaise
ff500490 g     F .text	00000017 setBadAssertHlt
ff50c03c g     O .bss	00000004 tcbTable
ff50c00c g     O .bss	00000001 badAssertHlt
ff504710 g     F .text	000001b4 timerInt
ff50b2e0 g     O .disc	00000004 totalPhysMem
ff501620 g     F .text	000004f0 memcpy
ff50c068 g       *ABS*	00000000 kEnd
ff50c040 g     O .bss	00000004 maxThreads
ff502ca0 g     F .text	0000014b kMapPage
ff50c010 g     O .bss	00000004 upper2
ff505660 g     F .text	0000013b pauseThread
ff501440 g       .text	00000000 irq5Handler
ff500000 g       *ABS*	00000000 kVirtStart
ff50c060 g     O .bss	00000004 maxRunQueues
ff50147c g       .text	00000000 irq9Handler
ff400000 g       *ABS*	00000000 kPhysToVirt
ff500510 g     F .text	00000049 printAssertMsg
ff50c044 g     O .bss	00000004 runQueues
ff50afa0 g     O .disc	00000004 kernelEnd
ff5012d6 g       .text	00000000 intHandler8
ff50013c g       .text	00000000 setCR3
ff50c014 g     O .bss	00000001 useLowMem
ff50c000 g       *ABS*	00000000 kVirtBss
ff5020f0 g     F .text	00000149 _writePDE
ff5012b8 g       .text	00000000 intHandler6
ff50125e g       .text	00000000 intHandler0
ff50128b g       .text	00000000 intHandler3
ff501349 g       .text	00000000 intHandler19
ff505c90 g     F .text	00000046 sysUnmap
ff50b300 g     O .disc	000000a0 mem_area
0010c000 g       *ABS*	00000000 kPhysBss
ff5014d6 g       .text	00000000 irq15Handler
ff509123 g       .disc	00000000 loadGDT
ff5000a0 g     F .text	0000008b enable_apic
ff5037a0 g     F .text	00000272 sleepEnqueue
ff501321 g       .text	00000000 intHandler16
ff50144f g       .text	00000000 irq6Handler
ff50c048 g     O .bss	00000004 tcbNodes
ff5057a0 g     F .text	00000444 createThread
ff508000 g       .data	00000000 kData
ff509490 g     F .disc	00000038 initTSS
ff509000 g       .disc	00000000 kdCode
ff509160 g     F .disc	0000009c clearPhysPage
ff503de0 g     F .text	000004bd schedule
ff50c018 g     O .bss	00000004 lower2
ff500080 g     F .text	00000016 init_apic_timer
ff508000 g       *ABS*	00000000 kVirtData
ff5006a0 g     F .text	0000003c incTimerCount
ff5012f9 g       .text	00000000 intHandler11
ff509e20 g     F .disc	0000005a getTotalModuleSize
0000c068 g       *ABS*	00000000 kSize
ff505e20 g     F .text	000000ca sysMapPageTable
ff501358 g       .text	00000000 invalidIntHandler
ff50b2e4 g     O .disc	00000004 startPhysPages
ff503060 g     F .text	000000ce kUnmapPage
ff509e80 g     F .disc	0000002f getModuleStart
ff5095c0 g     F .disc	0000001d stopInit
ff500000 g       .text	00000000 kCode
ff50016b g       .text	00000000 setEflags
ff50b2fc g     O .disc	00000004 boot_info
ff5014a9 g       .text	00000000 irq12Handler
ff50b2ec g     O .disc	00000004 totalKSize
ff50145e g       .text	00000000 irq7Handler
ff50127c g       .text	00000000 intHandler2
ff500990 g     F .text	000000ef sysRegisterInt
ff501367 g       .text	00000000 spuriousIntHandler
ff501303 g       .text	00000000 intHandler12
ff50afa4 g     O .disc	00000004 init_server_img
ff50b2f4 g     O .disc	00000004 modulesStart
ff50a970 g     F .disc	000000ff showCPU_Features
00109000 g       *ABS*	00000000 kPhysDisc
ff509390 g     F .disc	000000f2 add_gdt_entry
ff50c01c g     O .bss	0000000c drive_info_t
ff503dd0 g       .text	00000000 idle
ff5002c0 g     F .text	00000189 kitoa
ff502410 g     F .text	000000d1 readPDE
ff50157d g       .text	00000000 syscallHandler
ff50c04c g     O .bss	00000004 sleepQueue
ff50a150 g     F .disc	000002e2 load_elf_exec
ff500060 g     F .text	00000018 send_apic_eoi
00108000 g       *ABS*	00000000 kPhysData
ff505ce0 g     F .text	00000046 sysUnmapPageTable
ff501e40 g     F .text	00000297 receiveMessage
ff502a00 g     F .text	00000069 pokeMem
ff503380 g     F .text	000001b5 unmapPageTable
ff50b2e8 g     O .disc	00000004 totalPages
ff500154 g       .text	00000000 getCR0
ff509200 g     F .disc	0000006e memcmp
ff5014e5 g       .text	00000000 timerHandler
ff502240 g     F .text	00000095 writePDE
ff50aa70 g     F .disc	000004e6 init
ff500130 g       .text	00000000 setCR0
ff50126d g       .text	00000000 intHandler1
ff5095e0 g     F .disc	000002ab initMemory
ff400d00 g       *ABS*	00000000 kernelGDT
ff500174 g       .text	00000000 intIsEnabled
ff509270 g     F .disc	0000011a initPIC
ff509f30 g     F .disc	00000162 initTables
ff50c050 g     O .bss	00000004 currentThread
ff508020 g     O .data	00000020 IRQHandlers
ff501b10 g     F .text	00000027 memset
ff501431 g       .text	00000000 irq4Handler
ff509890 g     F .disc	00000078 initTimer
ff505d30 g     F .text	000000e3 sysMap
ff50914a g       .disc	00000000 loadIDT
ff501330 g       .text	00000000 intHandler17
ff50afc0 g     O .disc	00000320 kBootModules
ff509000 g       *ABS*	00000000 kVirtDisc
ff501413 g       .text	00000000 irq2Handler
00100000 g       *ABS*	00000000 kPhysStart
ff400f98 g       *ABS*	00000000 kernelTSS
ff500bc0 g     F .text	000000e2 handleIRQ
ff50c028 g     O .bss	00000004 upper1
ff500158 g       .text	00000000 getCR2
ff50c02c g     O .bss	00000004 incSchedCount_counter
ff50c030 g     O .bss	00000004 tssIOBitmap
ff5022e0 g     F .text	00000123 _readPDE
ff500450 g     F .text	00000013 initVideo
00c00000 g       *ABS*	00000000 kVirtToPhys
00100000 g       *ABS*	00000000 kPhysCode
ff5042a0 g     F .text	00000082 sysYield
ff505ff0 g     F .text	000000ff sysGrantPageTable
ff500fe0 g     F .text	00000185 handleCPUException
ff50b2f8 g     O .disc	00000004 totalModulesSize
ff500560 g     F .text	00000138 incSchedCount
ff5012ef g       .text	00000000 intHandler10
ff500250 g     F .text	0000002d getDebugChar
ff5024f0 g     F .text	000001a9 readPTE
ff5035b0 g     F .text	000000ad enableIRQ
ff501b40 g     F .text	000002f6 sendMessage
ff503ac0 g     F .text	00000136 enqueue
ff50129a g       .text	00000000 intHandler4
ff500000 g       *ABS*	00000000 kVirtCode
ff50af56 g       .disc	00000000 kdData
ff5012c7 g       .text	00000000 intHandler7
ff509eb0 g     F .disc	00000071 calcKernelSize
ff502a70 g     F .text	00000069 peekMem
ff503d70 g     F .text	0000005e dequeue
ff502870 g     F .text	00000185 accessMem
ff50c054 g     O .bss	00000002 init_server_tid
ff500750 g     F .text	00000147 kprintf
ff50b2f0 g     O .disc	00000004 grubBootInfo
ff505bf0 g     F .text	0000009d releaseThread
ff50c034 g     O .bss	00000004 kernelAddrSpace
ff504330 g     F .text	00000100 setPriority
ff505320 g     F .text	000000fc startThread
ff5045e0 g     F .text	00000124 detachRunQueue
ff400000 g       *ABS*	00000000 VPhysMemStart
ff503720 g     F .text	0000003a enableAllIRQ
ff50148b g       .text	00000000 irq10Handler
ff50a0a0 g     F .disc	000000a3 isValidElfExe
ff5094d0 g     F .disc	000000e6 initGDT
ff500000 g       .text	00000000 start
ff50c000 g       .bss	00000000 kBss
ff503c00 g     F .text	00000168 detachQueue
ff50c064 g     O .bss	00000004 idleThread
ff503670 g     F .text	000000a9 disableIRQ
ff501170 g       .text	00000000 addIDTEntry
ff50a440 g     F .disc	000003fe init2
ff509950 g     F .disc	00000461 initInterrupts
ff50afa8 g     O .disc	00000004 numBootMods
ff503a20 g     F .text	000000a0 sleepDequeue
ff5006e0 g     F .text	0000006c clearScreen
ff500160 g       .text	00000000 getCR4
ff500148 g       .text	00000000 setCR4
ff501422 g       .text	00000000 irq3Handler
ff500a80 g     F .text	00000132 sysEndPageFault
ff505420 g     F .text	00000232 sleepThread
ff50c038 g     O .bss	00000004 lower1
ff5026a0 g     F .text	000001c6 writePTE
ff509910 g     F .disc	00000040 initScheduler
ff50a840 g     F .disc	00000126 showGrubSupport
ff50133a g       .text	00000000 intHandler18
ff5014c7 g       .text	00000000 irq14Handler
ff50149a g       .text	00000000 irq11Handler
ff503540 g     F .text	0000003a sendEOI
ff50146d g       .text	00000000 irq8Handler



Disassembly of section .text:

ff500000 <kCode>:
ff500000:	bc 00 b0 00 00       	mov    $0xb000,%esp
ff500005:	89 e5                	mov    %esp,%ebp
ff500007:	68 00 00 00 00       	push   $0x0
ff50000c:	9d                   	popf   
ff50000d:	81 c3 00 00 40 ff    	add    $0xff400000,%ebx
ff500013:	53                   	push   %ebx
ff500014:	3d 02 b0 ad 2b       	cmp    $0x2badb002,%eax
ff500019:	74 0c                	je     ff500027 <okMagic>
ff50001b:	b8 ff 90 50 ff       	mov    $0xff5090ff,%eax
ff500020:	05 00 00 c0 00       	add    $0xc00000,%eax
ff500025:	ff d0                	call   *%eax

ff500027 <okMagic>:
ff500027:	b8 00 90 50 ff       	mov    $0xff509000,%eax
ff50002c:	05 00 00 c0 00       	add    $0xc00000,%eax
ff500031:	ff d0                	call   *%eax
ff500033:	b8 70 aa 50 ff       	mov    $0xff50aa70,%eax
ff500038:	ff d0                	call   *%eax
ff50003a:	90                   	nop    
ff50003b:	90                   	nop    

ff50003c <mboot>:
ff50003c:	02 b0 ad 1b 03 00    	add    0x31bad(%eax),%dh
ff500042:	01 00                	add    %eax,(%eax)
ff500044:	fb                   	sti    
ff500045:	4f                   	dec    %edi
ff500046:	51                   	push   %ecx
ff500047:	e4 3c                	in     $0x3c,%al
ff500049:	00 50 ff             	add    %dl,-0x1(%eax)
ff50004c:	00 00                	add    %al,(%eax)
ff50004e:	50                   	push   %eax
ff50004f:	ff 00                	incl   (%eax)
ff500051:	c0 50 ff 68          	rclb   $0x68,-0x1(%eax)
ff500055:	c0 50 ff 00          	rclb   $0x0,-0x1(%eax)
ff500059:	00 50 ff             	add    %dl,-0x1(%eax)
ff50005c:	00 00                	add    %al,(%eax)
	...

ff500060 <send_apic_eoi>:
ff500060:	55                   	push   %ebp
ff500061:	89 e5                	mov    %esp,%ebp
ff500063:	83 ec 10             	sub    $0x10,%esp
ff500066:	c7 45 fc b0 40 40 ff 	movl   $0xff4040b0,-0x4(%ebp)
ff50006d:	8b 45 fc             	mov    -0x4(%ebp),%eax
ff500070:	c7 00 00 00 00 00    	movl   $0x0,(%eax)
ff500076:	c9                   	leave  
ff500077:	c3                   	ret    
ff500078:	90                   	nop    
ff500079:	8d b4 26 00 00 00 00 	lea    0x0(%esi,%eiz,1),%esi

ff500080 <init_apic_timer>:
ff500080:	55                   	push   %ebp
ff500081:	89 e5                	mov    %esp,%ebp
ff500083:	83 ec 10             	sub    $0x10,%esp
ff500086:	c7 45 f8 20 43 40 ff 	movl   $0xff404320,-0x8(%ebp)
ff50008d:	c7 45 fc e0 43 40 ff 	movl   $0xff4043e0,-0x4(%ebp)
ff500094:	c9                   	leave  
ff500095:	c3                   	ret    
ff500096:	8d 76 00             	lea    0x0(%esi),%esi
ff500099:	8d bc 27 00 00 00 00 	lea    0x0(%edi,%eiz,1),%edi

ff5000a0 <enable_apic>:
ff5000a0:	55                   	push   %ebp
ff5000a1:	89 e5                	mov    %esp,%ebp
ff5000a3:	83 ec 28             	sub    $0x28,%esp
ff5000a6:	c7 45 fc 00 00 00 00 	movl   $0x0,-0x4(%ebp)
ff5000ad:	b9 1b 00 00 00       	mov    $0x1b,%ecx
ff5000b2:	0f 32                	rdmsr  
ff5000b4:	89 45 fc             	mov    %eax,-0x4(%ebp)
ff5000b7:	8b 45 fc             	mov    -0x4(%ebp),%eax
ff5000ba:	25 00 01 00 00       	and    $0x100,%eax
ff5000bf:	85 c0                	test   %eax,%eax
ff5000c1:	74 0c                	je     ff5000cf <enable_apic+0x2f>
ff5000c3:	c7 04 24 ef 60 50 ff 	movl   $0xff5060ef,(%esp)
ff5000ca:	e8 81 06 00 00       	call   ff500750 <kprintf>
ff5000cf:	8b 45 fc             	mov    -0x4(%ebp),%eax
ff5000d2:	25 00 08 00 00       	and    $0x800,%eax
ff5000d7:	85 c0                	test   %eax,%eax
ff5000d9:	74 0e                	je     ff5000e9 <enable_apic+0x49>
ff5000db:	c7 04 24 ff 60 50 ff 	movl   $0xff5060ff,(%esp)
ff5000e2:	e8 69 06 00 00       	call   ff500750 <kprintf>
ff5000e7:	eb 0c                	jmp    ff5000f5 <enable_apic+0x55>
ff5000e9:	c7 04 24 0d 61 50 ff 	movl   $0xff50610d,(%esp)
ff5000f0:	e8 5b 06 00 00       	call   ff500750 <kprintf>
ff5000f5:	8b 45 fc             	mov    -0x4(%ebp),%eax
ff5000f8:	25 00 f0 ff ff       	and    $0xfffff000,%eax
ff5000fd:	89 44 24 04          	mov    %eax,0x4(%esp)
ff500101:	c7 04 24 1c 61 50 ff 	movl   $0xff50611c,(%esp)
ff500108:	e8 43 06 00 00       	call   ff500750 <kprintf>
ff50010d:	c7 44 24 08 12 00 00 	movl   $0x12,0x8(%esp)
ff500114:	00 
ff500115:	c7 44 24 04 00 00 e0 	movl   $0xfee00000,0x4(%esp)
ff50011c:	fe 
ff50011d:	c7 04 24 00 40 40 ff 	movl   $0xff404000,(%esp)
ff500124:	e8 77 2b 00 00       	call   ff502ca0 <kMapPage>
ff500129:	c9                   	leave  
ff50012a:	c3                   	ret    
ff50012b:	00 00                	add    %al,(%eax)
ff50012d:	00 00                	add    %al,(%eax)
	...

ff500130 <setCR0>:
ff500130:	55                   	push   %ebp
ff500131:	89 e5                	mov    %esp,%ebp
ff500133:	8b 44 24 08          	mov    0x8(%esp),%eax
ff500137:	0f 22 c0             	mov    %eax,%cr0
ff50013a:	c9                   	leave  
ff50013b:	c3                   	ret    

ff50013c <setCR3>:
ff50013c:	55                   	push   %ebp
ff50013d:	89 e5                	mov    %esp,%ebp
ff50013f:	8b 44 24 08          	mov    0x8(%esp),%eax
ff500143:	0f 22 d8             	mov    %eax,%cr3
ff500146:	c9                   	leave  
ff500147:	c3                   	ret    

ff500148 <setCR4>:
ff500148:	55                   	push   %ebp
ff500149:	89 e5                	mov    %esp,%ebp
ff50014b:	8b 44 24 08          	mov    0x8(%esp),%eax
ff50014f:	0f 22 e0             	mov    %eax,%cr4
ff500152:	c9                   	leave  
ff500153:	c3                   	ret    

ff500154 <getCR0>:
ff500154:	0f 20 c0             	mov    %cr0,%eax
ff500157:	c3                   	ret    

ff500158 <getCR2>:
ff500158:	0f 20 d0             	mov    %cr2,%eax
ff50015b:	c3                   	ret    

ff50015c <getCR3>:
ff50015c:	0f 20 d8             	mov    %cr3,%eax
ff50015f:	c3                   	ret    

ff500160 <getCR4>:
ff500160:	0f 20 e0             	mov    %cr4,%eax
ff500163:	c3                   	ret    

ff500164 <getEflags>:
ff500164:	55                   	push   %ebp
ff500165:	89 e5                	mov    %esp,%ebp
ff500167:	9c                   	pushf  
ff500168:	58                   	pop    %eax
ff500169:	c9                   	leave  
ff50016a:	c3                   	ret    

ff50016b <setEflags>:
ff50016b:	55                   	push   %ebp
ff50016c:	89 e5                	mov    %esp,%ebp
ff50016e:	ff 75 08             	pushl  0x8(%ebp)
ff500171:	9d                   	popf   
ff500172:	c9                   	leave  
ff500173:	c3                   	ret    

ff500174 <intIsEnabled>:
ff500174:	55                   	push   %ebp
ff500175:	89 e5                	mov    %esp,%ebp
ff500177:	e8 e8 ff ff ff       	call   ff500164 <getEflags>
ff50017c:	c1 e8 08             	shr    $0x8,%eax
ff50017f:	25 01 00 00 00       	and    $0x1,%eax
ff500184:	c9                   	leave  
ff500185:	c3                   	ret    
	...

ff500190 <init_serial>:
ff500190:	55                   	push   %ebp
ff500191:	89 e5                	mov    %esp,%ebp
ff500193:	83 ec 08             	sub    $0x8,%esp
ff500196:	c7 04 24 fb 03 00 00 	movl   $0x3fb,(%esp)
ff50019d:	e8 7e 00 00 00       	call   ff500220 <inByte>
ff5001a2:	83 c8 80             	or     $0xffffff80,%eax
ff5001a5:	0f b6 c0             	movzbl %al,%eax
ff5001a8:	89 44 24 04          	mov    %eax,0x4(%esp)
ff5001ac:	c7 04 24 fb 03 00 00 	movl   $0x3fb,(%esp)
ff5001b3:	e8 78 00 00 00       	call   ff500230 <outByte>
ff5001b8:	c7 44 24 04 03 00 00 	movl   $0x3,0x4(%esp)
ff5001bf:	00 
ff5001c0:	c7 04 24 f8 03 00 00 	movl   $0x3f8,(%esp)
ff5001c7:	e8 64 00 00 00       	call   ff500230 <outByte>
ff5001cc:	c7 44 24 04 00 00 00 	movl   $0x0,0x4(%esp)
ff5001d3:	00 
ff5001d4:	c7 04 24 f9 03 00 00 	movl   $0x3f9,(%esp)
ff5001db:	e8 50 00 00 00       	call   ff500230 <outByte>
ff5001e0:	c7 04 24 fb 03 00 00 	movl   $0x3fb,(%esp)
ff5001e7:	e8 34 00 00 00       	call   ff500220 <inByte>
ff5001ec:	0f b6 c0             	movzbl %al,%eax
ff5001ef:	83 e0 7f             	and    $0x7f,%eax
ff5001f2:	89 44 24 04          	mov    %eax,0x4(%esp)
ff5001f6:	c7 04 24 fb 03 00 00 	movl   $0x3fb,(%esp)
ff5001fd:	e8 2e 00 00 00       	call   ff500230 <outByte>
ff500202:	c7 44 24 04 03 00 00 	movl   $0x3,0x4(%esp)
ff500209:	00 
ff50020a:	c7 04 24 fb 03 00 00 	movl   $0x3fb,(%esp)
ff500211:	e8 1a 00 00 00       	call   ff500230 <outByte>
ff500216:	c9                   	leave  
ff500217:	c3                   	ret    
ff500218:	90                   	nop    
ff500219:	8d b4 26 00 00 00 00 	lea    0x0(%esi,%eiz,1),%esi

ff500220 <inByte>:
ff500220:	55                   	push   %ebp
ff500221:	89 e5                	mov    %esp,%ebp
ff500223:	8b 45 08             	mov    0x8(%ebp),%eax
ff500226:	89 c2                	mov    %eax,%edx
ff500228:	ec                   	in     (%dx),%al
ff500229:	5d                   	pop    %ebp
ff50022a:	c3                   	ret    
ff50022b:	90                   	nop    
ff50022c:	8d 74 26 00          	lea    0x0(%esi,%eiz,1),%esi

ff500230 <outByte>:
ff500230:	55                   	push   %ebp
ff500231:	89 e5                	mov    %esp,%ebp
ff500233:	8b 45 08             	mov    0x8(%ebp),%eax
ff500236:	8b 55 0c             	mov    0xc(%ebp),%edx
ff500239:	89 c1                	mov    %eax,%ecx
ff50023b:	89 d0                	mov    %edx,%eax
ff50023d:	89 ca                	mov    %ecx,%edx
ff50023f:	ee                   	out    %al,(%dx)
ff500240:	5d                   	pop    %ebp
ff500241:	c3                   	ret    
ff500242:	8d b4 26 00 00 00 00 	lea    0x0(%esi,%eiz,1),%esi
ff500249:	8d bc 27 00 00 00 00 	lea    0x0(%edi,%eiz,1),%edi

ff500250 <getDebugChar>:
ff500250:	55                   	push   %ebp
ff500251:	89 e5                	mov    %esp,%ebp
ff500253:	83 ec 04             	sub    $0x4,%esp
ff500256:	c7 04 24 fd 03 00 00 	movl   $0x3fd,(%esp)
ff50025d:	e8 be ff ff ff       	call   ff500220 <inByte>
ff500262:	0f b6 c0             	movzbl %al,%eax
ff500265:	83 e0 01             	and    $0x1,%eax
ff500268:	85 c0                	test   %eax,%eax
ff50026a:	74 ea                	je     ff500256 <getDebugChar+0x6>
ff50026c:	c7 04 24 f8 03 00 00 	movl   $0x3f8,(%esp)
ff500273:	e8 a8 ff ff ff       	call   ff500220 <inByte>
ff500278:	0f b6 c0             	movzbl %al,%eax
ff50027b:	c9                   	leave  
ff50027c:	c3                   	ret    
ff50027d:	8d 76 00             	lea    0x0(%esi),%esi

ff500280 <putDebugChar>:
ff500280:	55                   	push   %ebp
ff500281:	89 e5                	mov    %esp,%ebp
ff500283:	83 ec 08             	sub    $0x8,%esp
ff500286:	c7 04 24 fd 03 00 00 	movl   $0x3fd,(%esp)
ff50028d:	e8 8e ff ff ff       	call   ff500220 <inByte>
ff500292:	0f b6 c0             	movzbl %al,%eax
ff500295:	83 e0 20             	and    $0x20,%eax
ff500298:	85 c0                	test   %eax,%eax
ff50029a:	74 ea                	je     ff500286 <putDebugChar+0x6>
ff50029c:	8b 45 08             	mov    0x8(%ebp),%eax
ff50029f:	0f b6 c0             	movzbl %al,%eax
ff5002a2:	89 44 24 04          	mov    %eax,0x4(%esp)
ff5002a6:	c7 04 24 f8 03 00 00 	movl   $0x3f8,(%esp)
ff5002ad:	e8 7e ff ff ff       	call   ff500230 <outByte>
ff5002b2:	c9                   	leave  
ff5002b3:	c3                   	ret    
ff5002b4:	8d b6 00 00 00 00    	lea    0x0(%esi),%esi
ff5002ba:	8d bf 00 00 00 00    	lea    0x0(%edi),%edi

ff5002c0 <kitoa>:
ff5002c0:	55                   	push   %ebp
ff5002c1:	89 e5                	mov    %esp,%ebp
ff5002c3:	83 ec 64             	sub    $0x64,%esp
ff5002c6:	8d 45 cf             	lea    -0x31(%ebp),%eax
ff5002c9:	89 45 f0             	mov    %eax,-0x10(%ebp)
ff5002cc:	8b 45 0c             	mov    0xc(%ebp),%eax
ff5002cf:	89 45 f8             	mov    %eax,-0x8(%ebp)
ff5002d2:	8d 45 08             	lea    0x8(%ebp),%eax
ff5002d5:	89 45 fc             	mov    %eax,-0x4(%ebp)
ff5002d8:	83 7d 0c 00          	cmpl   $0x0,0xc(%ebp)
ff5002dc:	74 0c                	je     ff5002ea <kitoa+0x2a>
ff5002de:	83 7d 10 24          	cmpl   $0x24,0x10(%ebp)
ff5002e2:	7f 06                	jg     ff5002ea <kitoa+0x2a>
ff5002e4:	83 7d 10 01          	cmpl   $0x1,0x10(%ebp)
ff5002e8:	7f 0c                	jg     ff5002f6 <kitoa+0x36>
ff5002ea:	c7 45 b4 00 00 00 00 	movl   $0x0,-0x4c(%ebp)
ff5002f1:	e9 4e 01 00 00       	jmp    ff500444 <kitoa+0x184>
ff5002f6:	8b 45 08             	mov    0x8(%ebp),%eax
ff5002f9:	85 c0                	test   %eax,%eax
ff5002fb:	75 1a                	jne    ff500317 <kitoa+0x57>
ff5002fd:	8b 45 0c             	mov    0xc(%ebp),%eax
ff500300:	c6 00 30             	movb   $0x30,(%eax)
ff500303:	8b 45 0c             	mov    0xc(%ebp),%eax
ff500306:	83 c0 01             	add    $0x1,%eax
ff500309:	c6 00 00             	movb   $0x0,(%eax)
ff50030c:	8b 55 0c             	mov    0xc(%ebp),%edx
ff50030f:	89 55 b4             	mov    %edx,-0x4c(%ebp)
ff500312:	e9 2d 01 00 00       	jmp    ff500444 <kitoa+0x184>
ff500317:	8b 45 f0             	mov    -0x10(%ebp),%eax
ff50031a:	c6 00 00             	movb   $0x0,(%eax)
ff50031d:	83 45 f0 01          	addl   $0x1,-0x10(%ebp)
ff500321:	83 7d 10 0a          	cmpl   $0xa,0x10(%ebp)
ff500325:	0f 85 c8 00 00 00    	jne    ff5003f3 <kitoa+0x133>
ff50032b:	8b 45 08             	mov    0x8(%ebp),%eax
ff50032e:	85 c0                	test   %eax,%eax
ff500330:	0f 89 bd 00 00 00    	jns    ff5003f3 <kitoa+0x133>
ff500336:	8b 45 0c             	mov    0xc(%ebp),%eax
ff500339:	c6 00 2d             	movb   $0x2d,(%eax)
ff50033c:	83 45 0c 01          	addl   $0x1,0xc(%ebp)
ff500340:	e9 ae 00 00 00       	jmp    ff5003f3 <kitoa+0x133>
ff500345:	83 7d 10 0a          	cmpl   $0xa,0x10(%ebp)
ff500349:	75 23                	jne    ff50036e <kitoa+0xae>
ff50034b:	8b 45 08             	mov    0x8(%ebp),%eax
ff50034e:	89 c2                	mov    %eax,%edx
ff500350:	c1 fa 1f             	sar    $0x1f,%edx
ff500353:	31 d0                	xor    %edx,%eax
ff500355:	29 d0                	sub    %edx,%eax
ff500357:	89 c2                	mov    %eax,%edx
ff500359:	8b 45 10             	mov    0x10(%ebp),%eax
ff50035c:	89 45 a0             	mov    %eax,-0x60(%ebp)
ff50035f:	89 d0                	mov    %edx,%eax
ff500361:	ba 00 00 00 00       	mov    $0x0,%edx
ff500366:	f7 75 a0             	divl   -0x60(%ebp)
ff500369:	89 55 b8             	mov    %edx,-0x48(%ebp)
ff50036c:	eb 18                	jmp    ff500386 <kitoa+0xc6>
ff50036e:	8b 45 fc             	mov    -0x4(%ebp),%eax
ff500371:	8b 10                	mov    (%eax),%edx
ff500373:	8b 45 10             	mov    0x10(%ebp),%eax
ff500376:	89 45 a0             	mov    %eax,-0x60(%ebp)
ff500379:	89 d0                	mov    %edx,%eax
ff50037b:	ba 00 00 00 00       	mov    $0x0,%edx
ff500380:	f7 75 a0             	divl   -0x60(%ebp)
ff500383:	89 55 b8             	mov    %edx,-0x48(%ebp)
ff500386:	8b 55 b8             	mov    -0x48(%ebp),%edx
ff500389:	89 55 f4             	mov    %edx,-0xc(%ebp)
ff50038c:	83 7d f4 09          	cmpl   $0x9,-0xc(%ebp)
ff500390:	76 0b                	jbe    ff50039d <kitoa+0xdd>
ff500392:	8b 45 f4             	mov    -0xc(%ebp),%eax
ff500395:	83 c0 37             	add    $0x37,%eax
ff500398:	88 45 be             	mov    %al,-0x42(%ebp)
ff50039b:	eb 09                	jmp    ff5003a6 <kitoa+0xe6>
ff50039d:	8b 45 f4             	mov    -0xc(%ebp),%eax
ff5003a0:	83 c0 30             	add    $0x30,%eax
ff5003a3:	88 45 be             	mov    %al,-0x42(%ebp)
ff5003a6:	8b 45 f0             	mov    -0x10(%ebp),%eax
ff5003a9:	0f b6 55 be          	movzbl -0x42(%ebp),%edx
ff5003ad:	88 10                	mov    %dl,(%eax)
ff5003af:	83 45 f0 01          	addl   $0x1,-0x10(%ebp)
ff5003b3:	83 7d 10 0a          	cmpl   $0xa,0x10(%ebp)
ff5003b7:	75 16                	jne    ff5003cf <kitoa+0x10f>
ff5003b9:	8b 45 08             	mov    0x8(%ebp),%eax
ff5003bc:	89 45 9c             	mov    %eax,-0x64(%ebp)
ff5003bf:	8b 55 9c             	mov    -0x64(%ebp),%edx
ff5003c2:	89 d0                	mov    %edx,%eax
ff5003c4:	c1 fa 1f             	sar    $0x1f,%edx
ff5003c7:	f7 7d 10             	idivl  0x10(%ebp)
ff5003ca:	89 45 08             	mov    %eax,0x8(%ebp)
ff5003cd:	eb 24                	jmp    ff5003f3 <kitoa+0x133>
ff5003cf:	8b 45 fc             	mov    -0x4(%ebp),%eax
ff5003d2:	8b 00                	mov    (%eax),%eax
ff5003d4:	89 45 9c             	mov    %eax,-0x64(%ebp)
ff5003d7:	8b 45 10             	mov    0x10(%ebp),%eax
ff5003da:	89 45 a0             	mov    %eax,-0x60(%ebp)
ff5003dd:	8b 45 9c             	mov    -0x64(%ebp),%eax
ff5003e0:	ba 00 00 00 00       	mov    $0x0,%edx
ff5003e5:	f7 75 a0             	divl   -0x60(%ebp)
ff5003e8:	89 45 a0             	mov    %eax,-0x60(%ebp)
ff5003eb:	8b 55 a0             	mov    -0x60(%ebp),%edx
ff5003ee:	8b 45 fc             	mov    -0x4(%ebp),%eax
ff5003f1:	89 10                	mov    %edx,(%eax)
ff5003f3:	83 7d 10 0a          	cmpl   $0xa,0x10(%ebp)
ff5003f7:	75 0b                	jne    ff500404 <kitoa+0x144>
ff5003f9:	8b 45 08             	mov    0x8(%ebp),%eax
ff5003fc:	85 c0                	test   %eax,%eax
ff5003fe:	0f 95 45 bf          	setne  -0x41(%ebp)
ff500402:	eb 0b                	jmp    ff50040f <kitoa+0x14f>
ff500404:	8b 45 fc             	mov    -0x4(%ebp),%eax
ff500407:	8b 00                	mov    (%eax),%eax
ff500409:	85 c0                	test   %eax,%eax
ff50040b:	0f 95 45 bf          	setne  -0x41(%ebp)
ff50040f:	80 7d bf 00          	cmpb   $0x0,-0x41(%ebp)
ff500413:	0f 85 2c ff ff ff    	jne    ff500345 <kitoa+0x85>
ff500419:	eb 0f                	jmp    ff50042a <kitoa+0x16a>
ff50041b:	8b 45 f0             	mov    -0x10(%ebp),%eax
ff50041e:	0f b6 10             	movzbl (%eax),%edx
ff500421:	8b 45 0c             	mov    0xc(%ebp),%eax
ff500424:	88 10                	mov    %dl,(%eax)
ff500426:	83 45 0c 01          	addl   $0x1,0xc(%ebp)
ff50042a:	83 6d f0 01          	subl   $0x1,-0x10(%ebp)
ff50042e:	8b 45 f0             	mov    -0x10(%ebp),%eax
ff500431:	0f b6 00             	movzbl (%eax),%eax
ff500434:	84 c0                	test   %al,%al
ff500436:	75 e3                	jne    ff50041b <kitoa+0x15b>
ff500438:	8b 45 0c             	mov    0xc(%ebp),%eax
ff50043b:	c6 00 00             	movb   $0x0,(%eax)
ff50043e:	8b 45 f8             	mov    -0x8(%ebp),%eax
ff500441:	89 45 b4             	mov    %eax,-0x4c(%ebp)
ff500444:	8b 45 b4             	mov    -0x4c(%ebp),%eax
ff500447:	c9                   	leave  
ff500448:	c3                   	ret    
ff500449:	8d b4 26 00 00 00 00 	lea    0x0(%esi,%eiz,1),%esi

ff500450 <initVideo>:
ff500450:	55                   	push   %ebp
ff500451:	89 e5                	mov    %esp,%ebp
ff500453:	c6 05 14 c0 50 ff 01 	movb   $0x1,0xff50c014
ff50045a:	c6 05 0c c0 50 ff 01 	movb   $0x1,0xff50c00c
ff500461:	5d                   	pop    %ebp
ff500462:	c3                   	ret    
ff500463:	8d b6 00 00 00 00    	lea    0x0(%esi),%esi
ff500469:	8d bc 27 00 00 00 00 	lea    0x0(%edi,%eiz,1),%edi

ff500470 <setVideoLowMem>:
ff500470:	55                   	push   %ebp
ff500471:	89 e5                	mov    %esp,%ebp
ff500473:	83 ec 04             	sub    $0x4,%esp
ff500476:	8b 45 08             	mov    0x8(%ebp),%eax
ff500479:	88 45 fc             	mov    %al,-0x4(%ebp)
ff50047c:	0f b6 45 fc          	movzbl -0x4(%ebp),%eax
ff500480:	a2 14 c0 50 ff       	mov    %al,0xff50c014
ff500485:	c9                   	leave  
ff500486:	c3                   	ret    
ff500487:	89 f6                	mov    %esi,%esi
ff500489:	8d bc 27 00 00 00 00 	lea    0x0(%edi,%eiz,1),%edi

ff500490 <setBadAssertHlt>:
ff500490:	55                   	push   %ebp
ff500491:	89 e5                	mov    %esp,%ebp
ff500493:	83 ec 04             	sub    $0x4,%esp
ff500496:	8b 45 08             	mov    0x8(%ebp),%eax
ff500499:	88 45 fc             	mov    %al,-0x4(%ebp)
ff50049c:	0f b6 45 fc          	movzbl -0x4(%ebp),%eax
ff5004a0:	a2 0c c0 50 ff       	mov    %al,0xff50c00c
ff5004a5:	c9                   	leave  
ff5004a6:	c3                   	ret    
ff5004a7:	89 f6                	mov    %esi,%esi
ff5004a9:	8d bc 27 00 00 00 00 	lea    0x0(%edi,%eiz,1),%edi

ff5004b0 <kprintAt>:
ff5004b0:	55                   	push   %ebp
ff5004b1:	89 e5                	mov    %esp,%ebp
ff5004b3:	83 ec 10             	sub    $0x10,%esp
ff5004b6:	8b 55 10             	mov    0x10(%ebp),%edx
ff5004b9:	89 d0                	mov    %edx,%eax
ff5004bb:	c1 e0 02             	shl    $0x2,%eax
ff5004be:	01 d0                	add    %edx,%eax
ff5004c0:	c1 e0 04             	shl    $0x4,%eax
ff5004c3:	03 45 0c             	add    0xc(%ebp),%eax
ff5004c6:	05 00 c0 05 00       	add    $0x5c000,%eax
ff5004cb:	01 c0                	add    %eax,%eax
ff5004cd:	89 45 fc             	mov    %eax,-0x4(%ebp)
ff5004d0:	0f b6 05 14 c0 50 ff 	movzbl 0xff50c014,%eax
ff5004d7:	83 f0 01             	xor    $0x1,%eax
ff5004da:	84 c0                	test   %al,%al
ff5004dc:	74 21                	je     ff5004ff <kprintAt+0x4f>
ff5004de:	b8 00 00 40 ff       	mov    $0xff400000,%eax
ff5004e3:	01 45 fc             	add    %eax,-0x4(%ebp)
ff5004e6:	eb 17                	jmp    ff5004ff <kprintAt+0x4f>
ff5004e8:	8b 45 08             	mov    0x8(%ebp),%eax
ff5004eb:	0f b6 10             	movzbl (%eax),%edx
ff5004ee:	8b 45 fc             	mov    -0x4(%ebp),%eax
ff5004f1:	88 10                	mov    %dl,(%eax)
ff5004f3:	83 45 fc 01          	addl   $0x1,-0x4(%ebp)
ff5004f7:	83 45 08 01          	addl   $0x1,0x8(%ebp)
ff5004fb:	83 45 fc 01          	addl   $0x1,-0x4(%ebp)
ff5004ff:	8b 45 08             	mov    0x8(%ebp),%eax
ff500502:	0f b6 00             	movzbl (%eax),%eax
ff500505:	84 c0                	test   %al,%al
ff500507:	75 df                	jne    ff5004e8 <kprintAt+0x38>
ff500509:	c9                   	leave  
ff50050a:	c3                   	ret    
ff50050b:	90                   	nop    
ff50050c:	8d 74 26 00          	lea    0x0(%esi,%eiz,1),%esi

ff500510 <printAssertMsg>:
ff500510:	55                   	push   %ebp
ff500511:	89 e5                	mov    %esp,%ebp
ff500513:	83 ec 18             	sub    $0x18,%esp
ff500516:	8b 45 08             	mov    0x8(%ebp),%eax
ff500519:	89 44 24 10          	mov    %eax,0x10(%esp)
ff50051d:	8b 45 14             	mov    0x14(%ebp),%eax
ff500520:	89 44 24 0c          	mov    %eax,0xc(%esp)
ff500524:	8b 45 10             	mov    0x10(%ebp),%eax
ff500527:	89 44 24 08          	mov    %eax,0x8(%esp)
ff50052b:	8b 45 0c             	mov    0xc(%ebp),%eax
ff50052e:	89 44 24 04          	mov    %eax,0x4(%esp)
ff500532:	c7 04 24 30 61 50 ff 	movl   $0xff506130,(%esp)
ff500539:	e8 12 02 00 00       	call   ff500750 <kprintf>
ff50053e:	0f b6 05 0c c0 50 ff 	movzbl 0xff50c00c,%eax
ff500545:	84 c0                	test   %al,%al
ff500547:	74 0e                	je     ff500557 <printAssertMsg+0x47>
ff500549:	c7 04 24 52 61 50 ff 	movl   $0xff506152,(%esp)
ff500550:	e8 fb 01 00 00       	call   ff500750 <kprintf>
ff500555:	fa                   	cli    
ff500556:	f4                   	hlt    
ff500557:	c9                   	leave  
ff500558:	c3                   	ret    
ff500559:	8d b4 26 00 00 00 00 	lea    0x0(%esi,%eiz,1),%esi

ff500560 <incSchedCount>:
ff500560:	55                   	push   %ebp
ff500561:	89 e5                	mov    %esp,%ebp
ff500563:	83 ec 28             	sub    $0x28,%esp
ff500566:	c7 45 fc 00 80 0b 00 	movl   $0xb8000,-0x4(%ebp)
ff50056d:	0f b6 05 14 c0 50 ff 	movzbl 0xff50c014,%eax
ff500574:	83 f0 01             	xor    $0x1,%eax
ff500577:	84 c0                	test   %al,%al
ff500579:	74 08                	je     ff500583 <incSchedCount+0x23>
ff50057b:	b8 00 00 40 ff       	mov    $0xff400000,%eax
ff500580:	01 45 fc             	add    %eax,-0x4(%ebp)
ff500583:	8b 45 fc             	mov    -0x4(%ebp),%eax
ff500586:	8d 90 9e 00 00 00    	lea    0x9e(%eax),%edx
ff50058c:	0f b6 02             	movzbl (%edx),%eax
ff50058f:	83 c0 01             	add    $0x1,%eax
ff500592:	88 02                	mov    %al,(%edx)
ff500594:	8b 45 fc             	mov    -0x4(%ebp),%eax
ff500597:	05 9f 00 00 00       	add    $0x9f,%eax
ff50059c:	c6 00 78             	movb   $0x78,(%eax)
ff50059f:	a1 50 c0 50 ff       	mov    0xff50c050,%eax
ff5005a4:	85 c0                	test   %eax,%eax
ff5005a6:	75 24                	jne    ff5005cc <incSchedCount+0x6c>
ff5005a8:	c7 44 24 0c 34 01 00 	movl   $0x134,0xc(%esp)
ff5005af:	00 
ff5005b0:	c7 44 24 08 62 61 50 	movl   $0xff506162,0x8(%esp)
ff5005b7:	ff 
ff5005b8:	c7 44 24 04 70 61 50 	movl   $0xff506170,0x4(%esp)
ff5005bf:	ff 
ff5005c0:	c7 04 24 78 61 50 ff 	movl   $0xff506178,(%esp)
ff5005c7:	e8 44 ff ff ff       	call   ff500510 <printAssertMsg>
ff5005cc:	a1 50 c0 50 ff       	mov    0xff50c050,%eax
ff5005d1:	85 c0                	test   %eax,%eax
ff5005d3:	0f 84 bd 00 00 00    	je     ff500696 <incSchedCount+0x136>
ff5005d9:	c7 44 24 08 00 00 00 	movl   $0x0,0x8(%esp)
ff5005e0:	00 
ff5005e1:	c7 44 24 04 02 00 00 	movl   $0x2,0x4(%esp)
ff5005e8:	00 
ff5005e9:	c7 04 24 8e 61 50 ff 	movl   $0xff50618e,(%esp)
ff5005f0:	e8 bb fe ff ff       	call   ff5004b0 <kprintAt>
ff5005f5:	a1 50 c0 50 ff       	mov    0xff50c050,%eax
ff5005fa:	89 c2                	mov    %eax,%edx
ff5005fc:	a1 3c c0 50 ff       	mov    0xff50c03c,%eax
ff500601:	89 d1                	mov    %edx,%ecx
ff500603:	29 c1                	sub    %eax,%ecx
ff500605:	89 c8                	mov    %ecx,%eax
ff500607:	c1 f8 03             	sar    $0x3,%eax
ff50060a:	69 c0 a3 8b 2e ba    	imul   $0xba2e8ba3,%eax,%eax
ff500610:	0f bf d0             	movswl %ax,%edx
ff500613:	c7 44 24 08 0a 00 00 	movl   $0xa,0x8(%esp)
ff50061a:	00 
ff50061b:	8d 45 f0             	lea    -0x10(%ebp),%eax
ff50061e:	89 44 24 04          	mov    %eax,0x4(%esp)
ff500622:	89 14 24             	mov    %edx,(%esp)
ff500625:	e8 96 fc ff ff       	call   ff5002c0 <kitoa>
ff50062a:	c7 44 24 08 00 00 00 	movl   $0x0,0x8(%esp)
ff500631:	00 
ff500632:	c7 44 24 04 02 00 00 	movl   $0x2,0x4(%esp)
ff500639:	00 
ff50063a:	89 04 24             	mov    %eax,(%esp)
ff50063d:	e8 6e fe ff ff       	call   ff5004b0 <kprintAt>
ff500642:	c7 44 24 08 00 00 00 	movl   $0x0,0x8(%esp)
ff500649:	00 
ff50064a:	c7 44 24 04 1e 00 00 	movl   $0x1e,0x4(%esp)
ff500651:	00 
ff500652:	c7 04 24 94 61 50 ff 	movl   $0xff506194,(%esp)
ff500659:	e8 52 fe ff ff       	call   ff5004b0 <kprintAt>
ff50065e:	a1 50 c0 50 ff       	mov    0xff50c050,%eax
ff500663:	8b 00                	mov    (%eax),%eax
ff500665:	89 c2                	mov    %eax,%edx
ff500667:	c7 44 24 08 10 00 00 	movl   $0x10,0x8(%esp)
ff50066e:	00 
ff50066f:	8d 45 f0             	lea    -0x10(%ebp),%eax
ff500672:	89 44 24 04          	mov    %eax,0x4(%esp)
ff500676:	89 14 24             	mov    %edx,(%esp)
ff500679:	e8 42 fc ff ff       	call   ff5002c0 <kitoa>
ff50067e:	c7 44 24 08 00 00 00 	movl   $0x0,0x8(%esp)
ff500685:	00 
ff500686:	c7 44 24 04 1e 00 00 	movl   $0x1e,0x4(%esp)
ff50068d:	00 
ff50068e:	89 04 24             	mov    %eax,(%esp)
ff500691:	e8 1a fe ff ff       	call   ff5004b0 <kprintAt>
ff500696:	c9                   	leave  
ff500697:	c3                   	ret    
ff500698:	90                   	nop    
ff500699:	8d b4 26 00 00 00 00 	lea    0x0(%esi,%eiz,1),%esi

ff5006a0 <incTimerCount>:
ff5006a0:	55                   	push   %ebp
ff5006a1:	89 e5                	mov    %esp,%ebp
ff5006a3:	83 ec 10             	sub    $0x10,%esp
ff5006a6:	c7 45 fc 00 80 0b 00 	movl   $0xb8000,-0x4(%ebp)
ff5006ad:	0f b6 05 14 c0 50 ff 	movzbl 0xff50c014,%eax
ff5006b4:	83 f0 01             	xor    $0x1,%eax
ff5006b7:	84 c0                	test   %al,%al
ff5006b9:	74 08                	je     ff5006c3 <incTimerCount+0x23>
ff5006bb:	b8 00 00 40 ff       	mov    $0xff400000,%eax
ff5006c0:	01 45 fc             	add    %eax,-0x4(%ebp)
ff5006c3:	8b 45 fc             	mov    -0x4(%ebp),%eax
ff5006c6:	0f b6 00             	movzbl (%eax),%eax
ff5006c9:	8d 50 01             	lea    0x1(%eax),%edx
ff5006cc:	8b 45 fc             	mov    -0x4(%ebp),%eax
ff5006cf:	88 10                	mov    %dl,(%eax)
ff5006d1:	8b 45 fc             	mov    -0x4(%ebp),%eax
ff5006d4:	83 c0 01             	add    $0x1,%eax
ff5006d7:	c6 00 72             	movb   $0x72,(%eax)
ff5006da:	c9                   	leave  
ff5006db:	c3                   	ret    
ff5006dc:	8d 74 26 00          	lea    0x0(%esi,%eiz,1),%esi

ff5006e0 <clearScreen>:
ff5006e0:	55                   	push   %ebp
ff5006e1:	89 e5                	mov    %esp,%ebp
ff5006e3:	83 ec 28             	sub    $0x28,%esp
ff5006e6:	c7 45 f8 00 80 0b 00 	movl   $0xb8000,-0x8(%ebp)
ff5006ed:	0f b6 05 14 c0 50 ff 	movzbl 0xff50c014,%eax
ff5006f4:	83 f0 01             	xor    $0x1,%eax
ff5006f7:	84 c0                	test   %al,%al
ff5006f9:	74 08                	je     ff500703 <clearScreen+0x23>
ff5006fb:	b8 00 00 40 ff       	mov    $0xff400000,%eax
ff500700:	01 45 f8             	add    %eax,-0x8(%ebp)
ff500703:	c7 44 24 08 a0 0f 00 	movl   $0xfa0,0x8(%esp)
ff50070a:	00 
ff50070b:	c7 44 24 04 00 00 00 	movl   $0x0,0x4(%esp)
ff500712:	00 
ff500713:	8b 45 f8             	mov    -0x8(%ebp),%eax
ff500716:	89 04 24             	mov    %eax,(%esp)
ff500719:	e8 f2 13 00 00       	call   ff501b10 <memset>
ff50071e:	c7 45 fc 00 00 00 00 	movl   $0x0,-0x4(%ebp)
ff500725:	eb 1d                	jmp    ff500744 <clearScreen+0x64>
ff500727:	8b 45 fc             	mov    -0x4(%ebp),%eax
ff50072a:	01 c0                	add    %eax,%eax
ff50072c:	03 45 f8             	add    -0x8(%ebp),%eax
ff50072f:	c6 00 20             	movb   $0x20,(%eax)
ff500732:	8b 45 fc             	mov    -0x4(%ebp),%eax
ff500735:	01 c0                	add    %eax,%eax
ff500737:	83 c0 01             	add    $0x1,%eax
ff50073a:	03 45 f8             	add    -0x8(%ebp),%eax
ff50073d:	c6 00 70             	movb   $0x70,(%eax)
ff500740:	83 45 fc 01          	addl   $0x1,-0x4(%ebp)
ff500744:	83 7d fc 4f          	cmpl   $0x4f,-0x4(%ebp)
ff500748:	7e dd                	jle    ff500727 <clearScreen+0x47>
ff50074a:	c9                   	leave  
ff50074b:	c3                   	ret    
ff50074c:	8d 74 26 00          	lea    0x0(%esi,%eiz,1),%esi

ff500750 <kprintf>:
ff500750:	55                   	push   %ebp
ff500751:	89 e5                	mov    %esp,%ebp
ff500753:	83 ec 38             	sub    $0x38,%esp
ff500756:	c6 45 fb 00          	movb   $0x0,-0x5(%ebp)
ff50075a:	8d 45 08             	lea    0x8(%ebp),%eax
ff50075d:	83 c0 04             	add    $0x4,%eax
ff500760:	89 45 fc             	mov    %eax,-0x4(%ebp)
ff500763:	e9 18 01 00 00       	jmp    ff500880 <kprintf+0x130>
ff500768:	80 7d fb 00          	cmpb   $0x0,-0x5(%ebp)
ff50076c:	0f 84 c8 00 00 00    	je     ff50083a <kprintf+0xea>
ff500772:	8b 45 08             	mov    0x8(%ebp),%eax
ff500775:	0f b6 00             	movzbl (%eax),%eax
ff500778:	0f be c0             	movsbl %al,%eax
ff50077b:	83 e8 25             	sub    $0x25,%eax
ff50077e:	89 45 d8             	mov    %eax,-0x28(%ebp)
ff500781:	83 7d d8 53          	cmpl   $0x53,-0x28(%ebp)
ff500785:	0f 87 a9 00 00 00    	ja     ff500834 <kprintf+0xe4>
ff50078b:	8b 55 d8             	mov    -0x28(%ebp),%edx
ff50078e:	8b 04 95 a0 61 50 ff 	mov    -0xaf9e60(,%edx,4),%eax
ff500795:	ff e0                	jmp    *%eax
ff500797:	c7 04 24 25 00 00 00 	movl   $0x25,(%esp)
ff50079e:	e8 dd fa ff ff       	call   ff500280 <putDebugChar>
ff5007a3:	e9 8c 00 00 00       	jmp    ff500834 <kprintf+0xe4>
ff5007a8:	83 45 fc 04          	addl   $0x4,-0x4(%ebp)
ff5007ac:	8b 45 fc             	mov    -0x4(%ebp),%eax
ff5007af:	83 e8 04             	sub    $0x4,%eax
ff5007b2:	0f b6 00             	movzbl (%eax),%eax
ff5007b5:	0f be c0             	movsbl %al,%eax
ff5007b8:	89 04 24             	mov    %eax,(%esp)
ff5007bb:	e8 c0 fa ff ff       	call   ff500280 <putDebugChar>
ff5007c0:	eb 72                	jmp    ff500834 <kprintf+0xe4>
ff5007c2:	83 45 fc 04          	addl   $0x4,-0x4(%ebp)
ff5007c6:	8b 45 fc             	mov    -0x4(%ebp),%eax
ff5007c9:	83 e8 04             	sub    $0x4,%eax
ff5007cc:	8b 00                	mov    (%eax),%eax
ff5007ce:	89 c2                	mov    %eax,%edx
ff5007d0:	c7 44 24 08 10 00 00 	movl   $0x10,0x8(%esp)
ff5007d7:	00 
ff5007d8:	8d 45 ef             	lea    -0x11(%ebp),%eax
ff5007db:	89 44 24 04          	mov    %eax,0x4(%esp)
ff5007df:	89 14 24             	mov    %edx,(%esp)
ff5007e2:	e8 d9 fa ff ff       	call   ff5002c0 <kitoa>
ff5007e7:	89 04 24             	mov    %eax,(%esp)
ff5007ea:	e8 61 ff ff ff       	call   ff500750 <kprintf>
ff5007ef:	eb 43                	jmp    ff500834 <kprintf+0xe4>
ff5007f1:	83 45 fc 04          	addl   $0x4,-0x4(%ebp)
ff5007f5:	8b 45 fc             	mov    -0x4(%ebp),%eax
ff5007f8:	83 e8 04             	sub    $0x4,%eax
ff5007fb:	8b 00                	mov    (%eax),%eax
ff5007fd:	89 04 24             	mov    %eax,(%esp)
ff500800:	e8 4b ff ff ff       	call   ff500750 <kprintf>
ff500805:	eb 2d                	jmp    ff500834 <kprintf+0xe4>
ff500807:	83 45 fc 04          	addl   $0x4,-0x4(%ebp)
ff50080b:	8b 45 fc             	mov    -0x4(%ebp),%eax
ff50080e:	83 e8 04             	sub    $0x4,%eax
ff500811:	8b 00                	mov    (%eax),%eax
ff500813:	89 c2                	mov    %eax,%edx
ff500815:	c7 44 24 08 0a 00 00 	movl   $0xa,0x8(%esp)
ff50081c:	00 
ff50081d:	8d 45 ef             	lea    -0x11(%ebp),%eax
ff500820:	89 44 24 04          	mov    %eax,0x4(%esp)
ff500824:	89 14 24             	mov    %edx,(%esp)
ff500827:	e8 94 fa ff ff       	call   ff5002c0 <kitoa>
ff50082c:	89 04 24             	mov    %eax,(%esp)
ff50082f:	e8 1c ff ff ff       	call   ff500750 <kprintf>
ff500834:	c6 45 fb 00          	movb   $0x0,-0x5(%ebp)
ff500838:	eb 3d                	jmp    ff500877 <kprintf+0x127>
ff50083a:	8b 45 08             	mov    0x8(%ebp),%eax
ff50083d:	0f b6 00             	movzbl (%eax),%eax
ff500840:	0f be c0             	movsbl %al,%eax
ff500843:	89 45 dc             	mov    %eax,-0x24(%ebp)
ff500846:	83 7d dc 0a          	cmpl   $0xa,-0x24(%ebp)
ff50084a:	74 0c                	je     ff500858 <kprintf+0x108>
ff50084c:	83 7d dc 25          	cmpl   $0x25,-0x24(%ebp)
ff500850:	75 14                	jne    ff500866 <kprintf+0x116>
ff500852:	c6 45 fb 01          	movb   $0x1,-0x5(%ebp)
ff500856:	eb 1f                	jmp    ff500877 <kprintf+0x127>
ff500858:	c7 04 24 0d 00 00 00 	movl   $0xd,(%esp)
ff50085f:	e8 1c fa ff ff       	call   ff500280 <putDebugChar>
ff500864:	eb 11                	jmp    ff500877 <kprintf+0x127>
ff500866:	8b 45 08             	mov    0x8(%ebp),%eax
ff500869:	0f b6 00             	movzbl (%eax),%eax
ff50086c:	0f be c0             	movsbl %al,%eax
ff50086f:	89 04 24             	mov    %eax,(%esp)
ff500872:	e8 09 fa ff ff       	call   ff500280 <putDebugChar>
ff500877:	8b 45 08             	mov    0x8(%ebp),%eax
ff50087a:	83 c0 01             	add    $0x1,%eax
ff50087d:	89 45 08             	mov    %eax,0x8(%ebp)
ff500880:	8b 45 08             	mov    0x8(%ebp),%eax
ff500883:	0f b6 00             	movzbl (%eax),%eax
ff500886:	84 c0                	test   %al,%al
ff500888:	0f 85 da fe ff ff    	jne    ff500768 <kprintf+0x18>
ff50088e:	c7 45 fc 00 00 00 00 	movl   $0x0,-0x4(%ebp)
ff500895:	c9                   	leave  
ff500896:	c3                   	ret    
	...

ff5008a0 <sysEndIRQ>:
ff5008a0:	55                   	push   %ebp
ff5008a1:	89 e5                	mov    %esp,%ebp
ff5008a3:	83 ec 28             	sub    $0x28,%esp
ff5008a6:	83 7d 08 00          	cmpl   $0x0,0x8(%ebp)
ff5008aa:	75 24                	jne    ff5008d0 <sysEndIRQ+0x30>
ff5008ac:	c7 44 24 0c 28 00 00 	movl   $0x28,0xc(%esp)
ff5008b3:	00 
ff5008b4:	c7 44 24 08 f0 62 50 	movl   $0xff5062f0,0x8(%esp)
ff5008bb:	ff 
ff5008bc:	c7 44 24 04 fa 62 50 	movl   $0xff5062fa,0x4(%esp)
ff5008c3:	ff 
ff5008c4:	c7 04 24 07 63 50 ff 	movl   $0xff506307,(%esp)
ff5008cb:	e8 40 fc ff ff       	call   ff500510 <printAssertMsg>
ff5008d0:	8b 45 0c             	mov    0xc(%ebp),%eax
ff5008d3:	89 44 24 04          	mov    %eax,0x4(%esp)
ff5008d7:	c7 04 24 16 63 50 ff 	movl   $0xff506316,(%esp)
ff5008de:	e8 6d fe ff ff       	call   ff500750 <kprintf>
ff5008e3:	83 7d 0c 1f          	cmpl   $0x1f,0xc(%ebp)
ff5008e7:	7e 06                	jle    ff5008ef <sysEndIRQ+0x4f>
ff5008e9:	83 7d 0c 2f          	cmpl   $0x2f,0xc(%ebp)
ff5008ed:	7e 24                	jle    ff500913 <sysEndIRQ+0x73>
ff5008ef:	c7 44 24 0c 2b 00 00 	movl   $0x2b,0xc(%esp)
ff5008f6:	00 
ff5008f7:	c7 44 24 08 f0 62 50 	movl   $0xff5062f0,0x8(%esp)
ff5008fe:	ff 
ff5008ff:	c7 44 24 04 fa 62 50 	movl   $0xff5062fa,0x4(%esp)
ff500906:	ff 
ff500907:	c7 04 24 28 63 50 ff 	movl   $0xff506328,(%esp)
ff50090e:	e8 fd fb ff ff       	call   ff500510 <printAssertMsg>
ff500913:	83 7d 08 00          	cmpl   $0x0,0x8(%ebp)
ff500917:	75 09                	jne    ff500922 <sysEndIRQ+0x82>
ff500919:	c7 45 ec ff ff ff ff 	movl   $0xffffffff,-0x14(%ebp)
ff500920:	eb 62                	jmp    ff500984 <sysEndIRQ+0xe4>
ff500922:	83 7d 0c 1f          	cmpl   $0x1f,0xc(%ebp)
ff500926:	7e 55                	jle    ff50097d <sysEndIRQ+0xdd>
ff500928:	83 7d 0c 2f          	cmpl   $0x2f,0xc(%ebp)
ff50092c:	7f 4f                	jg     ff50097d <sysEndIRQ+0xdd>
ff50092e:	8b 45 0c             	mov    0xc(%ebp),%eax
ff500931:	83 e8 20             	sub    $0x20,%eax
ff500934:	0f b7 84 00 20 80 50 	movzwl -0xaf7fe0(%eax,%eax,1),%eax
ff50093b:	ff 
ff50093c:	66 89 45 fe          	mov    %ax,-0x2(%ebp)
ff500940:	8b 55 08             	mov    0x8(%ebp),%edx
ff500943:	a1 3c c0 50 ff       	mov    0xff50c03c,%eax
ff500948:	89 d1                	mov    %edx,%ecx
ff50094a:	29 c1                	sub    %eax,%ecx
ff50094c:	89 c8                	mov    %ecx,%eax
ff50094e:	c1 f8 03             	sar    $0x3,%eax
ff500951:	69 c0 a3 8b 2e ba    	imul   $0xba2e8ba3,%eax,%eax
ff500957:	66 3b 45 fe          	cmp    -0x2(%ebp),%ax
ff50095b:	74 09                	je     ff500966 <sysEndIRQ+0xc6>
ff50095d:	c7 45 ec ff ff ff ff 	movl   $0xffffffff,-0x14(%ebp)
ff500964:	eb 1e                	jmp    ff500984 <sysEndIRQ+0xe4>
ff500966:	8b 45 0c             	mov    0xc(%ebp),%eax
ff500969:	83 e8 20             	sub    $0x20,%eax
ff50096c:	89 04 24             	mov    %eax,(%esp)
ff50096f:	e8 3c 2c 00 00       	call   ff5035b0 <enableIRQ>
ff500974:	c7 45 ec 00 00 00 00 	movl   $0x0,-0x14(%ebp)
ff50097b:	eb 07                	jmp    ff500984 <sysEndIRQ+0xe4>
ff50097d:	c7 45 ec ff ff ff ff 	movl   $0xffffffff,-0x14(%ebp)
ff500984:	8b 45 ec             	mov    -0x14(%ebp),%eax
ff500987:	c9                   	leave  
ff500988:	c3                   	ret    
ff500989:	8d b4 26 00 00 00 00 	lea    0x0(%esi,%eiz,1),%esi

ff500990 <sysRegisterInt>:
ff500990:	55                   	push   %ebp
ff500991:	89 e5                	mov    %esp,%ebp
ff500993:	53                   	push   %ebx
ff500994:	83 ec 14             	sub    $0x14,%esp
ff500997:	83 7d 08 00          	cmpl   $0x0,0x8(%ebp)
ff50099b:	75 24                	jne    ff5009c1 <sysRegisterInt+0x31>
ff50099d:	c7 44 24 0c 44 00 00 	movl   $0x44,0xc(%esp)
ff5009a4:	00 
ff5009a5:	c7 44 24 08 4a 63 50 	movl   $0xff50634a,0x8(%esp)
ff5009ac:	ff 
ff5009ad:	c7 44 24 04 fa 62 50 	movl   $0xff5062fa,0x4(%esp)
ff5009b4:	ff 
ff5009b5:	c7 04 24 07 63 50 ff 	movl   $0xff506307,(%esp)
ff5009bc:	e8 4f fb ff ff       	call   ff500510 <printAssertMsg>
ff5009c1:	83 7d 0c 1f          	cmpl   $0x1f,0xc(%ebp)
ff5009c5:	7e 06                	jle    ff5009cd <sysRegisterInt+0x3d>
ff5009c7:	83 7d 0c 2f          	cmpl   $0x2f,0xc(%ebp)
ff5009cb:	7e 24                	jle    ff5009f1 <sysRegisterInt+0x61>
ff5009cd:	c7 44 24 0c 45 00 00 	movl   $0x45,0xc(%esp)
ff5009d4:	00 
ff5009d5:	c7 44 24 08 4a 63 50 	movl   $0xff50634a,0x8(%esp)
ff5009dc:	ff 
ff5009dd:	c7 44 24 04 fa 62 50 	movl   $0xff5062fa,0x4(%esp)
ff5009e4:	ff 
ff5009e5:	c7 04 24 5c 63 50 ff 	movl   $0xff50635c,(%esp)
ff5009ec:	e8 1f fb ff ff       	call   ff500510 <printAssertMsg>
ff5009f1:	8b 45 0c             	mov    0xc(%ebp),%eax
ff5009f4:	83 e8 20             	sub    $0x20,%eax
ff5009f7:	83 f8 0f             	cmp    $0xf,%eax
ff5009fa:	7f 06                	jg     ff500a02 <sysRegisterInt+0x72>
ff5009fc:	83 7d 0c 1f          	cmpl   $0x1f,0xc(%ebp)
ff500a00:	7f 09                	jg     ff500a0b <sysRegisterInt+0x7b>
ff500a02:	c7 45 f8 ff ff ff ff 	movl   $0xffffffff,-0x8(%ebp)
ff500a09:	eb 6b                	jmp    ff500a76 <sysRegisterInt+0xe6>
ff500a0b:	8b 45 0c             	mov    0xc(%ebp),%eax
ff500a0e:	89 04 24             	mov    %eax,(%esp)
ff500a11:	e8 9a 02 00 00       	call   ff500cb0 <registerIRQ>
ff500a16:	83 f0 01             	xor    $0x1,%eax
ff500a19:	84 c0                	test   %al,%al
ff500a1b:	74 09                	je     ff500a26 <sysRegisterInt+0x96>
ff500a1d:	c7 45 f8 ff ff ff ff 	movl   $0xffffffff,-0x8(%ebp)
ff500a24:	eb 50                	jmp    ff500a76 <sysRegisterInt+0xe6>
ff500a26:	8b 45 0c             	mov    0xc(%ebp),%eax
ff500a29:	83 e8 20             	sub    $0x20,%eax
ff500a2c:	89 44 24 04          	mov    %eax,0x4(%esp)
ff500a30:	c7 04 24 7e 63 50 ff 	movl   $0xff50637e,(%esp)
ff500a37:	e8 14 fd ff ff       	call   ff500750 <kprintf>
ff500a3c:	8b 45 0c             	mov    0xc(%ebp),%eax
ff500a3f:	83 e8 20             	sub    $0x20,%eax
ff500a42:	89 04 24             	mov    %eax,(%esp)
ff500a45:	e8 66 2b 00 00       	call   ff5035b0 <enableIRQ>
ff500a4a:	8b 45 0c             	mov    0xc(%ebp),%eax
ff500a4d:	8d 48 e0             	lea    -0x20(%eax),%ecx
ff500a50:	8b 55 08             	mov    0x8(%ebp),%edx
ff500a53:	a1 3c c0 50 ff       	mov    0xff50c03c,%eax
ff500a58:	89 d3                	mov    %edx,%ebx
ff500a5a:	29 c3                	sub    %eax,%ebx
ff500a5c:	89 d8                	mov    %ebx,%eax
ff500a5e:	c1 f8 03             	sar    $0x3,%eax
ff500a61:	69 c0 a3 8b 2e ba    	imul   $0xba2e8ba3,%eax,%eax
ff500a67:	66 89 84 09 20 80 50 	mov    %ax,-0xaf7fe0(%ecx,%ecx,1)
ff500a6e:	ff 
ff500a6f:	c7 45 f8 00 00 00 00 	movl   $0x0,-0x8(%ebp)
ff500a76:	8b 45 f8             	mov    -0x8(%ebp),%eax
ff500a79:	83 c4 14             	add    $0x14,%esp
ff500a7c:	5b                   	pop    %ebx
ff500a7d:	5d                   	pop    %ebp
ff500a7e:	c3                   	ret    
ff500a7f:	90                   	nop    

ff500a80 <sysEndPageFault>:
ff500a80:	55                   	push   %ebp
ff500a81:	89 e5                	mov    %esp,%ebp
ff500a83:	53                   	push   %ebx
ff500a84:	83 ec 24             	sub    $0x24,%esp
ff500a87:	8b 45 0c             	mov    0xc(%ebp),%eax
ff500a8a:	66 89 45 f8          	mov    %ax,-0x8(%ebp)
ff500a8e:	83 7d 08 00          	cmpl   $0x0,0x8(%ebp)
ff500a92:	75 24                	jne    ff500ab8 <sysEndPageFault+0x38>
ff500a94:	c7 44 24 0c 5d 00 00 	movl   $0x5d,0xc(%esp)
ff500a9b:	00 
ff500a9c:	c7 44 24 08 95 63 50 	movl   $0xff506395,0x8(%esp)
ff500aa3:	ff 
ff500aa4:	c7 44 24 04 fa 62 50 	movl   $0xff5062fa,0x4(%esp)
ff500aab:	ff 
ff500aac:	c7 04 24 a5 63 50 ff 	movl   $0xff5063a5,(%esp)
ff500ab3:	e8 58 fa ff ff       	call   ff500510 <printAssertMsg>
ff500ab8:	66 83 7d f8 ff       	cmpw   $0xffffffff,-0x8(%ebp)
ff500abd:	75 24                	jne    ff500ae3 <sysEndPageFault+0x63>
ff500abf:	c7 44 24 0c 5e 00 00 	movl   $0x5e,0xc(%esp)
ff500ac6:	00 
ff500ac7:	c7 44 24 08 95 63 50 	movl   $0xff506395,0x8(%esp)
ff500ace:	ff 
ff500acf:	c7 44 24 04 fa 62 50 	movl   $0xff5062fa,0x4(%esp)
ff500ad6:	ff 
ff500ad7:	c7 04 24 b8 63 50 ff 	movl   $0xff5063b8,(%esp)
ff500ade:	e8 2d fa ff ff       	call   ff500510 <printAssertMsg>
ff500ae3:	8b 15 3c c0 50 ff    	mov    0xff50c03c,%edx
ff500ae9:	0f bf 45 f8          	movswl -0x8(%ebp),%eax
ff500aed:	6b c0 58             	imul   $0x58,%eax,%eax
ff500af0:	8d 04 02             	lea    (%edx,%eax,1),%eax
ff500af3:	0f b7 40 0a          	movzwl 0xa(%eax),%eax
ff500af7:	66 83 f8 ff          	cmp    $0xffffffff,%ax
ff500afb:	75 24                	jne    ff500b21 <sysEndPageFault+0xa1>
ff500afd:	c7 44 24 0c 5f 00 00 	movl   $0x5f,0xc(%esp)
ff500b04:	00 
ff500b05:	c7 44 24 08 95 63 50 	movl   $0xff506395,0x8(%esp)
ff500b0c:	ff 
ff500b0d:	c7 44 24 04 fa 62 50 	movl   $0xff5062fa,0x4(%esp)
ff500b14:	ff 
ff500b15:	c7 04 24 c8 63 50 ff 	movl   $0xff5063c8,(%esp)
ff500b1c:	e8 ef f9 ff ff       	call   ff500510 <printAssertMsg>
ff500b21:	83 7d 08 00          	cmpl   $0x0,0x8(%ebp)
ff500b25:	74 21                	je     ff500b48 <sysEndPageFault+0xc8>
ff500b27:	66 83 7d f8 ff       	cmpw   $0xffffffff,-0x8(%ebp)
ff500b2c:	74 1a                	je     ff500b48 <sysEndPageFault+0xc8>
ff500b2e:	8b 15 3c c0 50 ff    	mov    0xff50c03c,%edx
ff500b34:	0f bf 45 f8          	movswl -0x8(%ebp),%eax
ff500b38:	6b c0 58             	imul   $0x58,%eax,%eax
ff500b3b:	8d 04 02             	lea    (%edx,%eax,1),%eax
ff500b3e:	0f b7 40 0a          	movzwl 0xa(%eax),%eax
ff500b42:	66 83 f8 ff          	cmp    $0xffffffff,%ax
ff500b46:	75 09                	jne    ff500b51 <sysEndPageFault+0xd1>
ff500b48:	c7 45 f4 ff ff ff ff 	movl   $0xffffffff,-0xc(%ebp)
ff500b4f:	eb 58                	jmp    ff500ba9 <sysEndPageFault+0x129>
ff500b51:	8b 15 3c c0 50 ff    	mov    0xff50c03c,%edx
ff500b57:	0f bf 45 f8          	movswl -0x8(%ebp),%eax
ff500b5b:	6b c0 58             	imul   $0x58,%eax,%eax
ff500b5e:	8d 04 02             	lea    (%edx,%eax,1),%eax
ff500b61:	0f b7 48 0a          	movzwl 0xa(%eax),%ecx
ff500b65:	8b 55 08             	mov    0x8(%ebp),%edx
ff500b68:	a1 3c c0 50 ff       	mov    0xff50c03c,%eax
ff500b6d:	89 d3                	mov    %edx,%ebx
ff500b6f:	29 c3                	sub    %eax,%ebx
ff500b71:	89 d8                	mov    %ebx,%eax
ff500b73:	c1 f8 03             	sar    $0x3,%eax
ff500b76:	69 c0 a3 8b 2e ba    	imul   $0xba2e8ba3,%eax,%eax
ff500b7c:	66 39 c1             	cmp    %ax,%cx
ff500b7f:	74 09                	je     ff500b8a <sysEndPageFault+0x10a>
ff500b81:	c7 45 f4 ff ff ff ff 	movl   $0xffffffff,-0xc(%ebp)
ff500b88:	eb 1f                	jmp    ff500ba9 <sysEndPageFault+0x129>
ff500b8a:	8b 15 3c c0 50 ff    	mov    0xff50c03c,%edx
ff500b90:	0f bf 45 f8          	movswl -0x8(%ebp),%eax
ff500b94:	6b c0 58             	imul   $0x58,%eax,%eax
ff500b97:	8d 04 02             	lea    (%edx,%eax,1),%eax
ff500b9a:	89 04 24             	mov    %eax,(%esp)
ff500b9d:	e8 7e 47 00 00       	call   ff505320 <startThread>
ff500ba2:	c7 45 f4 00 00 00 00 	movl   $0x0,-0xc(%ebp)
ff500ba9:	8b 45 f4             	mov    -0xc(%ebp),%eax
ff500bac:	83 c4 24             	add    $0x24,%esp
ff500baf:	5b                   	pop    %ebx
ff500bb0:	5d                   	pop    %ebp
ff500bb1:	c3                   	ret    
ff500bb2:	8d b4 26 00 00 00 00 	lea    0x0(%esi,%eiz,1),%esi
ff500bb9:	8d bc 27 00 00 00 00 	lea    0x0(%edi,%eiz,1),%edi

ff500bc0 <handleIRQ>:
ff500bc0:	55                   	push   %ebp
ff500bc1:	89 e5                	mov    %esp,%ebp
ff500bc3:	83 ec 28             	sub    $0x28,%esp
ff500bc6:	8b 45 08             	mov    0x8(%ebp),%eax
ff500bc9:	83 c0 18             	add    $0x18,%eax
ff500bcc:	89 45 fc             	mov    %eax,-0x4(%ebp)
ff500bcf:	8b 55 08             	mov    0x8(%ebp),%edx
ff500bd2:	a1 3c c0 50 ff       	mov    0xff50c03c,%eax
ff500bd7:	89 d1                	mov    %edx,%ecx
ff500bd9:	29 c1                	sub    %eax,%ecx
ff500bdb:	89 c8                	mov    %ecx,%eax
ff500bdd:	c1 f8 03             	sar    $0x3,%eax
ff500be0:	69 c0 a3 8b 2e ba    	imul   $0xba2e8ba3,%eax,%eax
ff500be6:	66 85 c0             	test   %ax,%ax
ff500be9:	75 0b                	jne    ff500bf6 <handleIRQ+0x36>
ff500beb:	c7 45 fc 00 60 40 ff 	movl   $0xff406000,-0x4(%ebp)
ff500bf2:	83 6d fc 40          	subl   $0x40,-0x4(%ebp)
ff500bf6:	8b 45 fc             	mov    -0x4(%ebp),%eax
ff500bf9:	8b 40 24             	mov    0x24(%eax),%eax
ff500bfc:	85 c0                	test   %eax,%eax
ff500bfe:	75 10                	jne    ff500c10 <handleIRQ+0x50>
ff500c00:	8b 45 08             	mov    0x8(%ebp),%eax
ff500c03:	89 04 24             	mov    %eax,(%esp)
ff500c06:	e8 f5 01 00 00       	call   ff500e00 <dump_regs>
ff500c0b:	e9 90 00 00 00       	jmp    ff500ca0 <handleIRQ+0xe0>
ff500c10:	8b 45 08             	mov    0x8(%ebp),%eax
ff500c13:	8b 40 3c             	mov    0x3c(%eax),%eax
ff500c16:	83 f8 27             	cmp    $0x27,%eax
ff500c19:	75 15                	jne    ff500c30 <handleIRQ+0x70>
ff500c1b:	0f b6 05 07 80 50 ff 	movzbl 0xff508007,%eax
ff500c22:	83 f0 01             	xor    $0x1,%eax
ff500c25:	84 c0                	test   %al,%al
ff500c27:	75 07                	jne    ff500c30 <handleIRQ+0x70>
ff500c29:	e8 12 29 00 00       	call   ff503540 <sendEOI>
ff500c2e:	eb 70                	jmp    ff500ca0 <handleIRQ+0xe0>
ff500c30:	8b 45 fc             	mov    -0x4(%ebp),%eax
ff500c33:	8b 40 24             	mov    0x24(%eax),%eax
ff500c36:	83 e8 20             	sub    $0x20,%eax
ff500c39:	89 04 24             	mov    %eax,(%esp)
ff500c3c:	e8 2f 2a 00 00       	call   ff503670 <disableIRQ>
ff500c41:	e8 fa 28 00 00       	call   ff503540 <sendEOI>
ff500c46:	8b 45 fc             	mov    -0x4(%ebp),%eax
ff500c49:	8b 40 24             	mov    0x24(%eax),%eax
ff500c4c:	83 e8 20             	sub    $0x20,%eax
ff500c4f:	0f b7 84 00 20 80 50 	movzwl -0xaf7fe0(%eax,%eax,1),%eax
ff500c56:	ff 
ff500c57:	66 83 f8 ff          	cmp    $0xffffffff,%ax
ff500c5b:	74 43                	je     ff500ca0 <handleIRQ+0xe0>
ff500c5d:	8b 45 fc             	mov    -0x4(%ebp),%eax
ff500c60:	8b 40 24             	mov    0x24(%eax),%eax
ff500c63:	0f b6 c0             	movzbl %al,%eax
ff500c66:	c1 e0 08             	shl    $0x8,%eax
ff500c69:	89 c2                	mov    %eax,%edx
ff500c6b:	83 ca 01             	or     $0x1,%edx
ff500c6e:	8b 0d 3c c0 50 ff    	mov    0xff50c03c,%ecx
ff500c74:	8b 45 fc             	mov    -0x4(%ebp),%eax
ff500c77:	8b 40 24             	mov    0x24(%eax),%eax
ff500c7a:	83 e8 20             	sub    $0x20,%eax
ff500c7d:	0f b7 84 00 20 80 50 	movzwl -0xaf7fe0(%eax,%eax,1),%eax
ff500c84:	ff 
ff500c85:	98                   	cwtl   
ff500c86:	6b c0 58             	imul   $0x58,%eax,%eax
ff500c89:	8d 04 01             	lea    (%ecx,%eax,1),%eax
ff500c8c:	c7 44 24 08 00 00 00 	movl   $0x0,0x8(%esp)
ff500c93:	00 
ff500c94:	89 54 24 04          	mov    %edx,0x4(%esp)
ff500c98:	89 04 24             	mov    %eax,(%esp)
ff500c9b:	e8 50 3c 00 00       	call   ff5048f0 <sysRaise>
ff500ca0:	c9                   	leave  
ff500ca1:	c3                   	ret    
ff500ca2:	8d b4 26 00 00 00 00 	lea    0x0(%esi,%eiz,1),%esi
ff500ca9:	8d bc 27 00 00 00 00 	lea    0x0(%edi,%eiz,1),%edi

ff500cb0 <registerIRQ>:
ff500cb0:	55                   	push   %ebp
ff500cb1:	89 e5                	mov    %esp,%ebp
ff500cb3:	83 ec 28             	sub    $0x28,%esp
ff500cb6:	83 7d 08 1f          	cmpl   $0x1f,0x8(%ebp)
ff500cba:	7e 06                	jle    ff500cc2 <registerIRQ+0x12>
ff500cbc:	83 7d 08 2f          	cmpl   $0x2f,0x8(%ebp)
ff500cc0:	7e 24                	jle    ff500ce6 <registerIRQ+0x36>
ff500cc2:	c7 44 24 0c 92 00 00 	movl   $0x92,0xc(%esp)
ff500cc9:	00 
ff500cca:	c7 44 24 08 ec 63 50 	movl   $0xff5063ec,0x8(%esp)
ff500cd1:	ff 
ff500cd2:	c7 44 24 04 fa 62 50 	movl   $0xff5062fa,0x4(%esp)
ff500cd9:	ff 
ff500cda:	c7 04 24 f8 63 50 ff 	movl   $0xff5063f8,(%esp)
ff500ce1:	e8 2a f8 ff ff       	call   ff500510 <printAssertMsg>
ff500ce6:	83 7d 08 1f          	cmpl   $0x1f,0x8(%ebp)
ff500cea:	7e 1a                	jle    ff500d06 <registerIRQ+0x56>
ff500cec:	83 7d 08 2f          	cmpl   $0x2f,0x8(%ebp)
ff500cf0:	7f 14                	jg     ff500d06 <registerIRQ+0x56>
ff500cf2:	8b 45 08             	mov    0x8(%ebp),%eax
ff500cf5:	83 e8 20             	sub    $0x20,%eax
ff500cf8:	0f b6 80 00 80 50 ff 	movzbl -0xaf8000(%eax),%eax
ff500cff:	83 f0 01             	xor    $0x1,%eax
ff500d02:	84 c0                	test   %al,%al
ff500d04:	74 3a                	je     ff500d40 <registerIRQ+0x90>
ff500d06:	c7 44 24 14 14 64 50 	movl   $0xff506414,0x14(%esp)
ff500d0d:	ff 
ff500d0e:	c7 44 24 10 00 00 00 	movl   $0x0,0x10(%esp)
ff500d15:	00 
ff500d16:	c7 44 24 0c 95 00 00 	movl   $0x95,0xc(%esp)
ff500d1d:	00 
ff500d1e:	c7 44 24 08 ec 63 50 	movl   $0xff5063ec,0x8(%esp)
ff500d25:	ff 
ff500d26:	c7 44 24 04 fa 62 50 	movl   $0xff5062fa,0x4(%esp)
ff500d2d:	ff 
ff500d2e:	c7 04 24 20 64 50 ff 	movl   $0xff506420,(%esp)
ff500d35:	e8 16 fa ff ff       	call   ff500750 <kprintf>
ff500d3a:	c6 45 ff 00          	movb   $0x0,-0x1(%ebp)
ff500d3e:	eb 11                	jmp    ff500d51 <registerIRQ+0xa1>
ff500d40:	8b 45 08             	mov    0x8(%ebp),%eax
ff500d43:	83 e8 20             	sub    $0x20,%eax
ff500d46:	c6 80 00 80 50 ff 00 	movb   $0x0,-0xaf8000(%eax)
ff500d4d:	c6 45 ff 01          	movb   $0x1,-0x1(%ebp)
ff500d51:	0f b6 45 ff          	movzbl -0x1(%ebp),%eax
ff500d55:	c9                   	leave  
ff500d56:	c3                   	ret    
ff500d57:	89 f6                	mov    %esi,%esi
ff500d59:	8d bc 27 00 00 00 00 	lea    0x0(%edi,%eiz,1),%edi

ff500d60 <releaseIRQ>:
ff500d60:	55                   	push   %ebp
ff500d61:	89 e5                	mov    %esp,%ebp
ff500d63:	83 ec 28             	sub    $0x28,%esp
ff500d66:	83 7d 08 1f          	cmpl   $0x1f,0x8(%ebp)
ff500d6a:	7e 06                	jle    ff500d72 <releaseIRQ+0x12>
ff500d6c:	83 7d 08 2f          	cmpl   $0x2f,0x8(%ebp)
ff500d70:	7e 24                	jle    ff500d96 <releaseIRQ+0x36>
ff500d72:	c7 44 24 0c 9f 00 00 	movl   $0x9f,0xc(%esp)
ff500d79:	00 
ff500d7a:	c7 44 24 08 3b 64 50 	movl   $0xff50643b,0x8(%esp)
ff500d81:	ff 
ff500d82:	c7 44 24 04 fa 62 50 	movl   $0xff5062fa,0x4(%esp)
ff500d89:	ff 
ff500d8a:	c7 04 24 f8 63 50 ff 	movl   $0xff5063f8,(%esp)
ff500d91:	e8 7a f7 ff ff       	call   ff500510 <printAssertMsg>
ff500d96:	83 7d 08 1f          	cmpl   $0x1f,0x8(%ebp)
ff500d9a:	7e 06                	jle    ff500da2 <releaseIRQ+0x42>
ff500d9c:	83 7d 08 2f          	cmpl   $0x2f,0x8(%ebp)
ff500da0:	7e 3a                	jle    ff500ddc <releaseIRQ+0x7c>
ff500da2:	c7 44 24 14 14 64 50 	movl   $0xff506414,0x14(%esp)
ff500da9:	ff 
ff500daa:	c7 44 24 10 00 00 00 	movl   $0x0,0x10(%esp)
ff500db1:	00 
ff500db2:	c7 44 24 0c a2 00 00 	movl   $0xa2,0xc(%esp)
ff500db9:	00 
ff500dba:	c7 44 24 08 3b 64 50 	movl   $0xff50643b,0x8(%esp)
ff500dc1:	ff 
ff500dc2:	c7 44 24 04 fa 62 50 	movl   $0xff5062fa,0x4(%esp)
ff500dc9:	ff 
ff500dca:	c7 04 24 20 64 50 ff 	movl   $0xff506420,(%esp)
ff500dd1:	e8 7a f9 ff ff       	call   ff500750 <kprintf>
ff500dd6:	c6 45 ff 00          	movb   $0x0,-0x1(%ebp)
ff500dda:	eb 11                	jmp    ff500ded <releaseIRQ+0x8d>
ff500ddc:	8b 45 08             	mov    0x8(%ebp),%eax
ff500ddf:	83 e8 20             	sub    $0x20,%eax
ff500de2:	c6 80 00 80 50 ff 01 	movb   $0x1,-0xaf8000(%eax)
ff500de9:	c6 45 ff 01          	movb   $0x1,-0x1(%ebp)
ff500ded:	0f b6 45 ff          	movzbl -0x1(%ebp),%eax
ff500df1:	c9                   	leave  
ff500df2:	c3                   	ret    
ff500df3:	8d b6 00 00 00 00    	lea    0x0(%esi),%esi
ff500df9:	8d bc 27 00 00 00 00 	lea    0x0(%edi,%eiz,1),%edi

ff500e00 <dump_regs>:
ff500e00:	55                   	push   %ebp
ff500e01:	89 e5                	mov    %esp,%ebp
ff500e03:	53                   	push   %ebx
ff500e04:	83 ec 24             	sub    $0x24,%esp
ff500e07:	8b 45 08             	mov    0x8(%ebp),%eax
ff500e0a:	83 c0 18             	add    $0x18,%eax
ff500e0d:	89 45 f8             	mov    %eax,-0x8(%ebp)
ff500e10:	8b 55 08             	mov    0x8(%ebp),%edx
ff500e13:	a1 3c c0 50 ff       	mov    0xff50c03c,%eax
ff500e18:	89 d1                	mov    %edx,%ecx
ff500e1a:	29 c1                	sub    %eax,%ecx
ff500e1c:	89 c8                	mov    %ecx,%eax
ff500e1e:	c1 f8 03             	sar    $0x3,%eax
ff500e21:	69 c0 a3 8b 2e ba    	imul   $0xba2e8ba3,%eax,%eax
ff500e27:	66 83 f8 ff          	cmp    $0xffffffff,%ax
ff500e2b:	75 0b                	jne    ff500e38 <dump_regs+0x38>
ff500e2d:	c7 45 f8 00 60 40 ff 	movl   $0xff406000,-0x8(%ebp)
ff500e34:	83 6d f8 40          	subl   $0x40,-0x8(%ebp)
ff500e38:	8b 45 f8             	mov    -0x8(%ebp),%eax
ff500e3b:	8b 50 2c             	mov    0x2c(%eax),%edx
ff500e3e:	8b 45 f8             	mov    -0x8(%ebp),%eax
ff500e41:	8b 40 24             	mov    0x24(%eax),%eax
ff500e44:	89 54 24 08          	mov    %edx,0x8(%esp)
ff500e48:	89 44 24 04          	mov    %eax,0x4(%esp)
ff500e4c:	c7 04 24 46 64 50 ff 	movl   $0xff506446,(%esp)
ff500e53:	e8 f8 f8 ff ff       	call   ff500750 <kprintf>
ff500e58:	83 7d 08 00          	cmpl   $0x0,0x8(%ebp)
ff500e5c:	74 28                	je     ff500e86 <dump_regs+0x86>
ff500e5e:	8b 55 08             	mov    0x8(%ebp),%edx
ff500e61:	a1 3c c0 50 ff       	mov    0xff50c03c,%eax
ff500e66:	89 d1                	mov    %edx,%ecx
ff500e68:	29 c1                	sub    %eax,%ecx
ff500e6a:	89 c8                	mov    %ecx,%eax
ff500e6c:	c1 f8 03             	sar    $0x3,%eax
ff500e6f:	69 c0 a3 8b 2e ba    	imul   $0xba2e8ba3,%eax,%eax
ff500e75:	98                   	cwtl   
ff500e76:	89 44 24 04          	mov    %eax,0x4(%esp)
ff500e7a:	c7 04 24 61 64 50 ff 	movl   $0xff506461,(%esp)
ff500e81:	e8 ca f8 ff ff       	call   ff500750 <kprintf>
ff500e86:	8b 45 f8             	mov    -0x8(%ebp),%eax
ff500e89:	8b 48 14             	mov    0x14(%eax),%ecx
ff500e8c:	8b 45 f8             	mov    -0x8(%ebp),%eax
ff500e8f:	8b 58 18             	mov    0x18(%eax),%ebx
ff500e92:	8b 45 f8             	mov    -0x8(%ebp),%eax
ff500e95:	8b 50 10             	mov    0x10(%eax),%edx
ff500e98:	8b 45 f8             	mov    -0x8(%ebp),%eax
ff500e9b:	8b 40 1c             	mov    0x1c(%eax),%eax
ff500e9e:	89 4c 24 10          	mov    %ecx,0x10(%esp)
ff500ea2:	89 5c 24 0c          	mov    %ebx,0xc(%esp)
ff500ea6:	89 54 24 08          	mov    %edx,0x8(%esp)
ff500eaa:	89 44 24 04          	mov    %eax,0x4(%esp)
ff500eae:	c7 04 24 6c 64 50 ff 	movl   $0xff50646c,(%esp)
ff500eb5:	e8 96 f8 ff ff       	call   ff500750 <kprintf>
ff500eba:	8b 45 f8             	mov    -0x8(%ebp),%eax
ff500ebd:	8b 48 08             	mov    0x8(%eax),%ecx
ff500ec0:	8b 45 f8             	mov    -0x8(%ebp),%eax
ff500ec3:	8b 58 0c             	mov    0xc(%eax),%ebx
ff500ec6:	8b 45 f8             	mov    -0x8(%ebp),%eax
ff500ec9:	8b 10                	mov    (%eax),%edx
ff500ecb:	8b 45 f8             	mov    -0x8(%ebp),%eax
ff500ece:	8b 40 04             	mov    0x4(%eax),%eax
ff500ed1:	89 4c 24 10          	mov    %ecx,0x10(%esp)
ff500ed5:	89 5c 24 0c          	mov    %ebx,0xc(%esp)
ff500ed9:	89 54 24 08          	mov    %edx,0x8(%esp)
ff500edd:	89 44 24 04          	mov    %eax,0x4(%esp)
ff500ee1:	c7 04 24 98 64 50 ff 	movl   $0xff506498,(%esp)
ff500ee8:	e8 63 f8 ff ff       	call   ff500750 <kprintf>
ff500eed:	8b 45 f8             	mov    -0x8(%ebp),%eax
ff500ef0:	0f b7 40 20          	movzwl 0x20(%eax),%eax
ff500ef4:	0f b7 c8             	movzwl %ax,%ecx
ff500ef7:	8b 45 f8             	mov    -0x8(%ebp),%eax
ff500efa:	0f b7 40 22          	movzwl 0x22(%eax),%eax
ff500efe:	0f b7 d0             	movzwl %ax,%edx
ff500f01:	8b 45 f8             	mov    -0x8(%ebp),%eax
ff500f04:	8b 40 30             	mov    0x30(%eax),%eax
ff500f07:	89 4c 24 0c          	mov    %ecx,0xc(%esp)
ff500f0b:	89 54 24 08          	mov    %edx,0x8(%esp)
ff500f0f:	89 44 24 04          	mov    %eax,0x4(%esp)
ff500f13:	c7 04 24 c1 64 50 ff 	movl   $0xff5064c1,(%esp)
ff500f1a:	e8 31 f8 ff ff       	call   ff500750 <kprintf>
ff500f1f:	8b 45 f8             	mov    -0x8(%ebp),%eax
ff500f22:	8b 40 24             	mov    0x24(%eax),%eax
ff500f25:	83 f8 0e             	cmp    $0xe,%eax
ff500f28:	75 15                	jne    ff500f3f <dump_regs+0x13f>
ff500f2a:	e8 29 f2 ff ff       	call   ff500158 <getCR2>
ff500f2f:	89 44 24 04          	mov    %eax,0x4(%esp)
ff500f33:	c7 04 24 dd 64 50 ff 	movl   $0xff5064dd,(%esp)
ff500f3a:	e8 11 f8 ff ff       	call   ff500750 <kprintf>
ff500f3f:	8b 45 f8             	mov    -0x8(%ebp),%eax
ff500f42:	8b 40 28             	mov    0x28(%eax),%eax
ff500f45:	89 44 24 04          	mov    %eax,0x4(%esp)
ff500f49:	c7 04 24 e8 64 50 ff 	movl   $0xff5064e8,(%esp)
ff500f50:	e8 fb f7 ff ff       	call   ff500750 <kprintf>
ff500f55:	83 7d 08 00          	cmpl   $0x0,0x8(%ebp)
ff500f59:	74 20                	je     ff500f7b <dump_regs+0x17b>
ff500f5b:	e8 fc f1 ff ff       	call   ff50015c <getCR3>
ff500f60:	89 c2                	mov    %eax,%edx
ff500f62:	8b 45 08             	mov    0x8(%ebp),%eax
ff500f65:	8b 00                	mov    (%eax),%eax
ff500f67:	89 54 24 08          	mov    %edx,0x8(%esp)
ff500f6b:	89 44 24 04          	mov    %eax,0x4(%esp)
ff500f6f:	c7 04 24 fb 64 50 ff 	movl   $0xff5064fb,(%esp)
ff500f76:	e8 d5 f7 ff ff       	call   ff500750 <kprintf>
ff500f7b:	8b 45 f8             	mov    -0x8(%ebp),%eax
ff500f7e:	8b 40 34             	mov    0x34(%eax),%eax
ff500f81:	89 44 24 04          	mov    %eax,0x4(%esp)
ff500f85:	c7 04 24 16 65 50 ff 	movl   $0xff506516,(%esp)
ff500f8c:	e8 bf f7 ff ff       	call   ff500750 <kprintf>
ff500f91:	83 7d 08 00          	cmpl   $0x0,0x8(%ebp)
ff500f95:	74 2e                	je     ff500fc5 <dump_regs+0x1c5>
ff500f97:	8b 45 08             	mov    0x8(%ebp),%eax
ff500f9a:	8b 10                	mov    (%eax),%edx
ff500f9c:	a1 34 c0 50 ff       	mov    0xff50c034,%eax
ff500fa1:	39 c2                	cmp    %eax,%edx
ff500fa3:	74 20                	je     ff500fc5 <dump_regs+0x1c5>
ff500fa5:	8b 45 f8             	mov    -0x8(%ebp),%eax
ff500fa8:	8b 50 3c             	mov    0x3c(%eax),%edx
ff500fab:	8b 45 f8             	mov    -0x8(%ebp),%eax
ff500fae:	8b 40 38             	mov    0x38(%eax),%eax
ff500fb1:	89 54 24 08          	mov    %edx,0x8(%esp)
ff500fb5:	89 44 24 04          	mov    %eax,0x4(%esp)
ff500fb9:	c7 04 24 24 65 50 ff 	movl   $0xff506524,(%esp)
ff500fc0:	e8 8b f7 ff ff       	call   ff500750 <kprintf>
ff500fc5:	c7 04 24 41 65 50 ff 	movl   $0xff506541,(%esp)
ff500fcc:	e8 7f f7 ff ff       	call   ff500750 <kprintf>
ff500fd1:	83 c4 24             	add    $0x24,%esp
ff500fd4:	5b                   	pop    %ebx
ff500fd5:	5d                   	pop    %ebp
ff500fd6:	c3                   	ret    
ff500fd7:	89 f6                	mov    %esi,%esi
ff500fd9:	8d bc 27 00 00 00 00 	lea    0x0(%edi,%eiz,1),%edi

ff500fe0 <handleCPUException>:
ff500fe0:	55                   	push   %ebp
ff500fe1:	89 e5                	mov    %esp,%ebp
ff500fe3:	53                   	push   %ebx
ff500fe4:	83 ec 24             	sub    $0x24,%esp
ff500fe7:	8b 55 08             	mov    0x8(%ebp),%edx
ff500fea:	a1 3c c0 50 ff       	mov    0xff50c03c,%eax
ff500fef:	89 d1                	mov    %edx,%ecx
ff500ff1:	29 c1                	sub    %eax,%ecx
ff500ff3:	89 c8                	mov    %ecx,%eax
ff500ff5:	c1 f8 03             	sar    $0x3,%eax
ff500ff8:	69 c0 a3 8b 2e ba    	imul   $0xba2e8ba3,%eax,%eax
ff500ffe:	66 83 f8 ff          	cmp    $0xffffffff,%ax
ff501002:	75 0d                	jne    ff501011 <handleCPUException+0x31>
ff501004:	c7 45 f4 00 60 40 ff 	movl   $0xff406000,-0xc(%ebp)
ff50100b:	83 6d f4 40          	subl   $0x40,-0xc(%ebp)
ff50100f:	eb 09                	jmp    ff50101a <handleCPUException+0x3a>
ff501011:	8b 45 08             	mov    0x8(%ebp),%eax
ff501014:	83 c0 18             	add    $0x18,%eax
ff501017:	89 45 f4             	mov    %eax,-0xc(%ebp)
ff50101a:	8b 45 f4             	mov    -0xc(%ebp),%eax
ff50101d:	8b 40 24             	mov    0x24(%eax),%eax
ff501020:	83 f8 0d             	cmp    $0xd,%eax
ff501023:	75 2f                	jne    ff501054 <handleCPUException+0x74>
ff501025:	c7 45 f8 98 0f 40 ff 	movl   $0xff400f98,-0x8(%ebp)
ff50102c:	8b 45 f8             	mov    -0x8(%ebp),%eax
ff50102f:	8b 40 64             	mov    0x64(%eax),%eax
ff501032:	3d 00 00 00 30       	cmp    $0x30000000,%eax
ff501037:	75 1b                	jne    ff501054 <handleCPUException+0x74>
ff501039:	8b 45 f8             	mov    -0x8(%ebp),%eax
ff50103c:	c7 40 64 68 00 00 00 	movl   $0x68,0x64(%eax)
ff501043:	c7 04 24 43 65 50 ff 	movl   $0xff506543,(%esp)
ff50104a:	e8 01 f7 ff ff       	call   ff500750 <kprintf>
ff50104f:	e9 0b 01 00 00       	jmp    ff50115f <handleCPUException+0x17f>
ff501054:	8b 55 08             	mov    0x8(%ebp),%edx
ff501057:	a1 3c c0 50 ff       	mov    0xff50c03c,%eax
ff50105c:	89 d1                	mov    %edx,%ecx
ff50105e:	29 c1                	sub    %eax,%ecx
ff501060:	89 c8                	mov    %ecx,%eax
ff501062:	c1 f8 03             	sar    $0x3,%eax
ff501065:	69 c0 a3 8b 2e ba    	imul   $0xba2e8ba3,%eax,%eax
ff50106b:	66 85 c0             	test   %ax,%ax
ff50106e:	75 1a                	jne    ff50108a <handleCPUException+0xaa>
ff501070:	c7 04 24 5c 65 50 ff 	movl   $0xff50655c,(%esp)
ff501077:	e8 d4 f6 ff ff       	call   ff500750 <kprintf>
ff50107c:	8b 45 08             	mov    0x8(%ebp),%eax
ff50107f:	89 04 24             	mov    %eax,(%esp)
ff501082:	e8 79 fd ff ff       	call   ff500e00 <dump_regs>
ff501087:	f4                   	hlt    
ff501088:	eb 35                	jmp    ff5010bf <handleCPUException+0xdf>
ff50108a:	8b 55 08             	mov    0x8(%ebp),%edx
ff50108d:	a1 3c c0 50 ff       	mov    0xff50c03c,%eax
ff501092:	89 d1                	mov    %edx,%ecx
ff501094:	29 c1                	sub    %eax,%ecx
ff501096:	89 c8                	mov    %ecx,%eax
ff501098:	c1 f8 03             	sar    $0x3,%eax
ff50109b:	69 c0 a3 8b 2e ba    	imul   $0xba2e8ba3,%eax,%eax
ff5010a1:	66 83 f8 01          	cmp    $0x1,%ax
ff5010a5:	75 18                	jne    ff5010bf <handleCPUException+0xdf>
ff5010a7:	c7 04 24 80 65 50 ff 	movl   $0xff506580,(%esp)
ff5010ae:	e8 9d f6 ff ff       	call   ff500750 <kprintf>
ff5010b3:	8b 45 08             	mov    0x8(%ebp),%eax
ff5010b6:	89 04 24             	mov    %eax,(%esp)
ff5010b9:	e8 42 fd ff ff       	call   ff500e00 <dump_regs>
ff5010be:	f4                   	hlt    
ff5010bf:	8b 45 08             	mov    0x8(%ebp),%eax
ff5010c2:	89 04 24             	mov    %eax,(%esp)
ff5010c5:	e8 96 45 00 00       	call   ff505660 <pauseThread>
ff5010ca:	8b 45 08             	mov    0x8(%ebp),%eax
ff5010cd:	0f b7 40 0a          	movzwl 0xa(%eax),%eax
ff5010d1:	66 85 c0             	test   %ax,%ax
ff5010d4:	78 20                	js     ff5010f6 <handleCPUException+0x116>
ff5010d6:	8b 45 08             	mov    0x8(%ebp),%eax
ff5010d9:	0f b7 40 0a          	movzwl 0xa(%eax),%eax
ff5010dd:	0f bf d0             	movswl %ax,%edx
ff5010e0:	a1 40 c0 50 ff       	mov    0xff50c040,%eax
ff5010e5:	39 c2                	cmp    %eax,%edx
ff5010e7:	7d 0d                	jge    ff5010f6 <handleCPUException+0x116>
ff5010e9:	8b 45 08             	mov    0x8(%ebp),%eax
ff5010ec:	0f b7 40 0a          	movzwl 0xa(%eax),%eax
ff5010f0:	66 83 f8 ff          	cmp    $0xffffffff,%ax
ff5010f4:	75 0e                	jne    ff501104 <handleCPUException+0x124>
ff5010f6:	c7 04 24 ac 65 50 ff 	movl   $0xff5065ac,(%esp)
ff5010fd:	e8 4e f6 ff ff       	call   ff500750 <kprintf>
ff501102:	eb 5b                	jmp    ff50115f <handleCPUException+0x17f>
ff501104:	e8 4f f0 ff ff       	call   ff500158 <getCR2>
ff501109:	89 c3                	mov    %eax,%ebx
ff50110b:	8b 55 08             	mov    0x8(%ebp),%edx
ff50110e:	a1 3c c0 50 ff       	mov    0xff50c03c,%eax
ff501113:	89 d1                	mov    %edx,%ecx
ff501115:	29 c1                	sub    %eax,%ecx
ff501117:	89 c8                	mov    %ecx,%eax
ff501119:	c1 f8 03             	sar    $0x3,%eax
ff50111c:	69 c0 a3 8b 2e ba    	imul   $0xba2e8ba3,%eax,%eax
ff501122:	98                   	cwtl   
ff501123:	c1 e0 08             	shl    $0x8,%eax
ff501126:	89 c1                	mov    %eax,%ecx
ff501128:	83 c9 05             	or     $0x5,%ecx
ff50112b:	8b 15 3c c0 50 ff    	mov    0xff50c03c,%edx
ff501131:	8b 45 08             	mov    0x8(%ebp),%eax
ff501134:	0f b7 40 0a          	movzwl 0xa(%eax),%eax
ff501138:	98                   	cwtl   
ff501139:	6b c0 58             	imul   $0x58,%eax,%eax
ff50113c:	8d 04 02             	lea    (%edx,%eax,1),%eax
ff50113f:	89 5c 24 08          	mov    %ebx,0x8(%esp)
ff501143:	89 4c 24 04          	mov    %ecx,0x4(%esp)
ff501147:	89 04 24             	mov    %eax,(%esp)
ff50114a:	e8 a1 37 00 00       	call   ff5048f0 <sysRaise>
ff50114f:	85 c0                	test   %eax,%eax
ff501151:	79 0c                	jns    ff50115f <handleCPUException+0x17f>
ff501153:	c7 04 24 c8 65 50 ff 	movl   $0xff5065c8,(%esp)
ff50115a:	e8 f1 f5 ff ff       	call   ff500750 <kprintf>
ff50115f:	83 c4 24             	add    $0x24,%esp
ff501162:	5b                   	pop    %ebx
ff501163:	5d                   	pop    %ebp
ff501164:	c3                   	ret    
	...

ff501170 <addIDTEntry>:
ff501170:	55                   	push   %ebp
ff501171:	89 e5                	mov    %esp,%ebp
ff501173:	8b 45 0c             	mov    0xc(%ebp),%eax
ff501176:	8d 14 c5 00 05 40 ff 	lea    -0xbffb00(,%eax,8),%edx
ff50117d:	8b 45 08             	mov    0x8(%ebp),%eax
ff501180:	66 89 02             	mov    %ax,(%edx)
ff501183:	c1 e8 10             	shr    $0x10,%eax
ff501186:	66 89 42 06          	mov    %ax,0x6(%edx)
ff50118a:	8b 45 10             	mov    0x10(%ebp),%eax
ff50118d:	66 89 42 02          	mov    %ax,0x2(%edx)
ff501191:	c6 42 04 00          	movb   $0x0,0x4(%edx)
ff501195:	c1 e8 10             	shr    $0x10,%eax
ff501198:	0c 80                	or     $0x80,%al
ff50119a:	88 42 05             	mov    %al,0x5(%edx)
ff50119d:	c9                   	leave  
ff50119e:	c3                   	ret    
	...

ff5011a0 <outByte>:
ff5011a0:	55                   	push   %ebp
ff5011a1:	89 e5                	mov    %esp,%ebp
ff5011a3:	8b 45 08             	mov    0x8(%ebp),%eax
ff5011a6:	8b 55 0c             	mov    0xc(%ebp),%edx
ff5011a9:	89 c1                	mov    %eax,%ecx
ff5011ab:	89 d0                	mov    %edx,%eax
ff5011ad:	89 ca                	mov    %ecx,%edx
ff5011af:	ee                   	out    %al,(%dx)
ff5011b0:	5d                   	pop    %ebp
ff5011b1:	c3                   	ret    
ff5011b2:	8d b4 26 00 00 00 00 	lea    0x0(%esi,%eiz,1),%esi
ff5011b9:	8d bc 27 00 00 00 00 	lea    0x0(%edi,%eiz,1),%edi

ff5011c0 <ioWait>:
ff5011c0:	55                   	push   %ebp
ff5011c1:	89 e5                	mov    %esp,%ebp
ff5011c3:	eb 00                	jmp    ff5011c5 <ioWait+0x5>
ff5011c5:	eb 00                	jmp    ff5011c7 <ioWait+0x7>
ff5011c7:	5d                   	pop    %ebp
ff5011c8:	c3                   	ret    
ff5011c9:	00 00                	add    %al,(%eax)
ff5011cb:	00 00                	add    %al,(%eax)
ff5011cd:	00 00                	add    %al,(%eax)
	...

ff5011d0 <enterExceptionHandler>:
ff5011d0:	66 1e                	pushw  %ds
ff5011d2:	66 06                	pushw  %es
ff5011d4:	60                   	pusha  
ff5011d5:	66 b8 10 00          	mov    $0x10,%ax
ff5011d9:	8e d8                	mov    %eax,%ds
ff5011db:	8e c0                	mov    %eax,%es
ff5011dd:	8d 25 00 70 40 ff    	lea    0xff407000,%esp
ff5011e3:	ff 35 50 c0 50 ff    	pushl  0xff50c050
ff5011e9:	e8 f2 fd ff ff       	call   ff500fe0 <handleCPUException>
ff5011ee:	5e                   	pop    %esi
ff5011ef:	80 7e 04 00          	cmpb   $0x0,0x4(%esi)
ff5011f3:	7e 25                	jle    ff50121a <enterExceptionHandler.doSched>
ff5011f5:	8a 46 05             	mov    0x5(%esi),%al
ff5011f8:	24 0f                	and    $0xf,%al
ff5011fa:	3c 04                	cmp    $0x4,%al
ff5011fc:	75 1c                	jne    ff50121a <enterExceptionHandler.doSched>
ff5011fe:	89 f7                	mov    %esi,%edi
ff501200:	3b 3d 3c c0 50 ff    	cmp    0xff50c03c,%edi
ff501206:	75 0a                	jne    ff501212 <enterExceptionHandler.loadStack>
ff501208:	bc c0 5f 40 ff       	mov    $0xff405fc0,%esp
ff50120d:	e9 40 00 00 00       	jmp    ff501252 <enterExceptionHandler.pop_regs>

ff501212 <enterExceptionHandler.loadStack>:
ff501212:	8d 67 18             	lea    0x18(%edi),%esp
ff501215:	e9 38 00 00 00       	jmp    ff501252 <enterExceptionHandler.pop_regs>

ff50121a <enterExceptionHandler.doSched>:
ff50121a:	56                   	push   %esi
ff50121b:	e8 c0 2b 00 00       	call   ff503de0 <schedule>
ff501220:	81 c4 04 00 00 00    	add    $0x4,%esp
ff501226:	89 c7                	mov    %eax,%edi
ff501228:	3b 3d 3c c0 50 ff    	cmp    0xff50c03c,%edi
ff50122e:	75 0a                	jne    ff50123a <enterExceptionHandler.load_stack>
ff501230:	bc c0 5f 40 ff       	mov    $0xff405fc0,%esp
ff501235:	e9 03 00 00 00       	jmp    ff50123d <enterExceptionHandler.compare_threads>

ff50123a <enterExceptionHandler.load_stack>:
ff50123a:	8d 67 18             	lea    0x18(%edi),%esp

ff50123d <enterExceptionHandler.compare_threads>:
ff50123d:	39 fe                	cmp    %edi,%esi
ff50123f:	74 11                	je     ff501252 <enterExceptionHandler.pop_regs>
ff501241:	8d 44 24 40          	lea    0x40(%esp),%eax
ff501245:	8b 1d 08 c0 50 ff    	mov    0xff50c008,%ebx
ff50124b:	89 03                	mov    %eax,(%ebx)
ff50124d:	8b 3f                	mov    (%edi),%edi
ff50124f:	0f 22 df             	mov    %edi,%cr3

ff501252 <enterExceptionHandler.pop_regs>:
ff501252:	61                   	popa   
ff501253:	66 07                	popw   %es
ff501255:	66 1f                	popw   %ds
ff501257:	81 c4 08 00 00 00    	add    $0x8,%esp
ff50125d:	cf                   	iret   

ff50125e <intHandler0>:
ff50125e:	68 00 00 00 00       	push   $0x0
ff501263:	68 00 00 00 00       	push   $0x0
ff501268:	e9 63 ff ff ff       	jmp    ff5011d0 <enterExceptionHandler>

ff50126d <intHandler1>:
ff50126d:	68 00 00 00 00       	push   $0x0
ff501272:	68 01 00 00 00       	push   $0x1
ff501277:	e9 54 ff ff ff       	jmp    ff5011d0 <enterExceptionHandler>

ff50127c <intHandler2>:
ff50127c:	68 00 00 00 00       	push   $0x0
ff501281:	68 02 00 00 00       	push   $0x2
ff501286:	e9 45 ff ff ff       	jmp    ff5011d0 <enterExceptionHandler>

ff50128b <intHandler3>:
ff50128b:	68 00 00 00 00       	push   $0x0
ff501290:	68 03 00 00 00       	push   $0x3
ff501295:	e9 36 ff ff ff       	jmp    ff5011d0 <enterExceptionHandler>

ff50129a <intHandler4>:
ff50129a:	68 00 00 00 00       	push   $0x0
ff50129f:	68 04 00 00 00       	push   $0x4
ff5012a4:	e9 27 ff ff ff       	jmp    ff5011d0 <enterExceptionHandler>

ff5012a9 <intHandler5>:
ff5012a9:	68 00 00 00 00       	push   $0x0
ff5012ae:	68 05 00 00 00       	push   $0x5
ff5012b3:	e9 18 ff ff ff       	jmp    ff5011d0 <enterExceptionHandler>

ff5012b8 <intHandler6>:
ff5012b8:	68 00 00 00 00       	push   $0x0
ff5012bd:	68 06 00 00 00       	push   $0x6
ff5012c2:	e9 09 ff ff ff       	jmp    ff5011d0 <enterExceptionHandler>

ff5012c7 <intHandler7>:
ff5012c7:	68 00 00 00 00       	push   $0x0
ff5012cc:	68 07 00 00 00       	push   $0x7
ff5012d1:	e9 fa fe ff ff       	jmp    ff5011d0 <enterExceptionHandler>

ff5012d6 <intHandler8>:
ff5012d6:	68 08 00 00 00       	push   $0x8
ff5012db:	e9 f0 fe ff ff       	jmp    ff5011d0 <enterExceptionHandler>

ff5012e0 <intHandler9>:
ff5012e0:	68 00 00 00 00       	push   $0x0
ff5012e5:	68 09 00 00 00       	push   $0x9
ff5012ea:	e9 e1 fe ff ff       	jmp    ff5011d0 <enterExceptionHandler>

ff5012ef <intHandler10>:
ff5012ef:	68 0a 00 00 00       	push   $0xa
ff5012f4:	e9 d7 fe ff ff       	jmp    ff5011d0 <enterExceptionHandler>

ff5012f9 <intHandler11>:
ff5012f9:	68 0b 00 00 00       	push   $0xb
ff5012fe:	e9 cd fe ff ff       	jmp    ff5011d0 <enterExceptionHandler>

ff501303 <intHandler12>:
ff501303:	68 0c 00 00 00       	push   $0xc
ff501308:	e9 c3 fe ff ff       	jmp    ff5011d0 <enterExceptionHandler>

ff50130d <intHandler13>:
ff50130d:	68 0d 00 00 00       	push   $0xd
ff501312:	e9 b9 fe ff ff       	jmp    ff5011d0 <enterExceptionHandler>

ff501317 <intHandler14>:
ff501317:	68 0e 00 00 00       	push   $0xe
ff50131c:	e9 af fe ff ff       	jmp    ff5011d0 <enterExceptionHandler>

ff501321 <intHandler16>:
ff501321:	68 00 00 00 00       	push   $0x0
ff501326:	68 10 00 00 00       	push   $0x10
ff50132b:	e9 a0 fe ff ff       	jmp    ff5011d0 <enterExceptionHandler>

ff501330 <intHandler17>:
ff501330:	68 11 00 00 00       	push   $0x11
ff501335:	e9 96 fe ff ff       	jmp    ff5011d0 <enterExceptionHandler>

ff50133a <intHandler18>:
ff50133a:	68 00 00 00 00       	push   $0x0
ff50133f:	68 12 00 00 00       	push   $0x12
ff501344:	e9 87 fe ff ff       	jmp    ff5011d0 <enterExceptionHandler>

ff501349 <intHandler19>:
ff501349:	68 00 00 00 00       	push   $0x0
ff50134e:	68 13 00 00 00       	push   $0x13
ff501353:	e9 78 fe ff ff       	jmp    ff5011d0 <enterExceptionHandler>

ff501358 <invalidIntHandler>:
ff501358:	68 00 00 00 00       	push   $0x0
ff50135d:	68 d1 ba 00 00       	push   $0xbad1
ff501362:	e9 69 fe ff ff       	jmp    ff5011d0 <enterExceptionHandler>

ff501367 <spuriousIntHandler>:
ff501367:	68 00 00 00 00       	push   $0x0
ff50136c:	68 27 00 00 00       	push   $0x27
ff501371:	e9 5a fe ff ff       	jmp    ff5011d0 <enterExceptionHandler>

ff501376 <enterIrqHandler>:
ff501376:	66 1e                	pushw  %ds
ff501378:	66 06                	pushw  %es
ff50137a:	60                   	pusha  
ff50137b:	66 b8 10 00          	mov    $0x10,%ax
ff50137f:	8e d8                	mov    %eax,%ds
ff501381:	8e c0                	mov    %eax,%es
ff501383:	8d 25 00 70 40 ff    	lea    0xff407000,%esp
ff501389:	ff 35 50 c0 50 ff    	pushl  0xff50c050
ff50138f:	e8 2c f8 ff ff       	call   ff500bc0 <handleIRQ>
ff501394:	5e                   	pop    %esi
ff501395:	80 7e 04 00          	cmpb   $0x0,0x4(%esi)
ff501399:	7e 25                	jle    ff5013c0 <enterIrqHandler.doSched>
ff50139b:	8a 46 05             	mov    0x5(%esi),%al
ff50139e:	24 0f                	and    $0xf,%al
ff5013a0:	3c 04                	cmp    $0x4,%al
ff5013a2:	75 1c                	jne    ff5013c0 <enterIrqHandler.doSched>
ff5013a4:	89 f7                	mov    %esi,%edi
ff5013a6:	3b 3d 3c c0 50 ff    	cmp    0xff50c03c,%edi
ff5013ac:	75 0a                	jne    ff5013b8 <enterIrqHandler.loadStack>
ff5013ae:	bc c0 5f 40 ff       	mov    $0xff405fc0,%esp
ff5013b3:	e9 40 00 00 00       	jmp    ff5013f8 <enterIrqHandler.pop_regs>

ff5013b8 <enterIrqHandler.loadStack>:
ff5013b8:	8d 67 18             	lea    0x18(%edi),%esp
ff5013bb:	e9 38 00 00 00       	jmp    ff5013f8 <enterIrqHandler.pop_regs>

ff5013c0 <enterIrqHandler.doSched>:
ff5013c0:	56                   	push   %esi
ff5013c1:	e8 1a 2a 00 00       	call   ff503de0 <schedule>
ff5013c6:	81 c4 04 00 00 00    	add    $0x4,%esp
ff5013cc:	89 c7                	mov    %eax,%edi
ff5013ce:	3b 3d 3c c0 50 ff    	cmp    0xff50c03c,%edi
ff5013d4:	75 0a                	jne    ff5013e0 <enterIrqHandler.load_stack>
ff5013d6:	bc c0 5f 40 ff       	mov    $0xff405fc0,%esp
ff5013db:	e9 03 00 00 00       	jmp    ff5013e3 <enterIrqHandler.compare_threads>

ff5013e0 <enterIrqHandler.load_stack>:
ff5013e0:	8d 67 18             	lea    0x18(%edi),%esp

ff5013e3 <enterIrqHandler.compare_threads>:
ff5013e3:	39 fe                	cmp    %edi,%esi
ff5013e5:	74 11                	je     ff5013f8 <enterIrqHandler.pop_regs>
ff5013e7:	8d 44 24 40          	lea    0x40(%esp),%eax
ff5013eb:	8b 1d 08 c0 50 ff    	mov    0xff50c008,%ebx
ff5013f1:	89 03                	mov    %eax,(%ebx)
ff5013f3:	8b 3f                	mov    (%edi),%edi
ff5013f5:	0f 22 df             	mov    %edi,%cr3

ff5013f8 <enterIrqHandler.pop_regs>:
ff5013f8:	61                   	popa   
ff5013f9:	66 07                	popw   %es
ff5013fb:	66 1f                	popw   %ds
ff5013fd:	81 c4 08 00 00 00    	add    $0x8,%esp
ff501403:	cf                   	iret   

ff501404 <irq1Handler>:
ff501404:	68 00 00 00 00       	push   $0x0
ff501409:	68 21 00 00 00       	push   $0x21
ff50140e:	e9 63 ff ff ff       	jmp    ff501376 <enterIrqHandler>

ff501413 <irq2Handler>:
ff501413:	68 00 00 00 00       	push   $0x0
ff501418:	68 22 00 00 00       	push   $0x22
ff50141d:	e9 54 ff ff ff       	jmp    ff501376 <enterIrqHandler>

ff501422 <irq3Handler>:
ff501422:	68 00 00 00 00       	push   $0x0
ff501427:	68 23 00 00 00       	push   $0x23
ff50142c:	e9 45 ff ff ff       	jmp    ff501376 <enterIrqHandler>

ff501431 <irq4Handler>:
ff501431:	68 00 00 00 00       	push   $0x0
ff501436:	68 24 00 00 00       	push   $0x24
ff50143b:	e9 36 ff ff ff       	jmp    ff501376 <enterIrqHandler>

ff501440 <irq5Handler>:
ff501440:	68 00 00 00 00       	push   $0x0
ff501445:	68 25 00 00 00       	push   $0x25
ff50144a:	e9 27 ff ff ff       	jmp    ff501376 <enterIrqHandler>

ff50144f <irq6Handler>:
ff50144f:	68 00 00 00 00       	push   $0x0
ff501454:	68 26 00 00 00       	push   $0x26
ff501459:	e9 18 ff ff ff       	jmp    ff501376 <enterIrqHandler>

ff50145e <irq7Handler>:
ff50145e:	68 00 00 00 00       	push   $0x0
ff501463:	68 27 00 00 00       	push   $0x27
ff501468:	e9 09 ff ff ff       	jmp    ff501376 <enterIrqHandler>

ff50146d <irq8Handler>:
ff50146d:	68 00 00 00 00       	push   $0x0
ff501472:	68 28 00 00 00       	push   $0x28
ff501477:	e9 fa fe ff ff       	jmp    ff501376 <enterIrqHandler>

ff50147c <irq9Handler>:
ff50147c:	68 00 00 00 00       	push   $0x0
ff501481:	68 29 00 00 00       	push   $0x29
ff501486:	e9 eb fe ff ff       	jmp    ff501376 <enterIrqHandler>

ff50148b <irq10Handler>:
ff50148b:	68 00 00 00 00       	push   $0x0
ff501490:	68 2a 00 00 00       	push   $0x2a
ff501495:	e9 dc fe ff ff       	jmp    ff501376 <enterIrqHandler>

ff50149a <irq11Handler>:
ff50149a:	68 00 00 00 00       	push   $0x0
ff50149f:	68 2b 00 00 00       	push   $0x2b
ff5014a4:	e9 cd fe ff ff       	jmp    ff501376 <enterIrqHandler>

ff5014a9 <irq12Handler>:
ff5014a9:	68 00 00 00 00       	push   $0x0
ff5014ae:	68 2c 00 00 00       	push   $0x2c
ff5014b3:	e9 be fe ff ff       	jmp    ff501376 <enterIrqHandler>

ff5014b8 <irq13Handler>:
ff5014b8:	68 00 00 00 00       	push   $0x0
ff5014bd:	68 2d 00 00 00       	push   $0x2d
ff5014c2:	e9 af fe ff ff       	jmp    ff501376 <enterIrqHandler>

ff5014c7 <irq14Handler>:
ff5014c7:	68 00 00 00 00       	push   $0x0
ff5014cc:	68 2e 00 00 00       	push   $0x2e
ff5014d1:	e9 a0 fe ff ff       	jmp    ff501376 <enterIrqHandler>

ff5014d6 <irq15Handler>:
ff5014d6:	68 00 00 00 00       	push   $0x0
ff5014db:	68 2f 00 00 00       	push   $0x2f
ff5014e0:	e9 91 fe ff ff       	jmp    ff501376 <enterIrqHandler>

ff5014e5 <timerHandler>:
ff5014e5:	68 00 00 00 00       	push   $0x0
ff5014ea:	68 20 00 00 00       	push   $0x20
ff5014ef:	66 1e                	pushw  %ds
ff5014f1:	66 06                	pushw  %es
ff5014f3:	60                   	pusha  
ff5014f4:	66 b8 10 00          	mov    $0x10,%ax
ff5014f8:	8e d8                	mov    %eax,%ds
ff5014fa:	8e c0                	mov    %eax,%es
ff5014fc:	8d 25 00 70 40 ff    	lea    0xff407000,%esp
ff501502:	ff 35 50 c0 50 ff    	pushl  0xff50c050
ff501508:	e8 03 32 00 00       	call   ff504710 <timerInt>
ff50150d:	5e                   	pop    %esi
ff50150e:	80 7e 04 00          	cmpb   $0x0,0x4(%esi)
ff501512:	7e 25                	jle    ff501539 <timerHandler.doSched>
ff501514:	8a 46 05             	mov    0x5(%esi),%al
ff501517:	24 0f                	and    $0xf,%al
ff501519:	3c 04                	cmp    $0x4,%al
ff50151b:	75 1c                	jne    ff501539 <timerHandler.doSched>
ff50151d:	89 f7                	mov    %esi,%edi
ff50151f:	3b 3d 3c c0 50 ff    	cmp    0xff50c03c,%edi
ff501525:	75 0a                	jne    ff501531 <timerHandler.loadStack>
ff501527:	bc c0 5f 40 ff       	mov    $0xff405fc0,%esp
ff50152c:	e9 40 00 00 00       	jmp    ff501571 <timerHandler.pop_regs>

ff501531 <timerHandler.loadStack>:
ff501531:	8d 67 18             	lea    0x18(%edi),%esp
ff501534:	e9 38 00 00 00       	jmp    ff501571 <timerHandler.pop_regs>

ff501539 <timerHandler.doSched>:
ff501539:	56                   	push   %esi
ff50153a:	e8 a1 28 00 00       	call   ff503de0 <schedule>
ff50153f:	81 c4 04 00 00 00    	add    $0x4,%esp
ff501545:	89 c7                	mov    %eax,%edi
ff501547:	3b 3d 3c c0 50 ff    	cmp    0xff50c03c,%edi
ff50154d:	75 0a                	jne    ff501559 <timerHandler.load_stack>
ff50154f:	bc c0 5f 40 ff       	mov    $0xff405fc0,%esp
ff501554:	e9 03 00 00 00       	jmp    ff50155c <timerHandler.compare_threads>

ff501559 <timerHandler.load_stack>:
ff501559:	8d 67 18             	lea    0x18(%edi),%esp

ff50155c <timerHandler.compare_threads>:
ff50155c:	39 fe                	cmp    %edi,%esi
ff50155e:	74 11                	je     ff501571 <timerHandler.pop_regs>
ff501560:	8d 44 24 40          	lea    0x40(%esp),%eax
ff501564:	8b 1d 08 c0 50 ff    	mov    0xff50c008,%ebx
ff50156a:	89 03                	mov    %eax,(%ebx)
ff50156c:	8b 3f                	mov    (%edi),%edi
ff50156e:	0f 22 df             	mov    %edi,%cr3

ff501571 <timerHandler.pop_regs>:
ff501571:	61                   	popa   
ff501572:	66 07                	popw   %es
ff501574:	66 1f                	popw   %ds
ff501576:	81 c4 08 00 00 00    	add    $0x8,%esp
ff50157c:	cf                   	iret   

ff50157d <syscallHandler>:
ff50157d:	68 00 00 00 00       	push   $0x0
ff501582:	68 40 00 00 00       	push   $0x40
ff501587:	66 1e                	pushw  %ds
ff501589:	66 06                	pushw  %es
ff50158b:	60                   	pusha  
ff50158c:	66 b8 10 00          	mov    $0x10,%ax
ff501590:	8e d8                	mov    %eax,%ds
ff501592:	8e c0                	mov    %eax,%es
ff501594:	8d 25 00 70 40 ff    	lea    0xff407000,%esp
ff50159a:	ff 35 50 c0 50 ff    	pushl  0xff50c050
ff5015a0:	e8 ab 37 00 00       	call   ff504d50 <_syscall>
ff5015a5:	5e                   	pop    %esi
ff5015a6:	80 7e 04 00          	cmpb   $0x0,0x4(%esi)
ff5015aa:	7e 25                	jle    ff5015d1 <syscallHandler.doSched>
ff5015ac:	8a 46 05             	mov    0x5(%esi),%al
ff5015af:	24 0f                	and    $0xf,%al
ff5015b1:	3c 04                	cmp    $0x4,%al
ff5015b3:	75 1c                	jne    ff5015d1 <syscallHandler.doSched>
ff5015b5:	89 f7                	mov    %esi,%edi
ff5015b7:	3b 3d 3c c0 50 ff    	cmp    0xff50c03c,%edi
ff5015bd:	75 0a                	jne    ff5015c9 <syscallHandler.loadStack>
ff5015bf:	bc c0 5f 40 ff       	mov    $0xff405fc0,%esp
ff5015c4:	e9 40 00 00 00       	jmp    ff501609 <syscallHandler.pop_regs>

ff5015c9 <syscallHandler.loadStack>:
ff5015c9:	8d 67 18             	lea    0x18(%edi),%esp
ff5015cc:	e9 38 00 00 00       	jmp    ff501609 <syscallHandler.pop_regs>

ff5015d1 <syscallHandler.doSched>:
ff5015d1:	56                   	push   %esi
ff5015d2:	e8 09 28 00 00       	call   ff503de0 <schedule>
ff5015d7:	81 c4 04 00 00 00    	add    $0x4,%esp
ff5015dd:	89 c7                	mov    %eax,%edi
ff5015df:	3b 3d 3c c0 50 ff    	cmp    0xff50c03c,%edi
ff5015e5:	75 0a                	jne    ff5015f1 <syscallHandler.load_stack>
ff5015e7:	bc c0 5f 40 ff       	mov    $0xff405fc0,%esp
ff5015ec:	e9 03 00 00 00       	jmp    ff5015f4 <syscallHandler.compare_threads>

ff5015f1 <syscallHandler.load_stack>:
ff5015f1:	8d 67 18             	lea    0x18(%edi),%esp

ff5015f4 <syscallHandler.compare_threads>:
ff5015f4:	39 fe                	cmp    %edi,%esi
ff5015f6:	74 11                	je     ff501609 <syscallHandler.pop_regs>
ff5015f8:	8d 44 24 40          	lea    0x40(%esp),%eax
ff5015fc:	8b 1d 08 c0 50 ff    	mov    0xff50c008,%ebx
ff501602:	89 03                	mov    %eax,(%ebx)
ff501604:	8b 3f                	mov    (%edi),%edi
ff501606:	0f 22 df             	mov    %edi,%cr3

ff501609 <syscallHandler.pop_regs>:
ff501609:	61                   	popa   
ff50160a:	66 07                	popw   %es
ff50160c:	66 1f                	popw   %ds
ff50160e:	81 c4 08 00 00 00    	add    $0x8,%esp
ff501614:	cf                   	iret   
	...

ff501620 <memcpy>:
ff501620:	55                   	push   %ebp
ff501621:	89 e5                	mov    %esp,%ebp
ff501623:	57                   	push   %edi
ff501624:	56                   	push   %esi
ff501625:	53                   	push   %ebx
ff501626:	83 ec 28             	sub    $0x28,%esp
ff501629:	8b 4d 08             	mov    0x8(%ebp),%ecx
ff50162c:	83 7d 10 07          	cmpl   $0x7,0x10(%ebp)
ff501630:	8b 5d 0c             	mov    0xc(%ebp),%ebx
ff501633:	0f 86 df 00 00 00    	jbe    ff501718 <memcpy+0xf8>
ff501639:	89 c8                	mov    %ecx,%eax
ff50163b:	a8 03                	test   $0x3,%al
ff50163d:	74 17                	je     ff501656 <memcpy+0x36>
ff50163f:	90                   	nop    
ff501640:	0f b6 03             	movzbl (%ebx),%eax
ff501643:	83 c3 01             	add    $0x1,%ebx
ff501646:	88 01                	mov    %al,(%ecx)
ff501648:	83 c1 01             	add    $0x1,%ecx
ff50164b:	83 6d 10 01          	subl   $0x1,0x10(%ebp)
ff50164f:	f6 c1 03             	test   $0x3,%cl
ff501652:	89 c8                	mov    %ecx,%eax
ff501654:	75 ea                	jne    ff501640 <memcpy+0x20>
ff501656:	89 da                	mov    %ebx,%edx
ff501658:	83 e2 03             	and    $0x3,%edx
ff50165b:	83 fa 02             	cmp    $0x2,%edx
ff50165e:	0f 84 0c 01 00 00    	je     ff501770 <memcpy+0x150>
ff501664:	83 fa 03             	cmp    $0x3,%edx
ff501667:	0f 84 63 03 00 00    	je     ff5019d0 <memcpy+0x3b0>
ff50166d:	83 ea 01             	sub    $0x1,%edx
ff501670:	0f 84 22 02 00 00    	je     ff501898 <memcpy+0x278>
ff501676:	8b 55 10             	mov    0x10(%ebp),%edx
ff501679:	89 cf                	mov    %ecx,%edi
ff50167b:	89 de                	mov    %ebx,%esi
ff50167d:	c1 ea 02             	shr    $0x2,%edx
ff501680:	f6 c2 07             	test   $0x7,%dl
ff501683:	74 15                	je     ff50169a <memcpy+0x7a>
ff501685:	8d 76 00             	lea    0x0(%esi),%esi
ff501688:	8b 06                	mov    (%esi),%eax
ff50168a:	83 ea 01             	sub    $0x1,%edx
ff50168d:	83 c6 04             	add    $0x4,%esi
ff501690:	89 07                	mov    %eax,(%edi)
ff501692:	83 c7 04             	add    $0x4,%edi
ff501695:	f6 c2 07             	test   $0x7,%dl
ff501698:	75 ee                	jne    ff501688 <memcpy+0x68>
ff50169a:	c1 ea 03             	shr    $0x3,%edx
ff50169d:	85 d2                	test   %edx,%edx
ff50169f:	89 55 dc             	mov    %edx,-0x24(%ebp)
ff5016a2:	74 4f                	je     ff5016f3 <memcpy+0xd3>
ff5016a4:	8b 5d dc             	mov    -0x24(%ebp),%ebx
ff5016a7:	89 f9                	mov    %edi,%ecx
ff5016a9:	89 f2                	mov    %esi,%edx
ff5016ab:	90                   	nop    
ff5016ac:	8d 74 26 00          	lea    0x0(%esi,%eiz,1),%esi
ff5016b0:	8b 02                	mov    (%edx),%eax
ff5016b2:	89 01                	mov    %eax,(%ecx)
ff5016b4:	8b 42 04             	mov    0x4(%edx),%eax
ff5016b7:	89 41 04             	mov    %eax,0x4(%ecx)
ff5016ba:	8b 42 08             	mov    0x8(%edx),%eax
ff5016bd:	89 41 08             	mov    %eax,0x8(%ecx)
ff5016c0:	8b 42 0c             	mov    0xc(%edx),%eax
ff5016c3:	89 41 0c             	mov    %eax,0xc(%ecx)
ff5016c6:	8b 42 10             	mov    0x10(%edx),%eax
ff5016c9:	89 41 10             	mov    %eax,0x10(%ecx)
ff5016cc:	8b 42 14             	mov    0x14(%edx),%eax
ff5016cf:	89 41 14             	mov    %eax,0x14(%ecx)
ff5016d2:	8b 42 18             	mov    0x18(%edx),%eax
ff5016d5:	89 41 18             	mov    %eax,0x18(%ecx)
ff5016d8:	8b 42 1c             	mov    0x1c(%edx),%eax
ff5016db:	83 c2 20             	add    $0x20,%edx
ff5016de:	89 41 1c             	mov    %eax,0x1c(%ecx)
ff5016e1:	83 c1 20             	add    $0x20,%ecx
ff5016e4:	83 eb 01             	sub    $0x1,%ebx
ff5016e7:	75 c7                	jne    ff5016b0 <memcpy+0x90>
ff5016e9:	8b 45 dc             	mov    -0x24(%ebp),%eax
ff5016ec:	c1 e0 05             	shl    $0x5,%eax
ff5016ef:	01 c6                	add    %eax,%esi
ff5016f1:	01 c7                	add    %eax,%edi
ff5016f3:	f6 45 10 02          	testb  $0x2,0x10(%ebp)
ff5016f7:	89 f2                	mov    %esi,%edx
ff5016f9:	89 f9                	mov    %edi,%ecx
ff5016fb:	0f 84 7c 01 00 00    	je     ff50187d <memcpy+0x25d>
ff501701:	0f b6 06             	movzbl (%esi),%eax
ff501704:	83 c1 02             	add    $0x2,%ecx
ff501707:	83 c2 02             	add    $0x2,%edx
ff50170a:	88 07                	mov    %al,(%edi)
ff50170c:	0f b6 46 01          	movzbl 0x1(%esi),%eax
ff501710:	88 47 01             	mov    %al,0x1(%edi)
ff501713:	e9 65 01 00 00       	jmp    ff50187d <memcpy+0x25d>
ff501718:	83 7d 10 03          	cmpl   $0x3,0x10(%ebp)
ff50171c:	76 46                	jbe    ff501764 <memcpy+0x144>
ff50171e:	8b 45 08             	mov    0x8(%ebp),%eax
ff501721:	09 d8                	or     %ebx,%eax
ff501723:	a8 03                	test   $0x3,%al
ff501725:	74 29                	je     ff501750 <memcpy+0x130>
ff501727:	31 d2                	xor    %edx,%edx
ff501729:	8d b4 26 00 00 00 00 	lea    0x0(%esi,%eiz,1),%esi
ff501730:	0f b6 04 13          	movzbl (%ebx,%edx,1),%eax
ff501734:	88 04 11             	mov    %al,(%ecx,%edx,1)
ff501737:	83 c2 01             	add    $0x1,%edx
ff50173a:	3b 55 10             	cmp    0x10(%ebp),%edx
ff50173d:	75 f1                	jne    ff501730 <memcpy+0x110>
ff50173f:	8b 45 08             	mov    0x8(%ebp),%eax
ff501742:	83 c4 28             	add    $0x28,%esp
ff501745:	5b                   	pop    %ebx
ff501746:	5e                   	pop    %esi
ff501747:	5f                   	pop    %edi
ff501748:	5d                   	pop    %ebp
ff501749:	c3                   	ret    
ff50174a:	8d b6 00 00 00 00    	lea    0x0(%esi),%esi
ff501750:	8b 55 0c             	mov    0xc(%ebp),%edx
ff501753:	83 c3 04             	add    $0x4,%ebx
ff501756:	8b 4d 08             	mov    0x8(%ebp),%ecx
ff501759:	83 6d 10 04          	subl   $0x4,0x10(%ebp)
ff50175d:	8b 02                	mov    (%edx),%eax
ff50175f:	89 01                	mov    %eax,(%ecx)
ff501761:	83 c1 04             	add    $0x4,%ecx
ff501764:	8b 45 10             	mov    0x10(%ebp),%eax
ff501767:	85 c0                	test   %eax,%eax
ff501769:	75 bc                	jne    ff501727 <memcpy+0x107>
ff50176b:	eb d2                	jmp    ff50173f <memcpy+0x11f>
ff50176d:	8d 76 00             	lea    0x0(%esi),%esi
ff501770:	83 e0 fc             	and    $0xfffffffc,%eax
ff501773:	89 45 cc             	mov    %eax,-0x34(%ebp)
ff501776:	89 d8                	mov    %ebx,%eax
ff501778:	8b 5d 10             	mov    0x10(%ebp),%ebx
ff50177b:	83 e0 fc             	and    $0xfffffffc,%eax
ff50177e:	8b 08                	mov    (%eax),%ecx
ff501780:	8d 78 04             	lea    0x4(%eax),%edi
ff501783:	c1 eb 02             	shr    $0x2,%ebx
ff501786:	f6 c3 07             	test   $0x7,%bl
ff501789:	74 29                	je     ff5017b4 <memcpy+0x194>
ff50178b:	90                   	nop    
ff50178c:	8d 74 26 00          	lea    0x0(%esi,%eiz,1),%esi
ff501790:	89 ca                	mov    %ecx,%edx
ff501792:	8b 0f                	mov    (%edi),%ecx
ff501794:	83 eb 01             	sub    $0x1,%ebx
ff501797:	8b 75 cc             	mov    -0x34(%ebp),%esi
ff50179a:	c1 ea 10             	shr    $0x10,%edx
ff50179d:	83 c7 04             	add    $0x4,%edi
ff5017a0:	89 c8                	mov    %ecx,%eax
ff5017a2:	c1 e0 10             	shl    $0x10,%eax
ff5017a5:	09 c2                	or     %eax,%edx
ff5017a7:	89 16                	mov    %edx,(%esi)
ff5017a9:	83 c6 04             	add    $0x4,%esi
ff5017ac:	f6 c3 07             	test   $0x7,%bl
ff5017af:	89 75 cc             	mov    %esi,-0x34(%ebp)
ff5017b2:	75 dc                	jne    ff501790 <memcpy+0x170>
ff5017b4:	c1 eb 03             	shr    $0x3,%ebx
ff5017b7:	85 db                	test   %ebx,%ebx
ff5017b9:	89 5d e8             	mov    %ebx,-0x18(%ebp)
ff5017bc:	0f 84 a7 00 00 00    	je     ff501869 <memcpy+0x249>
ff5017c2:	8b 45 e8             	mov    -0x18(%ebp),%eax
ff5017c5:	89 fb                	mov    %edi,%ebx
ff5017c7:	8b 75 cc             	mov    -0x34(%ebp),%esi
ff5017ca:	89 45 d0             	mov    %eax,-0x30(%ebp)
ff5017cd:	8d 76 00             	lea    0x0(%esi),%esi
ff5017d0:	8b 13                	mov    (%ebx),%edx
ff5017d2:	c1 e9 10             	shr    $0x10,%ecx
ff5017d5:	89 d0                	mov    %edx,%eax
ff5017d7:	c1 e0 10             	shl    $0x10,%eax
ff5017da:	09 c1                	or     %eax,%ecx
ff5017dc:	89 0e                	mov    %ecx,(%esi)
ff5017de:	8b 4b 04             	mov    0x4(%ebx),%ecx
ff5017e1:	c1 ea 10             	shr    $0x10,%edx
ff5017e4:	89 c8                	mov    %ecx,%eax
ff5017e6:	c1 e0 10             	shl    $0x10,%eax
ff5017e9:	09 d0                	or     %edx,%eax
ff5017eb:	89 46 04             	mov    %eax,0x4(%esi)
ff5017ee:	8b 53 08             	mov    0x8(%ebx),%edx
ff5017f1:	c1 e9 10             	shr    $0x10,%ecx
ff5017f4:	89 d0                	mov    %edx,%eax
ff5017f6:	c1 e0 10             	shl    $0x10,%eax
ff5017f9:	09 c8                	or     %ecx,%eax
ff5017fb:	89 46 08             	mov    %eax,0x8(%esi)
ff5017fe:	8b 4b 0c             	mov    0xc(%ebx),%ecx
ff501801:	c1 ea 10             	shr    $0x10,%edx
ff501804:	89 c8                	mov    %ecx,%eax
ff501806:	c1 e0 10             	shl    $0x10,%eax
ff501809:	09 d0                	or     %edx,%eax
ff50180b:	89 46 0c             	mov    %eax,0xc(%esi)
ff50180e:	8b 53 10             	mov    0x10(%ebx),%edx
ff501811:	c1 e9 10             	shr    $0x10,%ecx
ff501814:	89 d0                	mov    %edx,%eax
ff501816:	c1 e0 10             	shl    $0x10,%eax
ff501819:	09 c8                	or     %ecx,%eax
ff50181b:	89 46 10             	mov    %eax,0x10(%esi)
ff50181e:	8b 4b 14             	mov    0x14(%ebx),%ecx
ff501821:	c1 ea 10             	shr    $0x10,%edx
ff501824:	89 c8                	mov    %ecx,%eax
ff501826:	c1 e0 10             	shl    $0x10,%eax
ff501829:	09 d0                	or     %edx,%eax
ff50182b:	89 46 14             	mov    %eax,0x14(%esi)
ff50182e:	8b 53 18             	mov    0x18(%ebx),%edx
ff501831:	c1 e9 10             	shr    $0x10,%ecx
ff501834:	89 d0                	mov    %edx,%eax
ff501836:	c1 e0 10             	shl    $0x10,%eax
ff501839:	09 c8                	or     %ecx,%eax
ff50183b:	89 46 18             	mov    %eax,0x18(%esi)
ff50183e:	8b 4b 1c             	mov    0x1c(%ebx),%ecx
ff501841:	c1 ea 10             	shr    $0x10,%edx
ff501844:	83 c3 20             	add    $0x20,%ebx
ff501847:	89 c8                	mov    %ecx,%eax
ff501849:	c1 e0 10             	shl    $0x10,%eax
ff50184c:	09 d0                	or     %edx,%eax
ff50184e:	89 46 1c             	mov    %eax,0x1c(%esi)
ff501851:	83 c6 20             	add    $0x20,%esi
ff501854:	83 6d d0 01          	subl   $0x1,-0x30(%ebp)
ff501858:	0f 85 72 ff ff ff    	jne    ff5017d0 <memcpy+0x1b0>
ff50185e:	8b 45 e8             	mov    -0x18(%ebp),%eax
ff501861:	c1 e0 05             	shl    $0x5,%eax
ff501864:	01 45 cc             	add    %eax,-0x34(%ebp)
ff501867:	01 c7                	add    %eax,%edi
ff501869:	f6 45 10 02          	testb  $0x2,0x10(%ebp)
ff50186d:	89 fa                	mov    %edi,%edx
ff50186f:	8d 5f fe             	lea    -0x2(%edi),%ebx
ff501872:	8b 4d cc             	mov    -0x34(%ebp),%ecx
ff501875:	0f 85 7d 02 00 00    	jne    ff501af8 <memcpy+0x4d8>
ff50187b:	89 da                	mov    %ebx,%edx
ff50187d:	f6 45 10 01          	testb  $0x1,0x10(%ebp)
ff501881:	0f 84 b8 fe ff ff    	je     ff50173f <memcpy+0x11f>
ff501887:	0f b6 02             	movzbl (%edx),%eax
ff50188a:	88 01                	mov    %al,(%ecx)
ff50188c:	8b 45 08             	mov    0x8(%ebp),%eax
ff50188f:	83 c4 28             	add    $0x28,%esp
ff501892:	5b                   	pop    %ebx
ff501893:	5e                   	pop    %esi
ff501894:	5f                   	pop    %edi
ff501895:	5d                   	pop    %ebp
ff501896:	c3                   	ret    
ff501897:	90                   	nop    
ff501898:	83 e0 fc             	and    $0xfffffffc,%eax
ff50189b:	89 45 e0             	mov    %eax,-0x20(%ebp)
ff50189e:	89 d8                	mov    %ebx,%eax
ff5018a0:	8b 5d 10             	mov    0x10(%ebp),%ebx
ff5018a3:	83 e0 fc             	and    $0xfffffffc,%eax
ff5018a6:	8b 08                	mov    (%eax),%ecx
ff5018a8:	8d 78 04             	lea    0x4(%eax),%edi
ff5018ab:	c1 eb 02             	shr    $0x2,%ebx
ff5018ae:	f6 c3 07             	test   $0x7,%bl
ff5018b1:	74 29                	je     ff5018dc <memcpy+0x2bc>
ff5018b3:	90                   	nop    
ff5018b4:	8d 74 26 00          	lea    0x0(%esi,%eiz,1),%esi
ff5018b8:	89 ca                	mov    %ecx,%edx
ff5018ba:	8b 0f                	mov    (%edi),%ecx
ff5018bc:	83 eb 01             	sub    $0x1,%ebx
ff5018bf:	8b 75 e0             	mov    -0x20(%ebp),%esi
ff5018c2:	c1 ea 08             	shr    $0x8,%edx
ff5018c5:	83 c7 04             	add    $0x4,%edi
ff5018c8:	89 c8                	mov    %ecx,%eax
ff5018ca:	c1 e0 18             	shl    $0x18,%eax
ff5018cd:	09 c2                	or     %eax,%edx
ff5018cf:	89 16                	mov    %edx,(%esi)
ff5018d1:	83 c6 04             	add    $0x4,%esi
ff5018d4:	f6 c3 07             	test   $0x7,%bl
ff5018d7:	89 75 e0             	mov    %esi,-0x20(%ebp)
ff5018da:	75 dc                	jne    ff5018b8 <memcpy+0x298>
ff5018dc:	c1 eb 03             	shr    $0x3,%ebx
ff5018df:	85 db                	test   %ebx,%ebx
ff5018e1:	89 5d e4             	mov    %ebx,-0x1c(%ebp)
ff5018e4:	0f 84 a7 00 00 00    	je     ff501991 <memcpy+0x371>
ff5018ea:	8b 45 e4             	mov    -0x1c(%ebp),%eax
ff5018ed:	89 fb                	mov    %edi,%ebx
ff5018ef:	8b 75 e0             	mov    -0x20(%ebp),%esi
ff5018f2:	89 45 f0             	mov    %eax,-0x10(%ebp)
ff5018f5:	8d 76 00             	lea    0x0(%esi),%esi
ff5018f8:	8b 13                	mov    (%ebx),%edx
ff5018fa:	c1 e9 08             	shr    $0x8,%ecx
ff5018fd:	89 d0                	mov    %edx,%eax
ff5018ff:	c1 e0 18             	shl    $0x18,%eax
ff501902:	09 c1                	or     %eax,%ecx
ff501904:	89 0e                	mov    %ecx,(%esi)
ff501906:	8b 4b 04             	mov    0x4(%ebx),%ecx
ff501909:	c1 ea 08             	shr    $0x8,%edx
ff50190c:	89 c8                	mov    %ecx,%eax
ff50190e:	c1 e0 18             	shl    $0x18,%eax
ff501911:	09 d0                	or     %edx,%eax
ff501913:	89 46 04             	mov    %eax,0x4(%esi)
ff501916:	8b 53 08             	mov    0x8(%ebx),%edx
ff501919:	c1 e9 08             	shr    $0x8,%ecx
ff50191c:	89 d0                	mov    %edx,%eax
ff50191e:	c1 e0 18             	shl    $0x18,%eax
ff501921:	09 c8                	or     %ecx,%eax
ff501923:	89 46 08             	mov    %eax,0x8(%esi)
ff501926:	8b 4b 0c             	mov    0xc(%ebx),%ecx
ff501929:	c1 ea 08             	shr    $0x8,%edx
ff50192c:	89 c8                	mov    %ecx,%eax
ff50192e:	c1 e0 18             	shl    $0x18,%eax
ff501931:	09 d0                	or     %edx,%eax
ff501933:	89 46 0c             	mov    %eax,0xc(%esi)
ff501936:	8b 53 10             	mov    0x10(%ebx),%edx
ff501939:	c1 e9 08             	shr    $0x8,%ecx
ff50193c:	89 d0                	mov    %edx,%eax
ff50193e:	c1 e0 18             	shl    $0x18,%eax
ff501941:	09 c8                	or     %ecx,%eax
ff501943:	89 46 10             	mov    %eax,0x10(%esi)
ff501946:	8b 4b 14             	mov    0x14(%ebx),%ecx
ff501949:	c1 ea 08             	shr    $0x8,%edx
ff50194c:	89 c8                	mov    %ecx,%eax
ff50194e:	c1 e0 18             	shl    $0x18,%eax
ff501951:	09 d0                	or     %edx,%eax
ff501953:	89 46 14             	mov    %eax,0x14(%esi)
ff501956:	8b 53 18             	mov    0x18(%ebx),%edx
ff501959:	c1 e9 08             	shr    $0x8,%ecx
ff50195c:	89 d0                	mov    %edx,%eax
ff50195e:	c1 e0 18             	shl    $0x18,%eax
ff501961:	09 c8                	or     %ecx,%eax
ff501963:	89 46 18             	mov    %eax,0x18(%esi)
ff501966:	8b 4b 1c             	mov    0x1c(%ebx),%ecx
ff501969:	c1 ea 08             	shr    $0x8,%edx
ff50196c:	83 c3 20             	add    $0x20,%ebx
ff50196f:	89 c8                	mov    %ecx,%eax
ff501971:	c1 e0 18             	shl    $0x18,%eax
ff501974:	09 d0                	or     %edx,%eax
ff501976:	89 46 1c             	mov    %eax,0x1c(%esi)
ff501979:	83 c6 20             	add    $0x20,%esi
ff50197c:	83 6d f0 01          	subl   $0x1,-0x10(%ebp)
ff501980:	0f 85 72 ff ff ff    	jne    ff5018f8 <memcpy+0x2d8>
ff501986:	8b 45 e4             	mov    -0x1c(%ebp),%eax
ff501989:	c1 e0 05             	shl    $0x5,%eax
ff50198c:	01 45 e0             	add    %eax,-0x20(%ebp)
ff50198f:	01 c7                	add    %eax,%edi
ff501991:	f6 45 10 02          	testb  $0x2,0x10(%ebp)
ff501995:	8d 47 fd             	lea    -0x3(%edi),%eax
ff501998:	8b 55 e0             	mov    -0x20(%ebp),%edx
ff50199b:	74 16                	je     ff5019b3 <memcpy+0x393>
ff50199d:	0f b6 47 fd          	movzbl -0x3(%edi),%eax
ff5019a1:	88 02                	mov    %al,(%edx)
ff5019a3:	0f b6 47 fe          	movzbl -0x2(%edi),%eax
ff5019a7:	83 c2 02             	add    $0x2,%edx
ff5019aa:	8b 4d e0             	mov    -0x20(%ebp),%ecx
ff5019ad:	88 41 01             	mov    %al,0x1(%ecx)
ff5019b0:	8d 47 ff             	lea    -0x1(%edi),%eax
ff5019b3:	f6 45 10 01          	testb  $0x1,0x10(%ebp)
ff5019b7:	0f 84 82 fd ff ff    	je     ff50173f <memcpy+0x11f>
ff5019bd:	0f b6 00             	movzbl (%eax),%eax
ff5019c0:	88 02                	mov    %al,(%edx)
ff5019c2:	8b 45 08             	mov    0x8(%ebp),%eax
ff5019c5:	83 c4 28             	add    $0x28,%esp
ff5019c8:	5b                   	pop    %ebx
ff5019c9:	5e                   	pop    %esi
ff5019ca:	5f                   	pop    %edi
ff5019cb:	5d                   	pop    %ebp
ff5019cc:	c3                   	ret    
ff5019cd:	8d 76 00             	lea    0x0(%esi),%esi
ff5019d0:	83 e0 fc             	and    $0xfffffffc,%eax
ff5019d3:	89 45 d4             	mov    %eax,-0x2c(%ebp)
ff5019d6:	89 d8                	mov    %ebx,%eax
ff5019d8:	8b 5d 10             	mov    0x10(%ebp),%ebx
ff5019db:	83 e0 fc             	and    $0xfffffffc,%eax
ff5019de:	8b 08                	mov    (%eax),%ecx
ff5019e0:	8d 78 04             	lea    0x4(%eax),%edi
ff5019e3:	c1 eb 02             	shr    $0x2,%ebx
ff5019e6:	f6 c3 07             	test   $0x7,%bl
ff5019e9:	74 29                	je     ff501a14 <memcpy+0x3f4>
ff5019eb:	90                   	nop    
ff5019ec:	8d 74 26 00          	lea    0x0(%esi,%eiz,1),%esi
ff5019f0:	89 ca                	mov    %ecx,%edx
ff5019f2:	8b 0f                	mov    (%edi),%ecx
ff5019f4:	83 eb 01             	sub    $0x1,%ebx
ff5019f7:	c1 ea 18             	shr    $0x18,%edx
ff5019fa:	83 c7 04             	add    $0x4,%edi
ff5019fd:	89 c8                	mov    %ecx,%eax
ff5019ff:	c1 e0 08             	shl    $0x8,%eax
ff501a02:	09 c2                	or     %eax,%edx
ff501a04:	8b 45 d4             	mov    -0x2c(%ebp),%eax
ff501a07:	89 10                	mov    %edx,(%eax)
ff501a09:	83 c0 04             	add    $0x4,%eax
ff501a0c:	f6 c3 07             	test   $0x7,%bl
ff501a0f:	89 45 d4             	mov    %eax,-0x2c(%ebp)
ff501a12:	75 dc                	jne    ff5019f0 <memcpy+0x3d0>
ff501a14:	c1 eb 03             	shr    $0x3,%ebx
ff501a17:	85 db                	test   %ebx,%ebx
ff501a19:	89 5d ec             	mov    %ebx,-0x14(%ebp)
ff501a1c:	0f 84 a7 00 00 00    	je     ff501ac9 <memcpy+0x4a9>
ff501a22:	8b 55 ec             	mov    -0x14(%ebp),%edx
ff501a25:	89 fb                	mov    %edi,%ebx
ff501a27:	8b 75 d4             	mov    -0x2c(%ebp),%esi
ff501a2a:	89 55 d8             	mov    %edx,-0x28(%ebp)
ff501a2d:	8d 76 00             	lea    0x0(%esi),%esi
ff501a30:	8b 13                	mov    (%ebx),%edx
ff501a32:	c1 e9 18             	shr    $0x18,%ecx
ff501a35:	89 d0                	mov    %edx,%eax
ff501a37:	c1 e0 08             	shl    $0x8,%eax
ff501a3a:	09 c1                	or     %eax,%ecx
ff501a3c:	89 0e                	mov    %ecx,(%esi)
ff501a3e:	8b 4b 04             	mov    0x4(%ebx),%ecx
ff501a41:	c1 ea 18             	shr    $0x18,%edx
ff501a44:	89 c8                	mov    %ecx,%eax
ff501a46:	c1 e0 08             	shl    $0x8,%eax
ff501a49:	09 d0                	or     %edx,%eax
ff501a4b:	89 46 04             	mov    %eax,0x4(%esi)
ff501a4e:	8b 53 08             	mov    0x8(%ebx),%edx
ff501a51:	c1 e9 18             	shr    $0x18,%ecx
ff501a54:	89 d0                	mov    %edx,%eax
ff501a56:	c1 e0 08             	shl    $0x8,%eax
ff501a59:	09 c8                	or     %ecx,%eax
ff501a5b:	89 46 08             	mov    %eax,0x8(%esi)
ff501a5e:	8b 4b 0c             	mov    0xc(%ebx),%ecx
ff501a61:	c1 ea 18             	shr    $0x18,%edx
ff501a64:	89 c8                	mov    %ecx,%eax
ff501a66:	c1 e0 08             	shl    $0x8,%eax
ff501a69:	09 d0                	or     %edx,%eax
ff501a6b:	89 46 0c             	mov    %eax,0xc(%esi)
ff501a6e:	8b 53 10             	mov    0x10(%ebx),%edx
ff501a71:	c1 e9 18             	shr    $0x18,%ecx
ff501a74:	89 d0                	mov    %edx,%eax
ff501a76:	c1 e0 08             	shl    $0x8,%eax
ff501a79:	09 c8                	or     %ecx,%eax
ff501a7b:	89 46 10             	mov    %eax,0x10(%esi)
ff501a7e:	8b 4b 14             	mov    0x14(%ebx),%ecx
ff501a81:	c1 ea 18             	shr    $0x18,%edx
ff501a84:	89 c8                	mov    %ecx,%eax
ff501a86:	c1 e0 08             	shl    $0x8,%eax
ff501a89:	09 d0                	or     %edx,%eax
ff501a8b:	89 46 14             	mov    %eax,0x14(%esi)
ff501a8e:	8b 53 18             	mov    0x18(%ebx),%edx
ff501a91:	c1 e9 18             	shr    $0x18,%ecx
ff501a94:	89 d0                	mov    %edx,%eax
ff501a96:	c1 e0 08             	shl    $0x8,%eax
ff501a99:	09 c8                	or     %ecx,%eax
ff501a9b:	89 46 18             	mov    %eax,0x18(%esi)
ff501a9e:	8b 4b 1c             	mov    0x1c(%ebx),%ecx
ff501aa1:	c1 ea 18             	shr    $0x18,%edx
ff501aa4:	83 c3 20             	add    $0x20,%ebx
ff501aa7:	89 c8                	mov    %ecx,%eax
ff501aa9:	c1 e0 08             	shl    $0x8,%eax
ff501aac:	09 d0                	or     %edx,%eax
ff501aae:	89 46 1c             	mov    %eax,0x1c(%esi)
ff501ab1:	83 c6 20             	add    $0x20,%esi
ff501ab4:	83 6d d8 01          	subl   $0x1,-0x28(%ebp)
ff501ab8:	0f 85 72 ff ff ff    	jne    ff501a30 <memcpy+0x410>
ff501abe:	8b 45 ec             	mov    -0x14(%ebp),%eax
ff501ac1:	c1 e0 05             	shl    $0x5,%eax
ff501ac4:	01 45 d4             	add    %eax,-0x2c(%ebp)
ff501ac7:	01 c7                	add    %eax,%edi
ff501ac9:	f6 45 10 02          	testb  $0x2,0x10(%ebp)
ff501acd:	8d 47 ff             	lea    -0x1(%edi),%eax
ff501ad0:	8b 55 d4             	mov    -0x2c(%ebp),%edx
ff501ad3:	0f 84 da fe ff ff    	je     ff5019b3 <memcpy+0x393>
ff501ad9:	0f b6 47 ff          	movzbl -0x1(%edi),%eax
ff501add:	88 02                	mov    %al,(%edx)
ff501adf:	0f b6 07             	movzbl (%edi),%eax
ff501ae2:	83 c2 02             	add    $0x2,%edx
ff501ae5:	8b 4d d4             	mov    -0x2c(%ebp),%ecx
ff501ae8:	88 41 01             	mov    %al,0x1(%ecx)
ff501aeb:	8d 47 01             	lea    0x1(%edi),%eax
ff501aee:	e9 c0 fe ff ff       	jmp    ff5019b3 <memcpy+0x393>
ff501af3:	90                   	nop    
ff501af4:	8d 74 26 00          	lea    0x0(%esi,%eiz,1),%esi
ff501af8:	0f b6 47 fe          	movzbl -0x2(%edi),%eax
ff501afc:	83 c1 02             	add    $0x2,%ecx
ff501aff:	8b 75 cc             	mov    -0x34(%ebp),%esi
ff501b02:	88 06                	mov    %al,(%esi)
ff501b04:	0f b6 43 01          	movzbl 0x1(%ebx),%eax
ff501b08:	88 46 01             	mov    %al,0x1(%esi)
ff501b0b:	e9 6d fd ff ff       	jmp    ff50187d <memcpy+0x25d>

ff501b10 <memset>:
ff501b10:	55                   	push   %ebp
ff501b11:	89 e5                	mov    %esp,%ebp
ff501b13:	8b 45 10             	mov    0x10(%ebp),%eax
ff501b16:	53                   	push   %ebx
ff501b17:	8b 5d 08             	mov    0x8(%ebp),%ebx
ff501b1a:	85 c0                	test   %eax,%eax
ff501b1c:	74 14                	je     ff501b32 <memset+0x22>
ff501b1e:	0f b6 4d 0c          	movzbl 0xc(%ebp),%ecx
ff501b22:	31 d2                	xor    %edx,%edx
ff501b24:	8d 74 26 00          	lea    0x0(%esi,%eiz,1),%esi
ff501b28:	88 0c 13             	mov    %cl,(%ebx,%edx,1)
ff501b2b:	83 c2 01             	add    $0x1,%edx
ff501b2e:	39 c2                	cmp    %eax,%edx
ff501b30:	75 f6                	jne    ff501b28 <memset+0x18>
ff501b32:	89 d8                	mov    %ebx,%eax
ff501b34:	5b                   	pop    %ebx
ff501b35:	5d                   	pop    %ebp
ff501b36:	c3                   	ret    
	...

ff501b40 <sendMessage>:
ff501b40:	55                   	push   %ebp
ff501b41:	89 e5                	mov    %esp,%ebp
ff501b43:	53                   	push   %ebx
ff501b44:	83 ec 24             	sub    $0x24,%esp
ff501b47:	8b 45 0c             	mov    0xc(%ebp),%eax
ff501b4a:	66 89 45 f8          	mov    %ax,-0x8(%ebp)
ff501b4e:	83 7d 08 00          	cmpl   $0x0,0x8(%ebp)
ff501b52:	75 24                	jne    ff501b78 <sendMessage+0x38>
ff501b54:	c7 44 24 0c 13 00 00 	movl   $0x13,0xc(%esp)
ff501b5b:	00 
ff501b5c:	c7 44 24 08 11 6c 50 	movl   $0xff506c11,0x8(%esp)
ff501b63:	ff 
ff501b64:	c7 44 24 04 1d 6c 50 	movl   $0xff506c1d,0x4(%esp)
ff501b6b:	ff 
ff501b6c:	c7 04 24 27 6c 50 ff 	movl   $0xff506c27,(%esp)
ff501b73:	e8 98 e9 ff ff       	call   ff500510 <printAssertMsg>
ff501b78:	8b 45 08             	mov    0x8(%ebp),%eax
ff501b7b:	0f b6 40 05          	movzbl 0x5(%eax),%eax
ff501b7f:	83 e0 0f             	and    $0xf,%eax
ff501b82:	3c 04                	cmp    $0x4,%al
ff501b84:	74 24                	je     ff501baa <sendMessage+0x6a>
ff501b86:	c7 44 24 0c 14 00 00 	movl   $0x14,0xc(%esp)
ff501b8d:	00 
ff501b8e:	c7 44 24 08 11 6c 50 	movl   $0xff506c11,0x8(%esp)
ff501b95:	ff 
ff501b96:	c7 44 24 04 1d 6c 50 	movl   $0xff506c1d,0x4(%esp)
ff501b9d:	ff 
ff501b9e:	c7 04 24 33 6c 50 ff 	movl   $0xff506c33,(%esp)
ff501ba5:	e8 66 e9 ff ff       	call   ff500510 <printAssertMsg>
ff501baa:	66 83 7d f8 ff       	cmpw   $0xffffffff,-0x8(%ebp)
ff501baf:	75 24                	jne    ff501bd5 <sendMessage+0x95>
ff501bb1:	c7 44 24 0c 15 00 00 	movl   $0x15,0xc(%esp)
ff501bb8:	00 
ff501bb9:	c7 44 24 08 11 6c 50 	movl   $0xff506c11,0x8(%esp)
ff501bc0:	ff 
ff501bc1:	c7 44 24 04 1d 6c 50 	movl   $0xff506c1d,0x4(%esp)
ff501bc8:	ff 
ff501bc9:	c7 04 24 49 6c 50 ff 	movl   $0xff506c49,(%esp)
ff501bd0:	e8 3b e9 ff ff       	call   ff500510 <printAssertMsg>
ff501bd5:	8b 55 08             	mov    0x8(%ebp),%edx
ff501bd8:	a1 3c c0 50 ff       	mov    0xff50c03c,%eax
ff501bdd:	89 d1                	mov    %edx,%ecx
ff501bdf:	29 c1                	sub    %eax,%ecx
ff501be1:	89 c8                	mov    %ecx,%eax
ff501be3:	c1 f8 03             	sar    $0x3,%eax
ff501be6:	69 c0 a3 8b 2e ba    	imul   $0xba2e8ba3,%eax,%eax
ff501bec:	66 83 f8 ff          	cmp    $0xffffffff,%ax
ff501bf0:	75 24                	jne    ff501c16 <sendMessage+0xd6>
ff501bf2:	c7 44 24 0c 16 00 00 	movl   $0x16,0xc(%esp)
ff501bf9:	00 
ff501bfa:	c7 44 24 08 11 6c 50 	movl   $0xff506c11,0x8(%esp)
ff501c01:	ff 
ff501c02:	c7 44 24 04 1d 6c 50 	movl   $0xff506c1d,0x4(%esp)
ff501c09:	ff 
ff501c0a:	c7 04 24 5f 6c 50 ff 	movl   $0xff506c5f,(%esp)
ff501c11:	e8 fa e8 ff ff       	call   ff500510 <printAssertMsg>
ff501c16:	83 7d 10 00          	cmpl   $0x0,0x10(%ebp)
ff501c1a:	75 24                	jne    ff501c40 <sendMessage+0x100>
ff501c1c:	c7 44 24 0c 17 00 00 	movl   $0x17,0xc(%esp)
ff501c23:	00 
ff501c24:	c7 44 24 08 11 6c 50 	movl   $0xff506c11,0x8(%esp)
ff501c2b:	ff 
ff501c2c:	c7 44 24 04 1d 6c 50 	movl   $0xff506c1d,0x4(%esp)
ff501c33:	ff 
ff501c34:	c7 04 24 78 6c 50 ff 	movl   $0xff506c78,(%esp)
ff501c3b:	e8 d0 e8 ff ff       	call   ff500510 <printAssertMsg>
ff501c40:	66 83 7d f8 ff       	cmpw   $0xffffffff,-0x8(%ebp)
ff501c45:	74 06                	je     ff501c4d <sendMessage+0x10d>
ff501c47:	83 7d 10 00          	cmpl   $0x0,0x10(%ebp)
ff501c4b:	75 18                	jne    ff501c65 <sendMessage+0x125>
ff501c4d:	c7 04 24 84 6c 50 ff 	movl   $0xff506c84,(%esp)
ff501c54:	e8 f7 ea ff ff       	call   ff500750 <kprintf>
ff501c59:	c7 45 f4 ff ff ff ff 	movl   $0xffffffff,-0xc(%ebp)
ff501c60:	e9 c8 01 00 00       	jmp    ff501e2d <sendMessage+0x2ed>
ff501c65:	8b 55 08             	mov    0x8(%ebp),%edx
ff501c68:	a1 3c c0 50 ff       	mov    0xff50c03c,%eax
ff501c6d:	89 d3                	mov    %edx,%ebx
ff501c6f:	29 c3                	sub    %eax,%ebx
ff501c71:	89 d8                	mov    %ebx,%eax
ff501c73:	c1 f8 03             	sar    $0x3,%eax
ff501c76:	69 c0 a3 8b 2e ba    	imul   $0xba2e8ba3,%eax,%eax
ff501c7c:	89 c2                	mov    %eax,%edx
ff501c7e:	8b 45 10             	mov    0x10(%ebp),%eax
ff501c81:	66 89 10             	mov    %dx,(%eax)
ff501c84:	8b 15 3c c0 50 ff    	mov    0xff50c03c,%edx
ff501c8a:	0f bf 45 f8          	movswl -0x8(%ebp),%eax
ff501c8e:	6b c0 58             	imul   $0x58,%eax,%eax
ff501c91:	8d 04 02             	lea    (%edx,%eax,1),%eax
ff501c94:	0f b6 40 05          	movzbl 0x5(%eax),%eax
ff501c98:	83 e0 0f             	and    $0xf,%eax
ff501c9b:	3c 05                	cmp    $0x5,%al
ff501c9d:	0f 85 16 01 00 00    	jne    ff501db9 <sendMessage+0x279>
ff501ca3:	8b 15 3c c0 50 ff    	mov    0xff50c03c,%edx
ff501ca9:	0f bf 45 f8          	movswl -0x8(%ebp),%eax
ff501cad:	6b c0 58             	imul   $0x58,%eax,%eax
ff501cb0:	8d 04 02             	lea    (%edx,%eax,1),%eax
ff501cb3:	0f b7 40 0c          	movzwl 0xc(%eax),%eax
ff501cb7:	66 83 f8 ff          	cmp    $0xffffffff,%ax
ff501cbb:	74 34                	je     ff501cf1 <sendMessage+0x1b1>
ff501cbd:	8b 15 3c c0 50 ff    	mov    0xff50c03c,%edx
ff501cc3:	0f bf 45 f8          	movswl -0x8(%ebp),%eax
ff501cc7:	6b c0 58             	imul   $0x58,%eax,%eax
ff501cca:	8d 04 02             	lea    (%edx,%eax,1),%eax
ff501ccd:	0f b7 48 0c          	movzwl 0xc(%eax),%ecx
ff501cd1:	8b 55 08             	mov    0x8(%ebp),%edx
ff501cd4:	a1 3c c0 50 ff       	mov    0xff50c03c,%eax
ff501cd9:	89 d3                	mov    %edx,%ebx
ff501cdb:	29 c3                	sub    %eax,%ebx
ff501cdd:	89 d8                	mov    %ebx,%eax
ff501cdf:	c1 f8 03             	sar    $0x3,%eax
ff501ce2:	69 c0 a3 8b 2e ba    	imul   $0xba2e8ba3,%eax,%eax
ff501ce8:	66 39 c1             	cmp    %ax,%cx
ff501ceb:	0f 85 c8 00 00 00    	jne    ff501db9 <sendMessage+0x279>
ff501cf1:	8b 15 3c c0 50 ff    	mov    0xff50c03c,%edx
ff501cf7:	0f bf 45 f8          	movswl -0x8(%ebp),%eax
ff501cfb:	6b c0 58             	imul   $0x58,%eax,%eax
ff501cfe:	8d 04 02             	lea    (%edx,%eax,1),%eax
ff501d01:	8b 08                	mov    (%eax),%ecx
ff501d03:	8b 15 3c c0 50 ff    	mov    0xff50c03c,%edx
ff501d09:	0f bf 45 f8          	movswl -0x8(%ebp),%eax
ff501d0d:	6b c0 58             	imul   $0x58,%eax,%eax
ff501d10:	8d 04 02             	lea    (%edx,%eax,1),%eax
ff501d13:	8b 40 30             	mov    0x30(%eax),%eax
ff501d16:	89 c2                	mov    %eax,%edx
ff501d18:	89 4c 24 0c          	mov    %ecx,0xc(%esp)
ff501d1c:	8b 45 10             	mov    0x10(%ebp),%eax
ff501d1f:	89 44 24 08          	mov    %eax,0x8(%esp)
ff501d23:	c7 44 24 04 00 04 00 	movl   $0x400,0x4(%esp)
ff501d2a:	00 
ff501d2b:	89 14 24             	mov    %edx,(%esp)
ff501d2e:	e8 cd 0c 00 00       	call   ff502a00 <pokeMem>
ff501d33:	85 c0                	test   %eax,%eax
ff501d35:	74 18                	je     ff501d4f <sendMessage+0x20f>
ff501d37:	c7 04 24 9f 6c 50 ff 	movl   $0xff506c9f,(%esp)
ff501d3e:	e8 0d ea ff ff       	call   ff500750 <kprintf>
ff501d43:	c7 45 f4 ff ff ff ff 	movl   $0xffffffff,-0xc(%ebp)
ff501d4a:	e9 de 00 00 00       	jmp    ff501e2d <sendMessage+0x2ed>
ff501d4f:	8b 15 3c c0 50 ff    	mov    0xff50c03c,%edx
ff501d55:	0f bf 45 f8          	movswl -0x8(%ebp),%eax
ff501d59:	6b c0 58             	imul   $0x58,%eax,%eax
ff501d5c:	01 c2                	add    %eax,%edx
ff501d5e:	0f b6 42 05          	movzbl 0x5(%edx),%eax
ff501d62:	83 e0 f0             	and    $0xfffffff0,%eax
ff501d65:	83 c8 03             	or     $0x3,%eax
ff501d68:	88 42 05             	mov    %al,0x5(%edx)
ff501d6b:	8b 15 3c c0 50 ff    	mov    0xff50c03c,%edx
ff501d71:	0f bf 45 f8          	movswl -0x8(%ebp),%eax
ff501d75:	6b c0 58             	imul   $0x58,%eax,%eax
ff501d78:	8d 04 02             	lea    (%edx,%eax,1),%eax
ff501d7b:	89 04 24             	mov    %eax,(%esp)
ff501d7e:	e8 ad 26 00 00       	call   ff504430 <attachRunQueue>
ff501d83:	8b 15 3c c0 50 ff    	mov    0xff50c03c,%edx
ff501d89:	0f bf 45 f8          	movswl -0x8(%ebp),%eax
ff501d8d:	6b c0 58             	imul   $0x58,%eax,%eax
ff501d90:	8d 04 02             	lea    (%edx,%eax,1),%eax
ff501d93:	66 c7 40 0c ff ff    	movw   $0xffff,0xc(%eax)
ff501d99:	8b 15 3c c0 50 ff    	mov    0xff50c03c,%edx
ff501d9f:	0f bf 45 f8          	movswl -0x8(%ebp),%eax
ff501da3:	6b c0 58             	imul   $0x58,%eax,%eax
ff501da6:	8d 04 02             	lea    (%edx,%eax,1),%eax
ff501da9:	c7 40 34 00 00 00 00 	movl   $0x0,0x34(%eax)
ff501db0:	c7 45 f4 00 00 00 00 	movl   $0x0,-0xc(%ebp)
ff501db7:	eb 74                	jmp    ff501e2d <sendMessage+0x2ed>
ff501db9:	8b 45 08             	mov    0x8(%ebp),%eax
ff501dbc:	0f b6 40 05          	movzbl 0x5(%eax),%eax
ff501dc0:	83 e0 0f             	and    $0xf,%eax
ff501dc3:	3c 03                	cmp    $0x3,%al
ff501dc5:	75 0b                	jne    ff501dd2 <sendMessage+0x292>
ff501dc7:	8b 45 08             	mov    0x8(%ebp),%eax
ff501dca:	89 04 24             	mov    %eax,(%esp)
ff501dcd:	e8 0e 28 00 00       	call   ff5045e0 <detachRunQueue>
ff501dd2:	8b 55 08             	mov    0x8(%ebp),%edx
ff501dd5:	0f b6 42 05          	movzbl 0x5(%edx),%eax
ff501dd9:	83 e0 f0             	and    $0xfffffff0,%eax
ff501ddc:	83 c8 06             	or     $0x6,%eax
ff501ddf:	88 42 05             	mov    %al,0x5(%edx)
ff501de2:	8b 55 08             	mov    0x8(%ebp),%edx
ff501de5:	0f b7 45 f8          	movzwl -0x8(%ebp),%eax
ff501de9:	66 89 42 0c          	mov    %ax,0xc(%edx)
ff501ded:	8b 55 08             	mov    0x8(%ebp),%edx
ff501df0:	a1 3c c0 50 ff       	mov    0xff50c03c,%eax
ff501df5:	89 d1                	mov    %edx,%ecx
ff501df7:	29 c1                	sub    %eax,%ecx
ff501df9:	89 c8                	mov    %ecx,%eax
ff501dfb:	c1 f8 03             	sar    $0x3,%eax
ff501dfe:	69 c0 a3 8b 2e ba    	imul   $0xba2e8ba3,%eax,%eax
ff501e04:	0f bf c8             	movswl %ax,%ecx
ff501e07:	8b 15 3c c0 50 ff    	mov    0xff50c03c,%edx
ff501e0d:	0f bf 45 f8          	movswl -0x8(%ebp),%eax
ff501e11:	6b c0 58             	imul   $0x58,%eax,%eax
ff501e14:	8d 04 02             	lea    (%edx,%eax,1),%eax
ff501e17:	83 c0 06             	add    $0x6,%eax
ff501e1a:	89 4c 24 04          	mov    %ecx,0x4(%esp)
ff501e1e:	89 04 24             	mov    %eax,(%esp)
ff501e21:	e8 9a 1c 00 00       	call   ff503ac0 <enqueue>
ff501e26:	c7 45 f4 ff ff ff ff 	movl   $0xffffffff,-0xc(%ebp)
ff501e2d:	8b 45 f4             	mov    -0xc(%ebp),%eax
ff501e30:	83 c4 24             	add    $0x24,%esp
ff501e33:	5b                   	pop    %ebx
ff501e34:	5d                   	pop    %ebp
ff501e35:	c3                   	ret    
ff501e36:	8d 76 00             	lea    0x0(%esi),%esi
ff501e39:	8d bc 27 00 00 00 00 	lea    0x0(%edi,%eiz,1),%edi

ff501e40 <receiveMessage>:
ff501e40:	55                   	push   %ebp
ff501e41:	89 e5                	mov    %esp,%ebp
ff501e43:	56                   	push   %esi
ff501e44:	53                   	push   %ebx
ff501e45:	83 ec 30             	sub    $0x30,%esp
ff501e48:	8b 45 0c             	mov    0xc(%ebp),%eax
ff501e4b:	66 89 45 e4          	mov    %ax,-0x1c(%ebp)
ff501e4f:	83 7d 08 00          	cmpl   $0x0,0x8(%ebp)
ff501e53:	75 24                	jne    ff501e79 <receiveMessage+0x39>
ff501e55:	c7 44 24 0c 4a 00 00 	movl   $0x4a,0xc(%esp)
ff501e5c:	00 
ff501e5d:	c7 44 24 08 af 6c 50 	movl   $0xff506caf,0x8(%esp)
ff501e64:	ff 
ff501e65:	c7 44 24 04 1d 6c 50 	movl   $0xff506c1d,0x4(%esp)
ff501e6c:	ff 
ff501e6d:	c7 04 24 27 6c 50 ff 	movl   $0xff506c27,(%esp)
ff501e74:	e8 97 e6 ff ff       	call   ff500510 <printAssertMsg>
ff501e79:	8b 45 08             	mov    0x8(%ebp),%eax
ff501e7c:	0f b6 40 05          	movzbl 0x5(%eax),%eax
ff501e80:	83 e0 0f             	and    $0xf,%eax
ff501e83:	3c 04                	cmp    $0x4,%al
ff501e85:	74 24                	je     ff501eab <receiveMessage+0x6b>
ff501e87:	c7 44 24 0c 4b 00 00 	movl   $0x4b,0xc(%esp)
ff501e8e:	00 
ff501e8f:	c7 44 24 08 af 6c 50 	movl   $0xff506caf,0x8(%esp)
ff501e96:	ff 
ff501e97:	c7 44 24 04 1d 6c 50 	movl   $0xff506c1d,0x4(%esp)
ff501e9e:	ff 
ff501e9f:	c7 04 24 33 6c 50 ff 	movl   $0xff506c33,(%esp)
ff501ea6:	e8 65 e6 ff ff       	call   ff500510 <printAssertMsg>
ff501eab:	8b 55 08             	mov    0x8(%ebp),%edx
ff501eae:	a1 3c c0 50 ff       	mov    0xff50c03c,%eax
ff501eb3:	89 d1                	mov    %edx,%ecx
ff501eb5:	29 c1                	sub    %eax,%ecx
ff501eb7:	89 c8                	mov    %ecx,%eax
ff501eb9:	c1 f8 03             	sar    $0x3,%eax
ff501ebc:	69 c0 a3 8b 2e ba    	imul   $0xba2e8ba3,%eax,%eax
ff501ec2:	66 83 f8 ff          	cmp    $0xffffffff,%ax
ff501ec6:	75 24                	jne    ff501eec <receiveMessage+0xac>
ff501ec8:	c7 44 24 0c 4c 00 00 	movl   $0x4c,0xc(%esp)
ff501ecf:	00 
ff501ed0:	c7 44 24 08 af 6c 50 	movl   $0xff506caf,0x8(%esp)
ff501ed7:	ff 
ff501ed8:	c7 44 24 04 1d 6c 50 	movl   $0xff506c1d,0x4(%esp)
ff501edf:	ff 
ff501ee0:	c7 04 24 5f 6c 50 ff 	movl   $0xff506c5f,(%esp)
ff501ee7:	e8 24 e6 ff ff       	call   ff500510 <printAssertMsg>
ff501eec:	83 7d 10 00          	cmpl   $0x0,0x10(%ebp)
ff501ef0:	75 0c                	jne    ff501efe <receiveMessage+0xbe>
ff501ef2:	c7 45 e0 ff ff ff ff 	movl   $0xffffffff,-0x20(%ebp)
ff501ef9:	e9 cf 01 00 00       	jmp    ff5020cd <receiveMessage+0x28d>
ff501efe:	66 83 7d e4 ff       	cmpw   $0xffffffff,-0x1c(%ebp)
ff501f03:	75 35                	jne    ff501f3a <receiveMessage+0xfa>
ff501f05:	8b 0d 3c c0 50 ff    	mov    0xff50c03c,%ecx
ff501f0b:	8b 55 08             	mov    0x8(%ebp),%edx
ff501f0e:	a1 3c c0 50 ff       	mov    0xff50c03c,%eax
ff501f13:	89 d3                	mov    %edx,%ebx
ff501f15:	29 c3                	sub    %eax,%ebx
ff501f17:	89 d8                	mov    %ebx,%eax
ff501f19:	c1 f8 03             	sar    $0x3,%eax
ff501f1c:	69 c0 a3 8b 2e ba    	imul   $0xba2e8ba3,%eax,%eax
ff501f22:	98                   	cwtl   
ff501f23:	6b c0 58             	imul   $0x58,%eax,%eax
ff501f26:	8d 04 01             	lea    (%ecx,%eax,1),%eax
ff501f29:	83 c0 06             	add    $0x6,%eax
ff501f2c:	89 04 24             	mov    %eax,(%esp)
ff501f2f:	e8 3c 1e 00 00       	call   ff503d70 <dequeue>
ff501f34:	66 89 45 f6          	mov    %ax,-0xa(%ebp)
ff501f38:	eb 3b                	jmp    ff501f75 <receiveMessage+0x135>
ff501f3a:	0f bf 4d e4          	movswl -0x1c(%ebp),%ecx
ff501f3e:	8b 1d 3c c0 50 ff    	mov    0xff50c03c,%ebx
ff501f44:	8b 55 08             	mov    0x8(%ebp),%edx
ff501f47:	a1 3c c0 50 ff       	mov    0xff50c03c,%eax
ff501f4c:	89 d6                	mov    %edx,%esi
ff501f4e:	29 c6                	sub    %eax,%esi
ff501f50:	89 f0                	mov    %esi,%eax
ff501f52:	c1 f8 03             	sar    $0x3,%eax
ff501f55:	69 c0 a3 8b 2e ba    	imul   $0xba2e8ba3,%eax,%eax
ff501f5b:	98                   	cwtl   
ff501f5c:	6b c0 58             	imul   $0x58,%eax,%eax
ff501f5f:	8d 04 03             	lea    (%ebx,%eax,1),%eax
ff501f62:	83 c0 06             	add    $0x6,%eax
ff501f65:	89 4c 24 04          	mov    %ecx,0x4(%esp)
ff501f69:	89 04 24             	mov    %eax,(%esp)
ff501f6c:	e8 8f 1c 00 00       	call   ff503c00 <detachQueue>
ff501f71:	66 89 45 f6          	mov    %ax,-0xa(%ebp)
ff501f75:	66 83 7d f6 ff       	cmpw   $0xffffffff,-0xa(%ebp)
ff501f7a:	0f 84 12 01 00 00    	je     ff502092 <receiveMessage+0x252>
ff501f80:	8b 15 3c c0 50 ff    	mov    0xff50c03c,%edx
ff501f86:	0f bf 45 f6          	movswl -0xa(%ebp),%eax
ff501f8a:	6b c0 58             	imul   $0x58,%eax,%eax
ff501f8d:	8d 04 02             	lea    (%edx,%eax,1),%eax
ff501f90:	8b 08                	mov    (%eax),%ecx
ff501f92:	8b 15 3c c0 50 ff    	mov    0xff50c03c,%edx
ff501f98:	0f bf 45 f6          	movswl -0xa(%ebp),%eax
ff501f9c:	6b c0 58             	imul   $0x58,%eax,%eax
ff501f9f:	8d 04 02             	lea    (%edx,%eax,1),%eax
ff501fa2:	8b 40 30             	mov    0x30(%eax),%eax
ff501fa5:	89 c2                	mov    %eax,%edx
ff501fa7:	89 4c 24 0c          	mov    %ecx,0xc(%esp)
ff501fab:	8b 45 10             	mov    0x10(%ebp),%eax
ff501fae:	89 44 24 08          	mov    %eax,0x8(%esp)
ff501fb2:	c7 44 24 04 00 04 00 	movl   $0x400,0x4(%esp)
ff501fb9:	00 
ff501fba:	89 14 24             	mov    %edx,(%esp)
ff501fbd:	e8 ae 0a 00 00       	call   ff502a70 <peekMem>
ff501fc2:	85 c0                	test   %eax,%eax
ff501fc4:	74 4f                	je     ff502015 <receiveMessage+0x1d5>
ff501fc6:	0f bf 4d f6          	movswl -0xa(%ebp),%ecx
ff501fca:	8b 1d 3c c0 50 ff    	mov    0xff50c03c,%ebx
ff501fd0:	8b 55 08             	mov    0x8(%ebp),%edx
ff501fd3:	a1 3c c0 50 ff       	mov    0xff50c03c,%eax
ff501fd8:	89 d6                	mov    %edx,%esi
ff501fda:	29 c6                	sub    %eax,%esi
ff501fdc:	89 f0                	mov    %esi,%eax
ff501fde:	c1 f8 03             	sar    $0x3,%eax
ff501fe1:	69 c0 a3 8b 2e ba    	imul   $0xba2e8ba3,%eax,%eax
ff501fe7:	98                   	cwtl   
ff501fe8:	6b c0 58             	imul   $0x58,%eax,%eax
ff501feb:	8d 04 03             	lea    (%ebx,%eax,1),%eax
ff501fee:	83 c0 06             	add    $0x6,%eax
ff501ff1:	89 4c 24 04          	mov    %ecx,0x4(%esp)
ff501ff5:	89 04 24             	mov    %eax,(%esp)
ff501ff8:	e8 c3 1a 00 00       	call   ff503ac0 <enqueue>
ff501ffd:	c7 04 24 be 6c 50 ff 	movl   $0xff506cbe,(%esp)
ff502004:	e8 47 e7 ff ff       	call   ff500750 <kprintf>
ff502009:	c7 45 e0 ff ff ff ff 	movl   $0xffffffff,-0x20(%ebp)
ff502010:	e9 b8 00 00 00       	jmp    ff5020cd <receiveMessage+0x28d>
ff502015:	8b 15 3c c0 50 ff    	mov    0xff50c03c,%edx
ff50201b:	0f bf 45 f6          	movswl -0xa(%ebp),%eax
ff50201f:	6b c0 58             	imul   $0x58,%eax,%eax
ff502022:	8d 04 02             	lea    (%edx,%eax,1),%eax
ff502025:	0f b6 40 05          	movzbl 0x5(%eax),%eax
ff502029:	83 e0 0f             	and    $0xf,%eax
ff50202c:	3c 06                	cmp    $0x6,%al
ff50202e:	75 4d                	jne    ff50207d <receiveMessage+0x23d>
ff502030:	8b 15 3c c0 50 ff    	mov    0xff50c03c,%edx
ff502036:	0f bf 45 f6          	movswl -0xa(%ebp),%eax
ff50203a:	6b c0 58             	imul   $0x58,%eax,%eax
ff50203d:	01 c2                	add    %eax,%edx
ff50203f:	0f b6 42 05          	movzbl 0x5(%edx),%eax
ff502043:	83 e0 f0             	and    $0xfffffff0,%eax
ff502046:	83 c8 03             	or     $0x3,%eax
ff502049:	88 42 05             	mov    %al,0x5(%edx)
ff50204c:	8b 15 3c c0 50 ff    	mov    0xff50c03c,%edx
ff502052:	0f bf 45 f6          	movswl -0xa(%ebp),%eax
ff502056:	6b c0 58             	imul   $0x58,%eax,%eax
ff502059:	8d 04 02             	lea    (%edx,%eax,1),%eax
ff50205c:	89 04 24             	mov    %eax,(%esp)
ff50205f:	e8 cc 23 00 00       	call   ff504430 <attachRunQueue>
ff502064:	8b 15 3c c0 50 ff    	mov    0xff50c03c,%edx
ff50206a:	0f bf 45 f6          	movswl -0xa(%ebp),%eax
ff50206e:	6b c0 58             	imul   $0x58,%eax,%eax
ff502071:	8d 04 02             	lea    (%edx,%eax,1),%eax
ff502074:	c7 40 34 00 00 00 00 	movl   $0x0,0x34(%eax)
ff50207b:	eb 0c                	jmp    ff502089 <receiveMessage+0x249>
ff50207d:	c7 04 24 ce 6c 50 ff 	movl   $0xff506cce,(%esp)
ff502084:	e8 c7 e6 ff ff       	call   ff500750 <kprintf>
ff502089:	c7 45 e0 00 00 00 00 	movl   $0x0,-0x20(%ebp)
ff502090:	eb 3b                	jmp    ff5020cd <receiveMessage+0x28d>
ff502092:	8b 45 08             	mov    0x8(%ebp),%eax
ff502095:	0f b6 40 05          	movzbl 0x5(%eax),%eax
ff502099:	83 e0 0f             	and    $0xf,%eax
ff50209c:	3c 03                	cmp    $0x3,%al
ff50209e:	75 0b                	jne    ff5020ab <receiveMessage+0x26b>
ff5020a0:	8b 45 08             	mov    0x8(%ebp),%eax
ff5020a3:	89 04 24             	mov    %eax,(%esp)
ff5020a6:	e8 35 25 00 00       	call   ff5045e0 <detachRunQueue>
ff5020ab:	8b 55 08             	mov    0x8(%ebp),%edx
ff5020ae:	0f b6 42 05          	movzbl 0x5(%edx),%eax
ff5020b2:	83 e0 f0             	and    $0xfffffff0,%eax
ff5020b5:	83 c8 05             	or     $0x5,%eax
ff5020b8:	88 42 05             	mov    %al,0x5(%edx)
ff5020bb:	8b 55 08             	mov    0x8(%ebp),%edx
ff5020be:	0f b7 45 e4          	movzwl -0x1c(%ebp),%eax
ff5020c2:	66 89 42 0c          	mov    %ax,0xc(%edx)
ff5020c6:	c7 45 e0 ff ff ff ff 	movl   $0xffffffff,-0x20(%ebp)
ff5020cd:	8b 45 e0             	mov    -0x20(%ebp),%eax
ff5020d0:	83 c4 30             	add    $0x30,%esp
ff5020d3:	5b                   	pop    %ebx
ff5020d4:	5e                   	pop    %esi
ff5020d5:	5d                   	pop    %ebp
ff5020d6:	c3                   	ret    
	...

ff5020e0 <reload_cr3>:
ff5020e0:	55                   	push   %ebp
ff5020e1:	89 e5                	mov    %esp,%ebp
ff5020e3:	50                   	push   %eax
ff5020e4:	0f 20 d8             	mov    %cr3,%eax
ff5020e7:	0f 22 d8             	mov    %eax,%cr3
ff5020ea:	58                   	pop    %eax
ff5020eb:	5d                   	pop    %ebp
ff5020ec:	c3                   	ret    
ff5020ed:	8d 76 00             	lea    0x0(%esi),%esi

ff5020f0 <_writePDE>:
ff5020f0:	55                   	push   %ebp
ff5020f1:	89 e5                	mov    %esp,%ebp
ff5020f3:	83 ec 28             	sub    $0x28,%esp
ff5020f6:	c7 45 f8 00 30 40 ff 	movl   $0xff403000,-0x8(%ebp)
ff5020fd:	81 7d 08 ff 03 00 00 	cmpl   $0x3ff,0x8(%ebp)
ff502104:	76 24                	jbe    ff50212a <_writePDE+0x3a>
ff502106:	c7 44 24 0c 68 00 00 	movl   $0x68,0xc(%esp)
ff50210d:	00 
ff50210e:	c7 44 24 08 e4 6c 50 	movl   $0xff506ce4,0x8(%esp)
ff502115:	ff 
ff502116:	c7 44 24 04 ee 6c 50 	movl   $0xff506cee,0x4(%esp)
ff50211d:	ff 
ff50211e:	c7 04 24 f7 6c 50 ff 	movl   $0xff506cf7,(%esp)
ff502125:	e8 e6 e3 ff ff       	call   ff500510 <printAssertMsg>
ff50212a:	83 7d 0c 00          	cmpl   $0x0,0xc(%ebp)
ff50212e:	75 24                	jne    ff502154 <_writePDE+0x64>
ff502130:	c7 44 24 0c 69 00 00 	movl   $0x69,0xc(%esp)
ff502137:	00 
ff502138:	c7 44 24 08 e4 6c 50 	movl   $0xff506ce4,0x8(%esp)
ff50213f:	ff 
ff502140:	c7 44 24 04 ee 6c 50 	movl   $0xff506cee,0x4(%esp)
ff502147:	ff 
ff502148:	c7 04 24 07 6d 50 ff 	movl   $0xff506d07,(%esp)
ff50214f:	e8 bc e3 ff ff       	call   ff500510 <printAssertMsg>
ff502154:	83 7d 10 ff          	cmpl   $0xffffffff,0x10(%ebp)
ff502158:	75 24                	jne    ff50217e <_writePDE+0x8e>
ff50215a:	c7 44 24 0c 6a 00 00 	movl   $0x6a,0xc(%esp)
ff502161:	00 
ff502162:	c7 44 24 08 e4 6c 50 	movl   $0xff506ce4,0x8(%esp)
ff502169:	ff 
ff50216a:	c7 44 24 04 ee 6c 50 	movl   $0xff506cee,0x4(%esp)
ff502171:	ff 
ff502172:	c7 04 24 14 6d 50 ff 	movl   $0xff506d14,(%esp)
ff502179:	e8 92 e3 ff ff       	call   ff500510 <printAssertMsg>
ff50217e:	81 7d 08 ff 03 00 00 	cmpl   $0x3ff,0x8(%ebp)
ff502185:	77 0c                	ja     ff502193 <_writePDE+0xa3>
ff502187:	83 7d 0c 00          	cmpl   $0x0,0xc(%ebp)
ff50218b:	74 06                	je     ff502193 <_writePDE+0xa3>
ff50218d:	83 7d 10 ff          	cmpl   $0xffffffff,0x10(%ebp)
ff502191:	75 0c                	jne    ff50219f <_writePDE+0xaf>
ff502193:	c7 45 ec ff ff ff ff 	movl   $0xffffffff,-0x14(%ebp)
ff50219a:	e9 95 00 00 00       	jmp    ff502234 <_writePDE+0x144>
ff50219f:	e8 b8 df ff ff       	call   ff50015c <getCR3>
ff5021a4:	3b 45 10             	cmp    0x10(%ebp),%eax
ff5021a7:	75 1d                	jne    ff5021c6 <_writePDE+0xd6>
ff5021a9:	8b 45 08             	mov    0x8(%ebp),%eax
ff5021ac:	c1 e0 16             	shl    $0x16,%eax
ff5021af:	c1 e8 14             	shr    $0x14,%eax
ff5021b2:	2d 00 10 00 00       	sub    $0x1000,%eax
ff5021b7:	89 45 fc             	mov    %eax,-0x4(%ebp)
ff5021ba:	8b 45 0c             	mov    0xc(%ebp),%eax
ff5021bd:	8b 10                	mov    (%eax),%edx
ff5021bf:	8b 45 fc             	mov    -0x4(%ebp),%eax
ff5021c2:	89 10                	mov    %edx,(%eax)
ff5021c4:	eb 67                	jmp    ff50222d <_writePDE+0x13d>
ff5021c6:	c7 44 24 08 02 00 00 	movl   $0x2,0x8(%esp)
ff5021cd:	00 
ff5021ce:	8b 45 10             	mov    0x10(%ebp),%eax
ff5021d1:	89 44 24 04          	mov    %eax,0x4(%esp)
ff5021d5:	c7 04 24 00 30 40 ff 	movl   $0xff403000,(%esp)
ff5021dc:	e8 bf 0a 00 00       	call   ff502ca0 <kMapPage>
ff5021e1:	83 f8 ff             	cmp    $0xffffffff,%eax
ff5021e4:	75 2d                	jne    ff502213 <_writePDE+0x123>
ff5021e6:	c7 44 24 0c 78 00 00 	movl   $0x78,0xc(%esp)
ff5021ed:	00 
ff5021ee:	c7 44 24 08 e4 6c 50 	movl   $0xff506ce4,0x8(%esp)
ff5021f5:	ff 
ff5021f6:	c7 44 24 04 ee 6c 50 	movl   $0xff506cee,0x4(%esp)
ff5021fd:	ff 
ff5021fe:	c7 04 24 34 6d 50 ff 	movl   $0xff506d34,(%esp)
ff502205:	e8 06 e3 ff ff       	call   ff500510 <printAssertMsg>
ff50220a:	c7 45 ec ff ff ff ff 	movl   $0xffffffff,-0x14(%ebp)
ff502211:	eb 21                	jmp    ff502234 <_writePDE+0x144>
ff502213:	8b 4d 08             	mov    0x8(%ebp),%ecx
ff502216:	8b 45 0c             	mov    0xc(%ebp),%eax
ff502219:	8b 10                	mov    (%eax),%edx
ff50221b:	8b 45 f8             	mov    -0x8(%ebp),%eax
ff50221e:	89 14 88             	mov    %edx,(%eax,%ecx,4)
ff502221:	c7 04 24 00 30 40 ff 	movl   $0xff403000,(%esp)
ff502228:	e8 33 0e 00 00       	call   ff503060 <kUnmapPage>
ff50222d:	c7 45 ec 00 00 00 00 	movl   $0x0,-0x14(%ebp)
ff502234:	8b 45 ec             	mov    -0x14(%ebp),%eax
ff502237:	c9                   	leave  
ff502238:	c3                   	ret    
ff502239:	8d b4 26 00 00 00 00 	lea    0x0(%esi,%eiz,1),%esi

ff502240 <writePDE>:
ff502240:	55                   	push   %ebp
ff502241:	89 e5                	mov    %esp,%ebp
ff502243:	83 ec 18             	sub    $0x18,%esp
ff502246:	83 7d 08 ff          	cmpl   $0xffffffff,0x8(%ebp)
ff50224a:	75 24                	jne    ff502270 <writePDE+0x30>
ff50224c:	c7 44 24 0c 85 00 00 	movl   $0x85,0xc(%esp)
ff502253:	00 
ff502254:	c7 44 24 08 3a 6d 50 	movl   $0xff506d3a,0x8(%esp)
ff50225b:	ff 
ff50225c:	c7 44 24 04 ee 6c 50 	movl   $0xff506cee,0x4(%esp)
ff502263:	ff 
ff502264:	c7 04 24 43 6d 50 ff 	movl   $0xff506d43,(%esp)
ff50226b:	e8 a0 e2 ff ff       	call   ff500510 <printAssertMsg>
ff502270:	83 7d 10 ff          	cmpl   $0xffffffff,0x10(%ebp)
ff502274:	75 24                	jne    ff50229a <writePDE+0x5a>
ff502276:	c7 44 24 0c 86 00 00 	movl   $0x86,0xc(%esp)
ff50227d:	00 
ff50227e:	c7 44 24 08 3a 6d 50 	movl   $0xff506d3a,0x8(%esp)
ff502285:	ff 
ff502286:	c7 44 24 04 ee 6c 50 	movl   $0xff506cee,0x4(%esp)
ff50228d:	ff 
ff50228e:	c7 04 24 14 6d 50 ff 	movl   $0xff506d14,(%esp)
ff502295:	e8 76 e2 ff ff       	call   ff500510 <printAssertMsg>
ff50229a:	83 7d 08 ff          	cmpl   $0xffffffff,0x8(%ebp)
ff50229e:	74 06                	je     ff5022a6 <writePDE+0x66>
ff5022a0:	83 7d 10 ff          	cmpl   $0xffffffff,0x10(%ebp)
ff5022a4:	75 09                	jne    ff5022af <writePDE+0x6f>
ff5022a6:	c7 45 fc ff ff ff ff 	movl   $0xffffffff,-0x4(%ebp)
ff5022ad:	eb 21                	jmp    ff5022d0 <writePDE+0x90>
ff5022af:	8b 45 08             	mov    0x8(%ebp),%eax
ff5022b2:	89 c2                	mov    %eax,%edx
ff5022b4:	c1 ea 16             	shr    $0x16,%edx
ff5022b7:	8b 45 10             	mov    0x10(%ebp),%eax
ff5022ba:	89 44 24 08          	mov    %eax,0x8(%esp)
ff5022be:	8b 45 0c             	mov    0xc(%ebp),%eax
ff5022c1:	89 44 24 04          	mov    %eax,0x4(%esp)
ff5022c5:	89 14 24             	mov    %edx,(%esp)
ff5022c8:	e8 23 fe ff ff       	call   ff5020f0 <_writePDE>
ff5022cd:	89 45 fc             	mov    %eax,-0x4(%ebp)
ff5022d0:	8b 45 fc             	mov    -0x4(%ebp),%eax
ff5022d3:	c9                   	leave  
ff5022d4:	c3                   	ret    
ff5022d5:	8d 74 26 00          	lea    0x0(%esi,%eiz,1),%esi
ff5022d9:	8d bc 27 00 00 00 00 	lea    0x0(%edi,%eiz,1),%edi

ff5022e0 <_readPDE>:
ff5022e0:	55                   	push   %ebp
ff5022e1:	89 e5                	mov    %esp,%ebp
ff5022e3:	83 ec 28             	sub    $0x28,%esp
ff5022e6:	c7 45 fc 00 30 40 ff 	movl   $0xff403000,-0x4(%ebp)
ff5022ed:	81 7d 08 ff 03 00 00 	cmpl   $0x3ff,0x8(%ebp)
ff5022f4:	76 24                	jbe    ff50231a <_readPDE+0x3a>
ff5022f6:	c7 44 24 0c 92 00 00 	movl   $0x92,0xc(%esp)
ff5022fd:	00 
ff5022fe:	c7 44 24 08 61 6d 50 	movl   $0xff506d61,0x8(%esp)
ff502305:	ff 
ff502306:	c7 44 24 04 ee 6c 50 	movl   $0xff506cee,0x4(%esp)
ff50230d:	ff 
ff50230e:	c7 04 24 f7 6c 50 ff 	movl   $0xff506cf7,(%esp)
ff502315:	e8 f6 e1 ff ff       	call   ff500510 <printAssertMsg>
ff50231a:	83 7d 0c 00          	cmpl   $0x0,0xc(%ebp)
ff50231e:	75 24                	jne    ff502344 <_readPDE+0x64>
ff502320:	c7 44 24 0c 93 00 00 	movl   $0x93,0xc(%esp)
ff502327:	00 
ff502328:	c7 44 24 08 61 6d 50 	movl   $0xff506d61,0x8(%esp)
ff50232f:	ff 
ff502330:	c7 44 24 04 ee 6c 50 	movl   $0xff506cee,0x4(%esp)
ff502337:	ff 
ff502338:	c7 04 24 07 6d 50 ff 	movl   $0xff506d07,(%esp)
ff50233f:	e8 cc e1 ff ff       	call   ff500510 <printAssertMsg>
ff502344:	83 7d 10 ff          	cmpl   $0xffffffff,0x10(%ebp)
ff502348:	75 24                	jne    ff50236e <_readPDE+0x8e>
ff50234a:	c7 44 24 0c 94 00 00 	movl   $0x94,0xc(%esp)
ff502351:	00 
ff502352:	c7 44 24 08 61 6d 50 	movl   $0xff506d61,0x8(%esp)
ff502359:	ff 
ff50235a:	c7 44 24 04 ee 6c 50 	movl   $0xff506cee,0x4(%esp)
ff502361:	ff 
ff502362:	c7 04 24 14 6d 50 ff 	movl   $0xff506d14,(%esp)
ff502369:	e8 a2 e1 ff ff       	call   ff500510 <printAssertMsg>
ff50236e:	81 7d 08 ff 03 00 00 	cmpl   $0x3ff,0x8(%ebp)
ff502375:	77 0c                	ja     ff502383 <_readPDE+0xa3>
ff502377:	83 7d 0c 00          	cmpl   $0x0,0xc(%ebp)
ff50237b:	74 06                	je     ff502383 <_readPDE+0xa3>
ff50237d:	83 7d 10 ff          	cmpl   $0xffffffff,0x10(%ebp)
ff502381:	75 09                	jne    ff50238c <_readPDE+0xac>
ff502383:	c7 45 ec ff ff ff ff 	movl   $0xffffffff,-0x14(%ebp)
ff50238a:	eb 72                	jmp    ff5023fe <_readPDE+0x11e>
ff50238c:	e8 cb dd ff ff       	call   ff50015c <getCR3>
ff502391:	3b 45 10             	cmp    0x10(%ebp),%eax
ff502394:	75 1e                	jne    ff5023b4 <_readPDE+0xd4>
ff502396:	8b 45 08             	mov    0x8(%ebp),%eax
ff502399:	c1 e0 16             	shl    $0x16,%eax
ff50239c:	c1 e8 14             	shr    $0x14,%eax
ff50239f:	2d 00 10 00 00       	sub    $0x1000,%eax
ff5023a4:	8b 10                	mov    (%eax),%edx
ff5023a6:	8b 45 0c             	mov    0xc(%ebp),%eax
ff5023a9:	89 10                	mov    %edx,(%eax)
ff5023ab:	c7 45 ec 00 00 00 00 	movl   $0x0,-0x14(%ebp)
ff5023b2:	eb 4a                	jmp    ff5023fe <_readPDE+0x11e>
ff5023b4:	c7 44 24 08 02 00 00 	movl   $0x2,0x8(%esp)
ff5023bb:	00 
ff5023bc:	8b 45 10             	mov    0x10(%ebp),%eax
ff5023bf:	89 44 24 04          	mov    %eax,0x4(%esp)
ff5023c3:	c7 04 24 00 30 40 ff 	movl   $0xff403000,(%esp)
ff5023ca:	e8 d1 08 00 00       	call   ff502ca0 <kMapPage>
ff5023cf:	83 f8 ff             	cmp    $0xffffffff,%eax
ff5023d2:	75 09                	jne    ff5023dd <_readPDE+0xfd>
ff5023d4:	c7 45 ec ff ff ff ff 	movl   $0xffffffff,-0x14(%ebp)
ff5023db:	eb 21                	jmp    ff5023fe <_readPDE+0x11e>
ff5023dd:	8b 55 08             	mov    0x8(%ebp),%edx
ff5023e0:	8b 45 fc             	mov    -0x4(%ebp),%eax
ff5023e3:	8b 14 90             	mov    (%eax,%edx,4),%edx
ff5023e6:	8b 45 0c             	mov    0xc(%ebp),%eax
ff5023e9:	89 10                	mov    %edx,(%eax)
ff5023eb:	c7 04 24 00 30 40 ff 	movl   $0xff403000,(%esp)
ff5023f2:	e8 69 0c 00 00       	call   ff503060 <kUnmapPage>
ff5023f7:	c7 45 ec 00 00 00 00 	movl   $0x0,-0x14(%ebp)
ff5023fe:	8b 45 ec             	mov    -0x14(%ebp),%eax
ff502401:	c9                   	leave  
ff502402:	c3                   	ret    
ff502403:	8d b6 00 00 00 00    	lea    0x0(%esi),%esi
ff502409:	8d bc 27 00 00 00 00 	lea    0x0(%edi,%eiz,1),%edi

ff502410 <readPDE>:
ff502410:	55                   	push   %ebp
ff502411:	89 e5                	mov    %esp,%ebp
ff502413:	83 ec 18             	sub    $0x18,%esp
ff502416:	83 7d 08 ff          	cmpl   $0xffffffff,0x8(%ebp)
ff50241a:	75 24                	jne    ff502440 <readPDE+0x30>
ff50241c:	c7 44 24 0c ab 00 00 	movl   $0xab,0xc(%esp)
ff502423:	00 
ff502424:	c7 44 24 08 6a 6d 50 	movl   $0xff506d6a,0x8(%esp)
ff50242b:	ff 
ff50242c:	c7 44 24 04 ee 6c 50 	movl   $0xff506cee,0x4(%esp)
ff502433:	ff 
ff502434:	c7 04 24 43 6d 50 ff 	movl   $0xff506d43,(%esp)
ff50243b:	e8 d0 e0 ff ff       	call   ff500510 <printAssertMsg>
ff502440:	83 7d 0c 00          	cmpl   $0x0,0xc(%ebp)
ff502444:	75 24                	jne    ff50246a <readPDE+0x5a>
ff502446:	c7 44 24 0c ac 00 00 	movl   $0xac,0xc(%esp)
ff50244d:	00 
ff50244e:	c7 44 24 08 6a 6d 50 	movl   $0xff506d6a,0x8(%esp)
ff502455:	ff 
ff502456:	c7 44 24 04 ee 6c 50 	movl   $0xff506cee,0x4(%esp)
ff50245d:	ff 
ff50245e:	c7 04 24 07 6d 50 ff 	movl   $0xff506d07,(%esp)
ff502465:	e8 a6 e0 ff ff       	call   ff500510 <printAssertMsg>
ff50246a:	83 7d 10 ff          	cmpl   $0xffffffff,0x10(%ebp)
ff50246e:	75 24                	jne    ff502494 <readPDE+0x84>
ff502470:	c7 44 24 0c ad 00 00 	movl   $0xad,0xc(%esp)
ff502477:	00 
ff502478:	c7 44 24 08 6a 6d 50 	movl   $0xff506d6a,0x8(%esp)
ff50247f:	ff 
ff502480:	c7 44 24 04 ee 6c 50 	movl   $0xff506cee,0x4(%esp)
ff502487:	ff 
ff502488:	c7 04 24 14 6d 50 ff 	movl   $0xff506d14,(%esp)
ff50248f:	e8 7c e0 ff ff       	call   ff500510 <printAssertMsg>
ff502494:	83 7d 08 ff          	cmpl   $0xffffffff,0x8(%ebp)
ff502498:	74 0c                	je     ff5024a6 <readPDE+0x96>
ff50249a:	83 7d 0c ff          	cmpl   $0xffffffff,0xc(%ebp)
ff50249e:	74 06                	je     ff5024a6 <readPDE+0x96>
ff5024a0:	83 7d 10 ff          	cmpl   $0xffffffff,0x10(%ebp)
ff5024a4:	75 15                	jne    ff5024bb <readPDE+0xab>
ff5024a6:	c7 04 24 72 6d 50 ff 	movl   $0xff506d72,(%esp)
ff5024ad:	e8 9e e2 ff ff       	call   ff500750 <kprintf>
ff5024b2:	c7 45 fc ff ff ff ff 	movl   $0xffffffff,-0x4(%ebp)
ff5024b9:	eb 21                	jmp    ff5024dc <readPDE+0xcc>
ff5024bb:	8b 45 08             	mov    0x8(%ebp),%eax
ff5024be:	89 c2                	mov    %eax,%edx
ff5024c0:	c1 ea 16             	shr    $0x16,%edx
ff5024c3:	8b 45 10             	mov    0x10(%ebp),%eax
ff5024c6:	89 44 24 08          	mov    %eax,0x8(%esp)
ff5024ca:	8b 45 0c             	mov    0xc(%ebp),%eax
ff5024cd:	89 44 24 04          	mov    %eax,0x4(%esp)
ff5024d1:	89 14 24             	mov    %edx,(%esp)
ff5024d4:	e8 07 fe ff ff       	call   ff5022e0 <_readPDE>
ff5024d9:	89 45 fc             	mov    %eax,-0x4(%ebp)
ff5024dc:	8b 45 fc             	mov    -0x4(%ebp),%eax
ff5024df:	c9                   	leave  
ff5024e0:	c3                   	ret    
ff5024e1:	eb 0d                	jmp    ff5024f0 <readPTE>
ff5024e3:	90                   	nop    
ff5024e4:	90                   	nop    
ff5024e5:	90                   	nop    
ff5024e6:	90                   	nop    
ff5024e7:	90                   	nop    
ff5024e8:	90                   	nop    
ff5024e9:	90                   	nop    
ff5024ea:	90                   	nop    
ff5024eb:	90                   	nop    
ff5024ec:	90                   	nop    
ff5024ed:	90                   	nop    
ff5024ee:	90                   	nop    
ff5024ef:	90                   	nop    

ff5024f0 <readPTE>:
ff5024f0:	55                   	push   %ebp
ff5024f1:	89 e5                	mov    %esp,%ebp
ff5024f3:	53                   	push   %ebx
ff5024f4:	83 ec 24             	sub    $0x24,%esp
ff5024f7:	c7 45 f0 00 30 40 ff 	movl   $0xff403000,-0x10(%ebp)
ff5024fe:	8b 45 08             	mov    0x8(%ebp),%eax
ff502501:	c1 e8 16             	shr    $0x16,%eax
ff502504:	89 45 f4             	mov    %eax,-0xc(%ebp)
ff502507:	8b 45 08             	mov    0x8(%ebp),%eax
ff50250a:	c1 e8 0c             	shr    $0xc,%eax
ff50250d:	25 ff 03 00 00       	and    $0x3ff,%eax
ff502512:	89 45 f8             	mov    %eax,-0x8(%ebp)
ff502515:	83 7d 08 ff          	cmpl   $0xffffffff,0x8(%ebp)
ff502519:	75 24                	jne    ff50253f <readPTE+0x4f>
ff50251b:	c7 44 24 0c c9 00 00 	movl   $0xc9,0xc(%esp)
ff502522:	00 
ff502523:	c7 44 24 08 88 6d 50 	movl   $0xff506d88,0x8(%esp)
ff50252a:	ff 
ff50252b:	c7 44 24 04 ee 6c 50 	movl   $0xff506cee,0x4(%esp)
ff502532:	ff 
ff502533:	c7 04 24 90 6d 50 ff 	movl   $0xff506d90,(%esp)
ff50253a:	e8 d1 df ff ff       	call   ff500510 <printAssertMsg>
ff50253f:	83 7d 10 ff          	cmpl   $0xffffffff,0x10(%ebp)
ff502543:	75 24                	jne    ff502569 <readPTE+0x79>
ff502545:	c7 44 24 0c ca 00 00 	movl   $0xca,0xc(%esp)
ff50254c:	00 
ff50254d:	c7 44 24 08 88 6d 50 	movl   $0xff506d88,0x8(%esp)
ff502554:	ff 
ff502555:	c7 44 24 04 ee 6c 50 	movl   $0xff506cee,0x4(%esp)
ff50255c:	ff 
ff50255d:	c7 04 24 14 6d 50 ff 	movl   $0xff506d14,(%esp)
ff502564:	e8 a7 df ff ff       	call   ff500510 <printAssertMsg>
ff502569:	83 7d 0c ff          	cmpl   $0xffffffff,0xc(%ebp)
ff50256d:	75 24                	jne    ff502593 <readPTE+0xa3>
ff50256f:	c7 44 24 0c cb 00 00 	movl   $0xcb,0xc(%esp)
ff502576:	00 
ff502577:	c7 44 24 08 88 6d 50 	movl   $0xff506d88,0x8(%esp)
ff50257e:	ff 
ff50257f:	c7 44 24 04 ee 6c 50 	movl   $0xff506cee,0x4(%esp)
ff502586:	ff 
ff502587:	c7 04 24 a6 6d 50 ff 	movl   $0xff506da6,(%esp)
ff50258e:	e8 7d df ff ff       	call   ff500510 <printAssertMsg>
ff502593:	8b 45 10             	mov    0x10(%ebp),%eax
ff502596:	89 44 24 08          	mov    %eax,0x8(%esp)
ff50259a:	8d 45 ec             	lea    -0x14(%ebp),%eax
ff50259d:	89 44 24 04          	mov    %eax,0x4(%esp)
ff5025a1:	8b 45 f4             	mov    -0xc(%ebp),%eax
ff5025a4:	89 04 24             	mov    %eax,(%esp)
ff5025a7:	e8 34 fd ff ff       	call   ff5022e0 <_readPDE>
ff5025ac:	83 f8 ff             	cmp    $0xffffffff,%eax
ff5025af:	75 18                	jne    ff5025c9 <readPTE+0xd9>
ff5025b1:	c7 04 24 bb 6d 50 ff 	movl   $0xff506dbb,(%esp)
ff5025b8:	e8 93 e1 ff ff       	call   ff500750 <kprintf>
ff5025bd:	c7 45 e8 ff ff ff ff 	movl   $0xffffffff,-0x18(%ebp)
ff5025c4:	e9 c7 00 00 00       	jmp    ff502690 <readPTE+0x1a0>
ff5025c9:	0f b6 45 ec          	movzbl -0x14(%ebp),%eax
ff5025cd:	83 e0 01             	and    $0x1,%eax
ff5025d0:	84 c0                	test   %al,%al
ff5025d2:	75 4e                	jne    ff502622 <readPTE+0x132>
ff5025d4:	8b 45 10             	mov    0x10(%ebp),%eax
ff5025d7:	89 44 24 0c          	mov    %eax,0xc(%esp)
ff5025db:	8b 45 0c             	mov    0xc(%ebp),%eax
ff5025de:	89 44 24 08          	mov    %eax,0x8(%esp)
ff5025e2:	8b 45 08             	mov    0x8(%ebp),%eax
ff5025e5:	89 44 24 04          	mov    %eax,0x4(%esp)
ff5025e9:	c7 04 24 ce 6d 50 ff 	movl   $0xff506dce,(%esp)
ff5025f0:	e8 5b e1 ff ff       	call   ff500750 <kprintf>
ff5025f5:	c7 44 24 0c d6 00 00 	movl   $0xd6,0xc(%esp)
ff5025fc:	00 
ff5025fd:	c7 44 24 08 88 6d 50 	movl   $0xff506d88,0x8(%esp)
ff502604:	ff 
ff502605:	c7 44 24 04 ee 6c 50 	movl   $0xff506cee,0x4(%esp)
ff50260c:	ff 
ff50260d:	c7 04 24 34 6d 50 ff 	movl   $0xff506d34,(%esp)
ff502614:	e8 f7 de ff ff       	call   ff500510 <printAssertMsg>
ff502619:	c7 45 e8 ff ff ff ff 	movl   $0xffffffff,-0x18(%ebp)
ff502620:	eb 6e                	jmp    ff502690 <readPTE+0x1a0>
ff502622:	8b 5d 10             	mov    0x10(%ebp),%ebx
ff502625:	e8 32 db ff ff       	call   ff50015c <getCR3>
ff50262a:	39 c3                	cmp    %eax,%ebx
ff50262c:	75 20                	jne    ff50264e <readPTE+0x15e>
ff50262e:	8b 45 08             	mov    0x8(%ebp),%eax
ff502631:	25 00 f0 ff ff       	and    $0xfffff000,%eax
ff502636:	c1 e8 0a             	shr    $0xa,%eax
ff502639:	2d 00 00 40 00       	sub    $0x400000,%eax
ff50263e:	8b 10                	mov    (%eax),%edx
ff502640:	8b 45 0c             	mov    0xc(%ebp),%eax
ff502643:	89 10                	mov    %edx,(%eax)
ff502645:	c7 45 e8 00 00 00 00 	movl   $0x0,-0x18(%ebp)
ff50264c:	eb 42                	jmp    ff502690 <readPTE+0x1a0>
ff50264e:	8b 45 ec             	mov    -0x14(%ebp),%eax
ff502651:	c1 e8 0c             	shr    $0xc,%eax
ff502654:	c1 e0 0c             	shl    $0xc,%eax
ff502657:	c7 44 24 08 02 00 00 	movl   $0x2,0x8(%esp)
ff50265e:	00 
ff50265f:	89 44 24 04          	mov    %eax,0x4(%esp)
ff502663:	c7 04 24 00 30 40 ff 	movl   $0xff403000,(%esp)
ff50266a:	e8 31 06 00 00       	call   ff502ca0 <kMapPage>
ff50266f:	8b 55 f8             	mov    -0x8(%ebp),%edx
ff502672:	8b 45 f0             	mov    -0x10(%ebp),%eax
ff502675:	8b 14 90             	mov    (%eax,%edx,4),%edx
ff502678:	8b 45 0c             	mov    0xc(%ebp),%eax
ff50267b:	89 10                	mov    %edx,(%eax)
ff50267d:	c7 04 24 00 30 40 ff 	movl   $0xff403000,(%esp)
ff502684:	e8 d7 09 00 00       	call   ff503060 <kUnmapPage>
ff502689:	c7 45 e8 00 00 00 00 	movl   $0x0,-0x18(%ebp)
ff502690:	8b 45 e8             	mov    -0x18(%ebp),%eax
ff502693:	83 c4 24             	add    $0x24,%esp
ff502696:	5b                   	pop    %ebx
ff502697:	5d                   	pop    %ebp
ff502698:	c3                   	ret    
ff502699:	8d b4 26 00 00 00 00 	lea    0x0(%esi,%eiz,1),%esi

ff5026a0 <writePTE>:
ff5026a0:	55                   	push   %ebp
ff5026a1:	89 e5                	mov    %esp,%ebp
ff5026a3:	53                   	push   %ebx
ff5026a4:	83 ec 34             	sub    $0x34,%esp
ff5026a7:	c7 45 f0 00 30 40 ff 	movl   $0xff403000,-0x10(%ebp)
ff5026ae:	8b 45 08             	mov    0x8(%ebp),%eax
ff5026b1:	c1 e8 16             	shr    $0x16,%eax
ff5026b4:	89 45 f4             	mov    %eax,-0xc(%ebp)
ff5026b7:	8b 45 08             	mov    0x8(%ebp),%eax
ff5026ba:	c1 e8 0c             	shr    $0xc,%eax
ff5026bd:	25 ff 03 00 00       	and    $0x3ff,%eax
ff5026c2:	89 45 f8             	mov    %eax,-0x8(%ebp)
ff5026c5:	83 7d 08 ff          	cmpl   $0xffffffff,0x8(%ebp)
ff5026c9:	75 24                	jne    ff5026ef <writePTE+0x4f>
ff5026cb:	c7 44 24 0c f1 00 00 	movl   $0xf1,0xc(%esp)
ff5026d2:	00 
ff5026d3:	c7 44 24 08 e7 6d 50 	movl   $0xff506de7,0x8(%esp)
ff5026da:	ff 
ff5026db:	c7 44 24 04 ee 6c 50 	movl   $0xff506cee,0x4(%esp)
ff5026e2:	ff 
ff5026e3:	c7 04 24 90 6d 50 ff 	movl   $0xff506d90,(%esp)
ff5026ea:	e8 21 de ff ff       	call   ff500510 <printAssertMsg>
ff5026ef:	83 7d 10 ff          	cmpl   $0xffffffff,0x10(%ebp)
ff5026f3:	75 24                	jne    ff502719 <writePTE+0x79>
ff5026f5:	c7 44 24 0c f2 00 00 	movl   $0xf2,0xc(%esp)
ff5026fc:	00 
ff5026fd:	c7 44 24 08 e7 6d 50 	movl   $0xff506de7,0x8(%esp)
ff502704:	ff 
ff502705:	c7 44 24 04 ee 6c 50 	movl   $0xff506cee,0x4(%esp)
ff50270c:	ff 
ff50270d:	c7 04 24 14 6d 50 ff 	movl   $0xff506d14,(%esp)
ff502714:	e8 f7 dd ff ff       	call   ff500510 <printAssertMsg>
ff502719:	83 7d 0c ff          	cmpl   $0xffffffff,0xc(%ebp)
ff50271d:	75 24                	jne    ff502743 <writePTE+0xa3>
ff50271f:	c7 44 24 0c f3 00 00 	movl   $0xf3,0xc(%esp)
ff502726:	00 
ff502727:	c7 44 24 08 e7 6d 50 	movl   $0xff506de7,0x8(%esp)
ff50272e:	ff 
ff50272f:	c7 44 24 04 ee 6c 50 	movl   $0xff506cee,0x4(%esp)
ff502736:	ff 
ff502737:	c7 04 24 a6 6d 50 ff 	movl   $0xff506da6,(%esp)
ff50273e:	e8 cd dd ff ff       	call   ff500510 <printAssertMsg>
ff502743:	8b 45 10             	mov    0x10(%ebp),%eax
ff502746:	89 44 24 08          	mov    %eax,0x8(%esp)
ff50274a:	8d 45 e8             	lea    -0x18(%ebp),%eax
ff50274d:	89 44 24 04          	mov    %eax,0x4(%esp)
ff502751:	8b 45 f4             	mov    -0xc(%ebp),%eax
ff502754:	89 04 24             	mov    %eax,(%esp)
ff502757:	e8 84 fb ff ff       	call   ff5022e0 <_readPDE>
ff50275c:	83 f8 ff             	cmp    $0xffffffff,%eax
ff50275f:	75 30                	jne    ff502791 <writePTE+0xf1>
ff502761:	c7 44 24 0c f7 00 00 	movl   $0xf7,0xc(%esp)
ff502768:	00 
ff502769:	c7 44 24 08 e7 6d 50 	movl   $0xff506de7,0x8(%esp)
ff502770:	ff 
ff502771:	c7 44 24 04 ee 6c 50 	movl   $0xff506cee,0x4(%esp)
ff502778:	ff 
ff502779:	c7 04 24 34 6d 50 ff 	movl   $0xff506d34,(%esp)
ff502780:	e8 8b dd ff ff       	call   ff500510 <printAssertMsg>
ff502785:	c7 45 d8 ff ff ff ff 	movl   $0xffffffff,-0x28(%ebp)
ff50278c:	e9 cc 00 00 00       	jmp    ff50285d <writePTE+0x1bd>
ff502791:	0f b6 45 e8          	movzbl -0x18(%ebp),%eax
ff502795:	83 e0 01             	and    $0x1,%eax
ff502798:	84 c0                	test   %al,%al
ff50279a:	75 4e                	jne    ff5027ea <writePTE+0x14a>
ff50279c:	8b 45 10             	mov    0x10(%ebp),%eax
ff50279f:	89 44 24 0c          	mov    %eax,0xc(%esp)
ff5027a3:	8b 45 0c             	mov    0xc(%ebp),%eax
ff5027a6:	89 44 24 08          	mov    %eax,0x8(%esp)
ff5027aa:	8b 45 08             	mov    0x8(%ebp),%eax
ff5027ad:	89 44 24 04          	mov    %eax,0x4(%esp)
ff5027b1:	c7 04 24 f0 6d 50 ff 	movl   $0xff506df0,(%esp)
ff5027b8:	e8 93 df ff ff       	call   ff500750 <kprintf>
ff5027bd:	c7 44 24 0c ff 00 00 	movl   $0xff,0xc(%esp)
ff5027c4:	00 
ff5027c5:	c7 44 24 08 e7 6d 50 	movl   $0xff506de7,0x8(%esp)
ff5027cc:	ff 
ff5027cd:	c7 44 24 04 ee 6c 50 	movl   $0xff506cee,0x4(%esp)
ff5027d4:	ff 
ff5027d5:	c7 04 24 34 6d 50 ff 	movl   $0xff506d34,(%esp)
ff5027dc:	e8 2f dd ff ff       	call   ff500510 <printAssertMsg>
ff5027e1:	c7 45 d8 ff ff ff ff 	movl   $0xffffffff,-0x28(%ebp)
ff5027e8:	eb 73                	jmp    ff50285d <writePTE+0x1bd>
ff5027ea:	8b 5d 10             	mov    0x10(%ebp),%ebx
ff5027ed:	e8 6a d9 ff ff       	call   ff50015c <getCR3>
ff5027f2:	39 c3                	cmp    %eax,%ebx
ff5027f4:	75 25                	jne    ff50281b <writePTE+0x17b>
ff5027f6:	8b 45 08             	mov    0x8(%ebp),%eax
ff5027f9:	25 00 f0 ff ff       	and    $0xfffff000,%eax
ff5027fe:	c1 e8 0a             	shr    $0xa,%eax
ff502801:	2d 00 00 40 00       	sub    $0x400000,%eax
ff502806:	89 45 ec             	mov    %eax,-0x14(%ebp)
ff502809:	8b 45 0c             	mov    0xc(%ebp),%eax
ff50280c:	8b 10                	mov    (%eax),%edx
ff50280e:	8b 45 ec             	mov    -0x14(%ebp),%eax
ff502811:	89 10                	mov    %edx,(%eax)
ff502813:	8b 45 08             	mov    0x8(%ebp),%eax
ff502816:	0f 01 38             	invlpg (%eax)
ff502819:	eb 3b                	jmp    ff502856 <writePTE+0x1b6>
ff50281b:	8b 45 e8             	mov    -0x18(%ebp),%eax
ff50281e:	c1 e8 0c             	shr    $0xc,%eax
ff502821:	c1 e0 0c             	shl    $0xc,%eax
ff502824:	c7 44 24 08 02 00 00 	movl   $0x2,0x8(%esp)
ff50282b:	00 
ff50282c:	89 44 24 04          	mov    %eax,0x4(%esp)
ff502830:	c7 04 24 00 30 40 ff 	movl   $0xff403000,(%esp)
ff502837:	e8 64 04 00 00       	call   ff502ca0 <kMapPage>
ff50283c:	8b 4d f8             	mov    -0x8(%ebp),%ecx
ff50283f:	8b 45 0c             	mov    0xc(%ebp),%eax
ff502842:	8b 10                	mov    (%eax),%edx
ff502844:	8b 45 f0             	mov    -0x10(%ebp),%eax
ff502847:	89 14 88             	mov    %edx,(%eax,%ecx,4)
ff50284a:	c7 04 24 00 30 40 ff 	movl   $0xff403000,(%esp)
ff502851:	e8 0a 08 00 00       	call   ff503060 <kUnmapPage>
ff502856:	c7 45 d8 00 00 00 00 	movl   $0x0,-0x28(%ebp)
ff50285d:	8b 45 d8             	mov    -0x28(%ebp),%eax
ff502860:	83 c4 34             	add    $0x34,%esp
ff502863:	5b                   	pop    %ebx
ff502864:	5d                   	pop    %ebp
ff502865:	c3                   	ret    
ff502866:	8d 76 00             	lea    0x0(%esi),%esi
ff502869:	8d bc 27 00 00 00 00 	lea    0x0(%edi,%eiz,1),%edi

ff502870 <accessMem>:
ff502870:	55                   	push   %ebp
ff502871:	89 e5                	mov    %esp,%ebp
ff502873:	83 ec 38             	sub    $0x38,%esp
ff502876:	8b 45 18             	mov    0x18(%ebp),%eax
ff502879:	88 45 ec             	mov    %al,-0x14(%ebp)
ff50287c:	c7 45 fc 00 00 00 00 	movl   $0x0,-0x4(%ebp)
ff502883:	83 7d 14 ff          	cmpl   $0xffffffff,0x14(%ebp)
ff502887:	75 24                	jne    ff5028ad <accessMem+0x3d>
ff502889:	c7 44 24 0c 1e 01 00 	movl   $0x11e,0xc(%esp)
ff502890:	00 
ff502891:	c7 44 24 08 16 6e 50 	movl   $0xff506e16,0x8(%esp)
ff502898:	ff 
ff502899:	c7 44 24 04 ee 6c 50 	movl   $0xff506cee,0x4(%esp)
ff5028a0:	ff 
ff5028a1:	c7 04 24 20 6e 50 ff 	movl   $0xff506e20,(%esp)
ff5028a8:	e8 63 dc ff ff       	call   ff500510 <printAssertMsg>
ff5028ad:	83 7d 10 00          	cmpl   $0x0,0x10(%ebp)
ff5028b1:	75 24                	jne    ff5028d7 <accessMem+0x67>
ff5028b3:	c7 44 24 0c 1f 01 00 	movl   $0x11f,0xc(%esp)
ff5028ba:	00 
ff5028bb:	c7 44 24 08 16 6e 50 	movl   $0xff506e16,0x8(%esp)
ff5028c2:	ff 
ff5028c3:	c7 44 24 04 ee 6c 50 	movl   $0xff506cee,0x4(%esp)
ff5028ca:	ff 
ff5028cb:	c7 04 24 38 6e 50 ff 	movl   $0xff506e38,(%esp)
ff5028d2:	e8 39 dc ff ff       	call   ff500510 <printAssertMsg>
ff5028d7:	83 7d 14 ff          	cmpl   $0xffffffff,0x14(%ebp)
ff5028db:	74 0a                	je     ff5028e7 <accessMem+0x77>
ff5028dd:	83 7d 10 00          	cmpl   $0x0,0x10(%ebp)
ff5028e1:	0f 85 f8 00 00 00    	jne    ff5029df <accessMem+0x16f>
ff5028e7:	c7 45 e8 ff ff ff ff 	movl   $0xffffffff,-0x18(%ebp)
ff5028ee:	e9 fd 00 00 00       	jmp    ff5029f0 <accessMem+0x180>
ff5028f3:	8b 45 14             	mov    0x14(%ebp),%eax
ff5028f6:	89 44 24 08          	mov    %eax,0x8(%esp)
ff5028fa:	8d 45 f0             	lea    -0x10(%ebp),%eax
ff5028fd:	89 44 24 04          	mov    %eax,0x4(%esp)
ff502901:	8b 45 08             	mov    0x8(%ebp),%eax
ff502904:	89 04 24             	mov    %eax,(%esp)
ff502907:	e8 e4 fb ff ff       	call   ff5024f0 <readPTE>
ff50290c:	85 c0                	test   %eax,%eax
ff50290e:	74 0c                	je     ff50291c <accessMem+0xac>
ff502910:	c7 45 e8 ff ff ff ff 	movl   $0xffffffff,-0x18(%ebp)
ff502917:	e9 d4 00 00 00       	jmp    ff5029f0 <accessMem+0x180>
ff50291c:	8b 45 08             	mov    0x8(%ebp),%eax
ff50291f:	25 ff 0f 00 00       	and    $0xfff,%eax
ff502924:	89 45 f4             	mov    %eax,-0xc(%ebp)
ff502927:	b8 00 10 00 00       	mov    $0x1000,%eax
ff50292c:	2b 45 f4             	sub    -0xc(%ebp),%eax
ff50292f:	8b 55 0c             	mov    0xc(%ebp),%edx
ff502932:	89 55 e0             	mov    %edx,-0x20(%ebp)
ff502935:	89 45 e4             	mov    %eax,-0x1c(%ebp)
ff502938:	8b 45 e0             	mov    -0x20(%ebp),%eax
ff50293b:	39 45 e4             	cmp    %eax,-0x1c(%ebp)
ff50293e:	76 06                	jbe    ff502946 <accessMem+0xd6>
ff502940:	8b 55 e0             	mov    -0x20(%ebp),%edx
ff502943:	89 55 e4             	mov    %edx,-0x1c(%ebp)
ff502946:	8b 45 e4             	mov    -0x1c(%ebp),%eax
ff502949:	89 45 f8             	mov    %eax,-0x8(%ebp)
ff50294c:	8b 45 f0             	mov    -0x10(%ebp),%eax
ff50294f:	c1 e8 0c             	shr    $0xc,%eax
ff502952:	c1 e0 0c             	shl    $0xc,%eax
ff502955:	c7 44 24 08 02 00 00 	movl   $0x2,0x8(%esp)
ff50295c:	00 
ff50295d:	89 44 24 04          	mov    %eax,0x4(%esp)
ff502961:	c7 04 24 00 30 40 ff 	movl   $0xff403000,(%esp)
ff502968:	e8 33 03 00 00       	call   ff502ca0 <kMapPage>
ff50296d:	80 7d ec 00          	cmpb   $0x0,-0x14(%ebp)
ff502971:	74 28                	je     ff50299b <accessMem+0x12b>
ff502973:	8b 45 f4             	mov    -0xc(%ebp),%eax
ff502976:	2d 00 d0 bf 00       	sub    $0xbfd000,%eax
ff50297b:	89 c1                	mov    %eax,%ecx
ff50297d:	8b 55 fc             	mov    -0x4(%ebp),%edx
ff502980:	8b 45 10             	mov    0x10(%ebp),%eax
ff502983:	8d 14 10             	lea    (%eax,%edx,1),%edx
ff502986:	8b 45 f8             	mov    -0x8(%ebp),%eax
ff502989:	89 44 24 08          	mov    %eax,0x8(%esp)
ff50298d:	89 4c 24 04          	mov    %ecx,0x4(%esp)
ff502991:	89 14 24             	mov    %edx,(%esp)
ff502994:	e8 87 ec ff ff       	call   ff501620 <memcpy>
ff502999:	eb 26                	jmp    ff5029c1 <accessMem+0x151>
ff50299b:	8b 55 fc             	mov    -0x4(%ebp),%edx
ff50299e:	8b 45 10             	mov    0x10(%ebp),%eax
ff5029a1:	8d 0c 10             	lea    (%eax,%edx,1),%ecx
ff5029a4:	8b 45 f4             	mov    -0xc(%ebp),%eax
ff5029a7:	2d 00 d0 bf 00       	sub    $0xbfd000,%eax
ff5029ac:	89 c2                	mov    %eax,%edx
ff5029ae:	8b 45 f8             	mov    -0x8(%ebp),%eax
ff5029b1:	89 44 24 08          	mov    %eax,0x8(%esp)
ff5029b5:	89 4c 24 04          	mov    %ecx,0x4(%esp)
ff5029b9:	89 14 24             	mov    %edx,(%esp)
ff5029bc:	e8 5f ec ff ff       	call   ff501620 <memcpy>
ff5029c1:	c7 04 24 00 30 40 ff 	movl   $0xff403000,(%esp)
ff5029c8:	e8 93 06 00 00       	call   ff503060 <kUnmapPage>
ff5029cd:	8b 45 f8             	mov    -0x8(%ebp),%eax
ff5029d0:	01 45 08             	add    %eax,0x8(%ebp)
ff5029d3:	8b 45 f8             	mov    -0x8(%ebp),%eax
ff5029d6:	01 45 fc             	add    %eax,-0x4(%ebp)
ff5029d9:	8b 45 f8             	mov    -0x8(%ebp),%eax
ff5029dc:	29 45 0c             	sub    %eax,0xc(%ebp)
ff5029df:	83 7d 0c 00          	cmpl   $0x0,0xc(%ebp)
ff5029e3:	0f 85 0a ff ff ff    	jne    ff5028f3 <accessMem+0x83>
ff5029e9:	c7 45 e8 00 00 00 00 	movl   $0x0,-0x18(%ebp)
ff5029f0:	8b 45 e8             	mov    -0x18(%ebp),%eax
ff5029f3:	c9                   	leave  
ff5029f4:	c3                   	ret    
ff5029f5:	8d 74 26 00          	lea    0x0(%esi,%eiz,1),%esi
ff5029f9:	8d bc 27 00 00 00 00 	lea    0x0(%edi,%eiz,1),%edi

ff502a00 <pokeMem>:
ff502a00:	55                   	push   %ebp
ff502a01:	89 e5                	mov    %esp,%ebp
ff502a03:	53                   	push   %ebx
ff502a04:	83 ec 24             	sub    $0x24,%esp
ff502a07:	8b 5d 14             	mov    0x14(%ebp),%ebx
ff502a0a:	e8 4d d7 ff ff       	call   ff50015c <getCR3>
ff502a0f:	39 c3                	cmp    %eax,%ebx
ff502a11:	75 22                	jne    ff502a35 <pokeMem+0x35>
ff502a13:	8b 45 0c             	mov    0xc(%ebp),%eax
ff502a16:	89 44 24 08          	mov    %eax,0x8(%esp)
ff502a1a:	8b 45 10             	mov    0x10(%ebp),%eax
ff502a1d:	89 44 24 04          	mov    %eax,0x4(%esp)
ff502a21:	8b 45 08             	mov    0x8(%ebp),%eax
ff502a24:	89 04 24             	mov    %eax,(%esp)
ff502a27:	e8 f4 eb ff ff       	call   ff501620 <memcpy>
ff502a2c:	c7 45 f8 00 00 00 00 	movl   $0x0,-0x8(%ebp)
ff502a33:	eb 2b                	jmp    ff502a60 <pokeMem+0x60>
ff502a35:	c7 44 24 10 00 00 00 	movl   $0x0,0x10(%esp)
ff502a3c:	00 
ff502a3d:	8b 45 14             	mov    0x14(%ebp),%eax
ff502a40:	89 44 24 0c          	mov    %eax,0xc(%esp)
ff502a44:	8b 45 10             	mov    0x10(%ebp),%eax
ff502a47:	89 44 24 08          	mov    %eax,0x8(%esp)
ff502a4b:	8b 45 0c             	mov    0xc(%ebp),%eax
ff502a4e:	89 44 24 04          	mov    %eax,0x4(%esp)
ff502a52:	8b 45 08             	mov    0x8(%ebp),%eax
ff502a55:	89 04 24             	mov    %eax,(%esp)
ff502a58:	e8 13 fe ff ff       	call   ff502870 <accessMem>
ff502a5d:	89 45 f8             	mov    %eax,-0x8(%ebp)
ff502a60:	8b 45 f8             	mov    -0x8(%ebp),%eax
ff502a63:	83 c4 24             	add    $0x24,%esp
ff502a66:	5b                   	pop    %ebx
ff502a67:	5d                   	pop    %ebp
ff502a68:	c3                   	ret    
ff502a69:	8d b4 26 00 00 00 00 	lea    0x0(%esi,%eiz,1),%esi

ff502a70 <peekMem>:
ff502a70:	55                   	push   %ebp
ff502a71:	89 e5                	mov    %esp,%ebp
ff502a73:	53                   	push   %ebx
ff502a74:	83 ec 24             	sub    $0x24,%esp
ff502a77:	8b 5d 14             	mov    0x14(%ebp),%ebx
ff502a7a:	e8 dd d6 ff ff       	call   ff50015c <getCR3>
ff502a7f:	39 c3                	cmp    %eax,%ebx
ff502a81:	75 22                	jne    ff502aa5 <peekMem+0x35>
ff502a83:	8b 45 0c             	mov    0xc(%ebp),%eax
ff502a86:	89 44 24 08          	mov    %eax,0x8(%esp)
ff502a8a:	8b 45 08             	mov    0x8(%ebp),%eax
ff502a8d:	89 44 24 04          	mov    %eax,0x4(%esp)
ff502a91:	8b 45 10             	mov    0x10(%ebp),%eax
ff502a94:	89 04 24             	mov    %eax,(%esp)
ff502a97:	e8 84 eb ff ff       	call   ff501620 <memcpy>
ff502a9c:	c7 45 f8 00 00 00 00 	movl   $0x0,-0x8(%ebp)
ff502aa3:	eb 2b                	jmp    ff502ad0 <peekMem+0x60>
ff502aa5:	c7 44 24 10 01 00 00 	movl   $0x1,0x10(%esp)
ff502aac:	00 
ff502aad:	8b 45 14             	mov    0x14(%ebp),%eax
ff502ab0:	89 44 24 0c          	mov    %eax,0xc(%esp)
ff502ab4:	8b 45 10             	mov    0x10(%ebp),%eax
ff502ab7:	89 44 24 08          	mov    %eax,0x8(%esp)
ff502abb:	8b 45 0c             	mov    0xc(%ebp),%eax
ff502abe:	89 44 24 04          	mov    %eax,0x4(%esp)
ff502ac2:	8b 45 08             	mov    0x8(%ebp),%eax
ff502ac5:	89 04 24             	mov    %eax,(%esp)
ff502ac8:	e8 a3 fd ff ff       	call   ff502870 <accessMem>
ff502acd:	89 45 f8             	mov    %eax,-0x8(%ebp)
ff502ad0:	8b 45 f8             	mov    -0x8(%ebp),%eax
ff502ad3:	83 c4 24             	add    $0x24,%esp
ff502ad6:	5b                   	pop    %ebx
ff502ad7:	5d                   	pop    %ebp
ff502ad8:	c3                   	ret    
ff502ad9:	8d b4 26 00 00 00 00 	lea    0x0(%esi,%eiz,1),%esi

ff502ae0 <mapPageTable>:
ff502ae0:	55                   	push   %ebp
ff502ae1:	89 e5                	mov    %esp,%ebp
ff502ae3:	83 ec 38             	sub    $0x38,%esp
ff502ae6:	8d 45 f0             	lea    -0x10(%ebp),%eax
ff502ae9:	89 45 f4             	mov    %eax,-0xc(%ebp)
ff502aec:	83 7d 08 ff          	cmpl   $0xffffffff,0x8(%ebp)
ff502af0:	75 24                	jne    ff502b16 <mapPageTable+0x36>
ff502af2:	c7 44 24 0c 6c 01 00 	movl   $0x16c,0xc(%esp)
ff502af9:	00 
ff502afa:	c7 44 24 08 47 6e 50 	movl   $0xff506e47,0x8(%esp)
ff502b01:	ff 
ff502b02:	c7 44 24 04 ee 6c 50 	movl   $0xff506cee,0x4(%esp)
ff502b09:	ff 
ff502b0a:	c7 04 24 43 6d 50 ff 	movl   $0xff506d43,(%esp)
ff502b11:	e8 fa d9 ff ff       	call   ff500510 <printAssertMsg>
ff502b16:	83 7d 0c ff          	cmpl   $0xffffffff,0xc(%ebp)
ff502b1a:	75 24                	jne    ff502b40 <mapPageTable+0x60>
ff502b1c:	c7 44 24 0c 6d 01 00 	movl   $0x16d,0xc(%esp)
ff502b23:	00 
ff502b24:	c7 44 24 08 47 6e 50 	movl   $0xff506e47,0x8(%esp)
ff502b2b:	ff 
ff502b2c:	c7 44 24 04 ee 6c 50 	movl   $0xff506cee,0x4(%esp)
ff502b33:	ff 
ff502b34:	c7 04 24 54 6e 50 ff 	movl   $0xff506e54,(%esp)
ff502b3b:	e8 d0 d9 ff ff       	call   ff500510 <printAssertMsg>
ff502b40:	83 7d 08 ff          	cmpl   $0xffffffff,0x8(%ebp)
ff502b44:	74 06                	je     ff502b4c <mapPageTable+0x6c>
ff502b46:	83 7d 0c ff          	cmpl   $0xffffffff,0xc(%ebp)
ff502b4a:	75 40                	jne    ff502b8c <mapPageTable+0xac>
ff502b4c:	c7 44 24 14 6f 6e 50 	movl   $0xff506e6f,0x14(%esp)
ff502b53:	ff 
ff502b54:	c7 44 24 10 ff ff ff 	movl   $0xffffffff,0x10(%esp)
ff502b5b:	ff 
ff502b5c:	c7 44 24 0c 70 01 00 	movl   $0x170,0xc(%esp)
ff502b63:	00 
ff502b64:	c7 44 24 08 47 6e 50 	movl   $0xff506e47,0x8(%esp)
ff502b6b:	ff 
ff502b6c:	c7 44 24 04 ee 6c 50 	movl   $0xff506cee,0x4(%esp)
ff502b73:	ff 
ff502b74:	c7 04 24 78 6e 50 ff 	movl   $0xff506e78,(%esp)
ff502b7b:	e8 d0 db ff ff       	call   ff500750 <kprintf>
ff502b80:	c7 45 ec ff ff ff ff 	movl   $0xffffffff,-0x14(%ebp)
ff502b87:	e9 02 01 00 00       	jmp    ff502c8e <mapPageTable+0x1ae>
ff502b8c:	e8 cb d5 ff ff       	call   ff50015c <getCR3>
ff502b91:	89 45 fc             	mov    %eax,-0x4(%ebp)
ff502b94:	8b 45 14             	mov    0x14(%ebp),%eax
ff502b97:	3b 45 fc             	cmp    -0x4(%ebp),%eax
ff502b9a:	75 15                	jne    ff502bb1 <mapPageTable+0xd1>
ff502b9c:	8b 45 08             	mov    0x8(%ebp),%eax
ff502b9f:	25 00 00 c0 ff       	and    $0xffc00000,%eax
ff502ba4:	c1 e8 14             	shr    $0x14,%eax
ff502ba7:	2d 00 10 00 00       	sub    $0x1000,%eax
ff502bac:	89 45 f4             	mov    %eax,-0xc(%ebp)
ff502baf:	eb 4e                	jmp    ff502bff <mapPageTable+0x11f>
ff502bb1:	8b 45 14             	mov    0x14(%ebp),%eax
ff502bb4:	89 44 24 08          	mov    %eax,0x8(%esp)
ff502bb8:	8b 45 f4             	mov    -0xc(%ebp),%eax
ff502bbb:	89 44 24 04          	mov    %eax,0x4(%esp)
ff502bbf:	8b 45 08             	mov    0x8(%ebp),%eax
ff502bc2:	89 04 24             	mov    %eax,(%esp)
ff502bc5:	e8 46 f8 ff ff       	call   ff502410 <readPDE>
ff502bca:	83 f8 ff             	cmp    $0xffffffff,%eax
ff502bcd:	75 30                	jne    ff502bff <mapPageTable+0x11f>
ff502bcf:	c7 44 24 0c 7a 01 00 	movl   $0x17a,0xc(%esp)
ff502bd6:	00 
ff502bd7:	c7 44 24 08 47 6e 50 	movl   $0xff506e47,0x8(%esp)
ff502bde:	ff 
ff502bdf:	c7 44 24 04 ee 6c 50 	movl   $0xff506cee,0x4(%esp)
ff502be6:	ff 
ff502be7:	c7 04 24 34 6d 50 ff 	movl   $0xff506d34,(%esp)
ff502bee:	e8 1d d9 ff ff       	call   ff500510 <printAssertMsg>
ff502bf3:	c7 45 ec ff ff ff ff 	movl   $0xffffffff,-0x14(%ebp)
ff502bfa:	e9 8f 00 00 00       	jmp    ff502c8e <mapPageTable+0x1ae>
ff502bff:	8b 45 f4             	mov    -0xc(%ebp),%eax
ff502c02:	0f b6 00             	movzbl (%eax),%eax
ff502c05:	83 e0 01             	and    $0x1,%eax
ff502c08:	84 c0                	test   %al,%al
ff502c0a:	75 3d                	jne    ff502c49 <mapPageTable+0x169>
ff502c0c:	8b 55 f4             	mov    -0xc(%ebp),%edx
ff502c0f:	8b 45 0c             	mov    0xc(%ebp),%eax
ff502c12:	0b 45 10             	or     0x10(%ebp),%eax
ff502c15:	83 c8 01             	or     $0x1,%eax
ff502c18:	89 02                	mov    %eax,(%edx)
ff502c1a:	8b 45 14             	mov    0x14(%ebp),%eax
ff502c1d:	89 44 24 08          	mov    %eax,0x8(%esp)
ff502c21:	8b 45 f4             	mov    -0xc(%ebp),%eax
ff502c24:	89 44 24 04          	mov    %eax,0x4(%esp)
ff502c28:	8b 45 08             	mov    0x8(%ebp),%eax
ff502c2b:	89 04 24             	mov    %eax,(%esp)
ff502c2e:	e8 0d f6 ff ff       	call   ff502240 <writePDE>
ff502c33:	8b 45 14             	mov    0x14(%ebp),%eax
ff502c36:	3b 45 fc             	cmp    -0x4(%ebp),%eax
ff502c39:	75 05                	jne    ff502c40 <mapPageTable+0x160>
ff502c3b:	e8 a0 f4 ff ff       	call   ff5020e0 <reload_cr3>
ff502c40:	c7 45 ec 00 00 00 00 	movl   $0x0,-0x14(%ebp)
ff502c47:	eb 45                	jmp    ff502c8e <mapPageTable+0x1ae>
ff502c49:	8b 45 14             	mov    0x14(%ebp),%eax
ff502c4c:	89 44 24 08          	mov    %eax,0x8(%esp)
ff502c50:	8b 45 08             	mov    0x8(%ebp),%eax
ff502c53:	89 44 24 04          	mov    %eax,0x4(%esp)
ff502c57:	c7 04 24 94 6e 50 ff 	movl   $0xff506e94,(%esp)
ff502c5e:	e8 ed da ff ff       	call   ff500750 <kprintf>
ff502c63:	c7 44 24 0c 95 01 00 	movl   $0x195,0xc(%esp)
ff502c6a:	00 
ff502c6b:	c7 44 24 08 47 6e 50 	movl   $0xff506e47,0x8(%esp)
ff502c72:	ff 
ff502c73:	c7 44 24 04 ee 6c 50 	movl   $0xff506cee,0x4(%esp)
ff502c7a:	ff 
ff502c7b:	c7 04 24 34 6d 50 ff 	movl   $0xff506d34,(%esp)
ff502c82:	e8 89 d8 ff ff       	call   ff500510 <printAssertMsg>
ff502c87:	c7 45 ec ff ff ff ff 	movl   $0xffffffff,-0x14(%ebp)
ff502c8e:	8b 45 ec             	mov    -0x14(%ebp),%eax
ff502c91:	c9                   	leave  
ff502c92:	c3                   	ret    
ff502c93:	8d b6 00 00 00 00    	lea    0x0(%esi),%esi
ff502c99:	8d bc 27 00 00 00 00 	lea    0x0(%edi,%eiz,1),%edi

ff502ca0 <kMapPage>:
ff502ca0:	55                   	push   %ebp
ff502ca1:	89 e5                	mov    %esp,%ebp
ff502ca3:	83 ec 28             	sub    $0x28,%esp
ff502ca6:	83 7d 08 ff          	cmpl   $0xffffffff,0x8(%ebp)
ff502caa:	75 24                	jne    ff502cd0 <kMapPage+0x30>
ff502cac:	c7 44 24 0c a0 01 00 	movl   $0x1a0,0xc(%esp)
ff502cb3:	00 
ff502cb4:	c7 44 24 08 be 6e 50 	movl   $0xff506ebe,0x8(%esp)
ff502cbb:	ff 
ff502cbc:	c7 44 24 04 ee 6c 50 	movl   $0xff506cee,0x4(%esp)
ff502cc3:	ff 
ff502cc4:	c7 04 24 43 6d 50 ff 	movl   $0xff506d43,(%esp)
ff502ccb:	e8 40 d8 ff ff       	call   ff500510 <printAssertMsg>
ff502cd0:	83 7d 0c ff          	cmpl   $0xffffffff,0xc(%ebp)
ff502cd4:	75 24                	jne    ff502cfa <kMapPage+0x5a>
ff502cd6:	c7 44 24 0c a1 01 00 	movl   $0x1a1,0xc(%esp)
ff502cdd:	00 
ff502cde:	c7 44 24 08 be 6e 50 	movl   $0xff506ebe,0x8(%esp)
ff502ce5:	ff 
ff502ce6:	c7 44 24 04 ee 6c 50 	movl   $0xff506cee,0x4(%esp)
ff502ced:	ff 
ff502cee:	c7 04 24 54 6e 50 ff 	movl   $0xff506e54,(%esp)
ff502cf5:	e8 16 d8 ff ff       	call   ff500510 <printAssertMsg>
ff502cfa:	8b 45 0c             	mov    0xc(%ebp),%eax
ff502cfd:	8b 55 0c             	mov    0xc(%ebp),%edx
ff502d00:	81 e2 00 f0 ff ff    	and    $0xfffff000,%edx
ff502d06:	39 d0                	cmp    %edx,%eax
ff502d08:	74 13                	je     ff502d1d <kMapPage+0x7d>
ff502d0a:	8b 45 0c             	mov    0xc(%ebp),%eax
ff502d0d:	89 44 24 04          	mov    %eax,0x4(%esp)
ff502d11:	c7 04 24 c7 6e 50 ff 	movl   $0xff506ec7,(%esp)
ff502d18:	e8 33 da ff ff       	call   ff500750 <kprintf>
ff502d1d:	8b 45 0c             	mov    0xc(%ebp),%eax
ff502d20:	8b 55 0c             	mov    0xc(%ebp),%edx
ff502d23:	81 e2 00 f0 ff ff    	and    $0xfffff000,%edx
ff502d29:	39 d0                	cmp    %edx,%eax
ff502d2b:	74 24                	je     ff502d51 <kMapPage+0xb1>
ff502d2d:	c7 44 24 0c ad 01 00 	movl   $0x1ad,0xc(%esp)
ff502d34:	00 
ff502d35:	c7 44 24 08 be 6e 50 	movl   $0xff506ebe,0x8(%esp)
ff502d3c:	ff 
ff502d3d:	c7 44 24 04 ee 6c 50 	movl   $0xff506cee,0x4(%esp)
ff502d44:	ff 
ff502d45:	c7 04 24 d4 6e 50 ff 	movl   $0xff506ed4,(%esp)
ff502d4c:	e8 bf d7 ff ff       	call   ff500510 <printAssertMsg>
ff502d51:	8b 45 08             	mov    0x8(%ebp),%eax
ff502d54:	25 00 00 c0 ff       	and    $0xffc00000,%eax
ff502d59:	c1 e8 14             	shr    $0x14,%eax
ff502d5c:	2d 00 10 00 00       	sub    $0x1000,%eax
ff502d61:	89 45 f8             	mov    %eax,-0x8(%ebp)
ff502d64:	8b 45 08             	mov    0x8(%ebp),%eax
ff502d67:	25 00 f0 ff ff       	and    $0xfffff000,%eax
ff502d6c:	c1 e8 0a             	shr    $0xa,%eax
ff502d6f:	2d 00 00 40 00       	sub    $0x400000,%eax
ff502d74:	89 45 fc             	mov    %eax,-0x4(%ebp)
ff502d77:	8b 45 f8             	mov    -0x8(%ebp),%eax
ff502d7a:	0f b6 00             	movzbl (%eax),%eax
ff502d7d:	83 e0 01             	and    $0x1,%eax
ff502d80:	84 c0                	test   %al,%al
ff502d82:	75 47                	jne    ff502dcb <kMapPage+0x12b>
ff502d84:	8b 45 0c             	mov    0xc(%ebp),%eax
ff502d87:	89 44 24 08          	mov    %eax,0x8(%esp)
ff502d8b:	8b 45 08             	mov    0x8(%ebp),%eax
ff502d8e:	89 44 24 04          	mov    %eax,0x4(%esp)
ff502d92:	c7 04 24 f6 6e 50 ff 	movl   $0xff506ef6,(%esp)
ff502d99:	e8 b2 d9 ff ff       	call   ff500750 <kprintf>
ff502d9e:	c7 44 24 0c b5 01 00 	movl   $0x1b5,0xc(%esp)
ff502da5:	00 
ff502da6:	c7 44 24 08 be 6e 50 	movl   $0xff506ebe,0x8(%esp)
ff502dad:	ff 
ff502dae:	c7 44 24 04 ee 6c 50 	movl   $0xff506cee,0x4(%esp)
ff502db5:	ff 
ff502db6:	c7 04 24 34 6d 50 ff 	movl   $0xff506d34,(%esp)
ff502dbd:	e8 4e d7 ff ff       	call   ff500510 <printAssertMsg>
ff502dc2:	c7 45 ec ff ff ff ff 	movl   $0xffffffff,-0x14(%ebp)
ff502dc9:	eb 1b                	jmp    ff502de6 <kMapPage+0x146>
ff502dcb:	8b 55 fc             	mov    -0x4(%ebp),%edx
ff502dce:	8b 45 0c             	mov    0xc(%ebp),%eax
ff502dd1:	0b 45 10             	or     0x10(%ebp),%eax
ff502dd4:	83 c8 01             	or     $0x1,%eax
ff502dd7:	89 02                	mov    %eax,(%edx)
ff502dd9:	8b 45 08             	mov    0x8(%ebp),%eax
ff502ddc:	0f 01 38             	invlpg (%eax)
ff502ddf:	c7 45 ec 00 00 00 00 	movl   $0x0,-0x14(%ebp)
ff502de6:	8b 45 ec             	mov    -0x14(%ebp),%eax
ff502de9:	c9                   	leave  
ff502dea:	c3                   	ret    
ff502deb:	90                   	nop    
ff502dec:	8d 74 26 00          	lea    0x0(%esi,%eiz,1),%esi

ff502df0 <mapPage>:
ff502df0:	55                   	push   %ebp
ff502df1:	89 e5                	mov    %esp,%ebp
ff502df3:	83 ec 38             	sub    $0x38,%esp
ff502df6:	8d 45 ec             	lea    -0x14(%ebp),%eax
ff502df9:	89 45 f0             	mov    %eax,-0x10(%ebp)
ff502dfc:	8d 45 e8             	lea    -0x18(%ebp),%eax
ff502dff:	89 45 f4             	mov    %eax,-0xc(%ebp)
ff502e02:	83 7d 08 ff          	cmpl   $0xffffffff,0x8(%ebp)
ff502e06:	75 24                	jne    ff502e2c <mapPage+0x3c>
ff502e08:	c7 44 24 0c c9 01 00 	movl   $0x1c9,0xc(%esp)
ff502e0f:	00 
ff502e10:	c7 44 24 08 00 6f 50 	movl   $0xff506f00,0x8(%esp)
ff502e17:	ff 
ff502e18:	c7 44 24 04 ee 6c 50 	movl   $0xff506cee,0x4(%esp)
ff502e1f:	ff 
ff502e20:	c7 04 24 43 6d 50 ff 	movl   $0xff506d43,(%esp)
ff502e27:	e8 e4 d6 ff ff       	call   ff500510 <printAssertMsg>
ff502e2c:	83 7d 0c ff          	cmpl   $0xffffffff,0xc(%ebp)
ff502e30:	75 24                	jne    ff502e56 <mapPage+0x66>
ff502e32:	c7 44 24 0c cb 01 00 	movl   $0x1cb,0xc(%esp)
ff502e39:	00 
ff502e3a:	c7 44 24 08 00 6f 50 	movl   $0xff506f00,0x8(%esp)
ff502e41:	ff 
ff502e42:	c7 44 24 04 ee 6c 50 	movl   $0xff506cee,0x4(%esp)
ff502e49:	ff 
ff502e4a:	c7 04 24 54 6e 50 ff 	movl   $0xff506e54,(%esp)
ff502e51:	e8 ba d6 ff ff       	call   ff500510 <printAssertMsg>
ff502e56:	8b 45 0c             	mov    0xc(%ebp),%eax
ff502e59:	8b 55 0c             	mov    0xc(%ebp),%edx
ff502e5c:	81 e2 00 f0 ff ff    	and    $0xfffff000,%edx
ff502e62:	39 d0                	cmp    %edx,%eax
ff502e64:	74 24                	je     ff502e8a <mapPage+0x9a>
ff502e66:	c7 44 24 0c cd 01 00 	movl   $0x1cd,0xc(%esp)
ff502e6d:	00 
ff502e6e:	c7 44 24 08 00 6f 50 	movl   $0xff506f00,0x8(%esp)
ff502e75:	ff 
ff502e76:	c7 44 24 04 ee 6c 50 	movl   $0xff506cee,0x4(%esp)
ff502e7d:	ff 
ff502e7e:	c7 04 24 d4 6e 50 ff 	movl   $0xff506ed4,(%esp)
ff502e85:	e8 86 d6 ff ff       	call   ff500510 <printAssertMsg>
ff502e8a:	8b 45 0c             	mov    0xc(%ebp),%eax
ff502e8d:	8b 55 0c             	mov    0xc(%ebp),%edx
ff502e90:	81 e2 00 f0 ff ff    	and    $0xfffff000,%edx
ff502e96:	39 d0                	cmp    %edx,%eax
ff502e98:	74 0c                	je     ff502ea6 <mapPage+0xb6>
ff502e9a:	c7 04 24 08 6f 50 ff 	movl   $0xff506f08,(%esp)
ff502ea1:	e8 aa d8 ff ff       	call   ff500750 <kprintf>
ff502ea6:	83 7d 08 ff          	cmpl   $0xffffffff,0x8(%ebp)
ff502eaa:	74 06                	je     ff502eb2 <mapPage+0xc2>
ff502eac:	83 7d 0c ff          	cmpl   $0xffffffff,0xc(%ebp)
ff502eb0:	75 18                	jne    ff502eca <mapPage+0xda>
ff502eb2:	c7 04 24 1e 6f 50 ff 	movl   $0xff506f1e,(%esp)
ff502eb9:	e8 92 d8 ff ff       	call   ff500750 <kprintf>
ff502ebe:	c7 45 dc ff ff ff ff 	movl   $0xffffffff,-0x24(%ebp)
ff502ec5:	e9 86 01 00 00       	jmp    ff503050 <mapPage+0x260>
ff502eca:	e8 8d d2 ff ff       	call   ff50015c <getCR3>
ff502ecf:	89 45 fc             	mov    %eax,-0x4(%ebp)
ff502ed2:	8b 45 14             	mov    0x14(%ebp),%eax
ff502ed5:	3b 45 fc             	cmp    -0x4(%ebp),%eax
ff502ed8:	75 28                	jne    ff502f02 <mapPage+0x112>
ff502eda:	8b 45 08             	mov    0x8(%ebp),%eax
ff502edd:	25 00 00 c0 ff       	and    $0xffc00000,%eax
ff502ee2:	c1 e8 14             	shr    $0x14,%eax
ff502ee5:	2d 00 10 00 00       	sub    $0x1000,%eax
ff502eea:	89 45 f0             	mov    %eax,-0x10(%ebp)
ff502eed:	8b 45 08             	mov    0x8(%ebp),%eax
ff502ef0:	25 00 f0 ff ff       	and    $0xfffff000,%eax
ff502ef5:	c1 e8 0a             	shr    $0xa,%eax
ff502ef8:	2d 00 00 40 00       	sub    $0x400000,%eax
ff502efd:	89 45 f4             	mov    %eax,-0xc(%ebp)
ff502f00:	eb 4e                	jmp    ff502f50 <mapPage+0x160>
ff502f02:	8b 45 14             	mov    0x14(%ebp),%eax
ff502f05:	89 44 24 08          	mov    %eax,0x8(%esp)
ff502f09:	8b 45 f0             	mov    -0x10(%ebp),%eax
ff502f0c:	89 44 24 04          	mov    %eax,0x4(%esp)
ff502f10:	8b 45 08             	mov    0x8(%ebp),%eax
ff502f13:	89 04 24             	mov    %eax,(%esp)
ff502f16:	e8 f5 f4 ff ff       	call   ff502410 <readPDE>
ff502f1b:	83 f8 ff             	cmp    $0xffffffff,%eax
ff502f1e:	75 30                	jne    ff502f50 <mapPage+0x160>
ff502f20:	c7 44 24 0c e3 01 00 	movl   $0x1e3,0xc(%esp)
ff502f27:	00 
ff502f28:	c7 44 24 08 00 6f 50 	movl   $0xff506f00,0x8(%esp)
ff502f2f:	ff 
ff502f30:	c7 44 24 04 ee 6c 50 	movl   $0xff506cee,0x4(%esp)
ff502f37:	ff 
ff502f38:	c7 04 24 34 6d 50 ff 	movl   $0xff506d34,(%esp)
ff502f3f:	e8 cc d5 ff ff       	call   ff500510 <printAssertMsg>
ff502f44:	c7 45 dc ff ff ff ff 	movl   $0xffffffff,-0x24(%ebp)
ff502f4b:	e9 00 01 00 00       	jmp    ff503050 <mapPage+0x260>
ff502f50:	8b 45 f0             	mov    -0x10(%ebp),%eax
ff502f53:	0f b6 00             	movzbl (%eax),%eax
ff502f56:	83 e0 01             	and    $0x1,%eax
ff502f59:	84 c0                	test   %al,%al
ff502f5b:	75 30                	jne    ff502f8d <mapPage+0x19d>
ff502f5d:	c7 44 24 0c ea 01 00 	movl   $0x1ea,0xc(%esp)
ff502f64:	00 
ff502f65:	c7 44 24 08 00 6f 50 	movl   $0xff506f00,0x8(%esp)
ff502f6c:	ff 
ff502f6d:	c7 44 24 04 ee 6c 50 	movl   $0xff506cee,0x4(%esp)
ff502f74:	ff 
ff502f75:	c7 04 24 34 6d 50 ff 	movl   $0xff506d34,(%esp)
ff502f7c:	e8 8f d5 ff ff       	call   ff500510 <printAssertMsg>
ff502f81:	c7 45 dc ff ff ff ff 	movl   $0xffffffff,-0x24(%ebp)
ff502f88:	e9 c3 00 00 00       	jmp    ff503050 <mapPage+0x260>
ff502f8d:	8b 45 fc             	mov    -0x4(%ebp),%eax
ff502f90:	3b 45 14             	cmp    0x14(%ebp),%eax
ff502f93:	74 4a                	je     ff502fdf <mapPage+0x1ef>
ff502f95:	8b 45 14             	mov    0x14(%ebp),%eax
ff502f98:	89 44 24 08          	mov    %eax,0x8(%esp)
ff502f9c:	8b 45 f4             	mov    -0xc(%ebp),%eax
ff502f9f:	89 44 24 04          	mov    %eax,0x4(%esp)
ff502fa3:	8b 45 08             	mov    0x8(%ebp),%eax
ff502fa6:	89 04 24             	mov    %eax,(%esp)
ff502fa9:	e8 42 f5 ff ff       	call   ff5024f0 <readPTE>
ff502fae:	85 c0                	test   %eax,%eax
ff502fb0:	79 2d                	jns    ff502fdf <mapPage+0x1ef>
ff502fb2:	c7 44 24 0c f4 01 00 	movl   $0x1f4,0xc(%esp)
ff502fb9:	00 
ff502fba:	c7 44 24 08 00 6f 50 	movl   $0xff506f00,0x8(%esp)
ff502fc1:	ff 
ff502fc2:	c7 44 24 04 ee 6c 50 	movl   $0xff506cee,0x4(%esp)
ff502fc9:	ff 
ff502fca:	c7 04 24 34 6d 50 ff 	movl   $0xff506d34,(%esp)
ff502fd1:	e8 3a d5 ff ff       	call   ff500510 <printAssertMsg>
ff502fd6:	c7 45 dc ff ff ff ff 	movl   $0xffffffff,-0x24(%ebp)
ff502fdd:	eb 71                	jmp    ff503050 <mapPage+0x260>
ff502fdf:	8b 55 f4             	mov    -0xc(%ebp),%edx
ff502fe2:	8b 45 0c             	mov    0xc(%ebp),%eax
ff502fe5:	0b 45 10             	or     0x10(%ebp),%eax
ff502fe8:	83 c8 01             	or     $0x1,%eax
ff502feb:	89 02                	mov    %eax,(%edx)
ff502fed:	8b 45 fc             	mov    -0x4(%ebp),%eax
ff502ff0:	3b 45 14             	cmp    0x14(%ebp),%eax
ff502ff3:	75 3b                	jne    ff503030 <mapPage+0x240>
ff502ff5:	8b 45 08             	mov    0x8(%ebp),%eax
ff502ff8:	0f 01 38             	invlpg (%eax)
ff502ffb:	8b 45 f4             	mov    -0xc(%ebp),%eax
ff502ffe:	8b 00                	mov    (%eax),%eax
ff503000:	83 e0 01             	and    $0x1,%eax
ff503003:	83 f0 01             	xor    $0x1,%eax
ff503006:	84 c0                	test   %al,%al
ff503008:	74 3f                	je     ff503049 <mapPage+0x259>
ff50300a:	c7 44 24 0c fe 01 00 	movl   $0x1fe,0xc(%esp)
ff503011:	00 
ff503012:	c7 44 24 08 00 6f 50 	movl   $0xff506f00,0x8(%esp)
ff503019:	ff 
ff50301a:	c7 44 24 04 ee 6c 50 	movl   $0xff506cee,0x4(%esp)
ff503021:	ff 
ff503022:	c7 04 24 33 6f 50 ff 	movl   $0xff506f33,(%esp)
ff503029:	e8 e2 d4 ff ff       	call   ff500510 <printAssertMsg>
ff50302e:	eb 19                	jmp    ff503049 <mapPage+0x259>
ff503030:	8b 45 14             	mov    0x14(%ebp),%eax
ff503033:	89 44 24 08          	mov    %eax,0x8(%esp)
ff503037:	8b 45 f4             	mov    -0xc(%ebp),%eax
ff50303a:	89 44 24 04          	mov    %eax,0x4(%esp)
ff50303e:	8b 45 08             	mov    0x8(%ebp),%eax
ff503041:	89 04 24             	mov    %eax,(%esp)
ff503044:	e8 57 f6 ff ff       	call   ff5026a0 <writePTE>
ff503049:	c7 45 dc 00 00 00 00 	movl   $0x0,-0x24(%ebp)
ff503050:	8b 45 dc             	mov    -0x24(%ebp),%eax
ff503053:	c9                   	leave  
ff503054:	c3                   	ret    
ff503055:	8d 74 26 00          	lea    0x0(%esi,%eiz,1),%esi
ff503059:	8d bc 27 00 00 00 00 	lea    0x0(%edi,%eiz,1),%edi

ff503060 <kUnmapPage>:
ff503060:	55                   	push   %ebp
ff503061:	89 e5                	mov    %esp,%ebp
ff503063:	83 ec 28             	sub    $0x28,%esp
ff503066:	8b 45 08             	mov    0x8(%ebp),%eax
ff503069:	25 00 f0 ff ff       	and    $0xfffff000,%eax
ff50306e:	c1 e8 0a             	shr    $0xa,%eax
ff503071:	2d 00 00 40 00       	sub    $0x400000,%eax
ff503076:	89 45 f4             	mov    %eax,-0xc(%ebp)
ff503079:	8b 45 08             	mov    0x8(%ebp),%eax
ff50307c:	25 00 00 c0 ff       	and    $0xffc00000,%eax
ff503081:	c1 e8 14             	shr    $0x14,%eax
ff503084:	2d 00 10 00 00       	sub    $0x1000,%eax
ff503089:	89 45 f8             	mov    %eax,-0x8(%ebp)
ff50308c:	8b 45 f8             	mov    -0x8(%ebp),%eax
ff50308f:	0f b6 00             	movzbl (%eax),%eax
ff503092:	83 e0 01             	and    $0x1,%eax
ff503095:	84 c0                	test   %al,%al
ff503097:	74 0d                	je     ff5030a6 <kUnmapPage+0x46>
ff503099:	8b 45 f4             	mov    -0xc(%ebp),%eax
ff50309c:	0f b6 00             	movzbl (%eax),%eax
ff50309f:	83 e0 01             	and    $0x1,%eax
ff5030a2:	84 c0                	test   %al,%al
ff5030a4:	75 24                	jne    ff5030ca <kUnmapPage+0x6a>
ff5030a6:	c7 44 24 0c 17 02 00 	movl   $0x217,0xc(%esp)
ff5030ad:	00 
ff5030ae:	c7 44 24 08 49 6f 50 	movl   $0xff506f49,0x8(%esp)
ff5030b5:	ff 
ff5030b6:	c7 44 24 04 ee 6c 50 	movl   $0xff506cee,0x4(%esp)
ff5030bd:	ff 
ff5030be:	c7 04 24 54 6f 50 ff 	movl   $0xff506f54,(%esp)
ff5030c5:	e8 46 d4 ff ff       	call   ff500510 <printAssertMsg>
ff5030ca:	8b 45 f8             	mov    -0x8(%ebp),%eax
ff5030cd:	0f b6 00             	movzbl (%eax),%eax
ff5030d0:	83 e0 01             	and    $0x1,%eax
ff5030d3:	84 c0                	test   %al,%al
ff5030d5:	74 4b                	je     ff503122 <kUnmapPage+0xc2>
ff5030d7:	8b 45 f4             	mov    -0xc(%ebp),%eax
ff5030da:	0f b6 00             	movzbl (%eax),%eax
ff5030dd:	83 e0 01             	and    $0x1,%eax
ff5030e0:	84 c0                	test   %al,%al
ff5030e2:	74 3e                	je     ff503122 <kUnmapPage+0xc2>
ff5030e4:	8b 55 f4             	mov    -0xc(%ebp),%edx
ff5030e7:	0f b6 42 01          	movzbl 0x1(%edx),%eax
ff5030eb:	c0 e8 04             	shr    $0x4,%al
ff5030ee:	0f b6 c8             	movzbl %al,%ecx
ff5030f1:	0f b6 42 02          	movzbl 0x2(%edx),%eax
ff5030f5:	c1 e0 04             	shl    $0x4,%eax
ff5030f8:	09 c1                	or     %eax,%ecx
ff5030fa:	0f b6 42 03          	movzbl 0x3(%edx),%eax
ff5030fe:	c1 e0 0c             	shl    $0xc,%eax
ff503101:	09 c8                	or     %ecx,%eax
ff503103:	c1 e0 0c             	shl    $0xc,%eax
ff503106:	89 45 fc             	mov    %eax,-0x4(%ebp)
ff503109:	8b 55 f4             	mov    -0xc(%ebp),%edx
ff50310c:	0f b6 02             	movzbl (%edx),%eax
ff50310f:	83 e0 fe             	and    $0xfffffffe,%eax
ff503112:	88 02                	mov    %al,(%edx)
ff503114:	8b 45 08             	mov    0x8(%ebp),%eax
ff503117:	0f 01 38             	invlpg (%eax)
ff50311a:	8b 45 fc             	mov    -0x4(%ebp),%eax
ff50311d:	89 45 ec             	mov    %eax,-0x14(%ebp)
ff503120:	eb 07                	jmp    ff503129 <kUnmapPage+0xc9>
ff503122:	c7 45 ec ff ff ff ff 	movl   $0xffffffff,-0x14(%ebp)
ff503129:	8b 45 ec             	mov    -0x14(%ebp),%eax
ff50312c:	c9                   	leave  
ff50312d:	c3                   	ret    
ff50312e:	66 90                	xchg   %ax,%ax

ff503130 <unmapPage>:
ff503130:	55                   	push   %ebp
ff503131:	89 e5                	mov    %esp,%ebp
ff503133:	83 ec 38             	sub    $0x38,%esp
ff503136:	8d 45 f0             	lea    -0x10(%ebp),%eax
ff503139:	89 45 f4             	mov    %eax,-0xc(%ebp)
ff50313c:	8d 45 ec             	lea    -0x14(%ebp),%eax
ff50313f:	89 45 f8             	mov    %eax,-0x8(%ebp)
ff503142:	83 7d 08 ff          	cmpl   $0xffffffff,0x8(%ebp)
ff503146:	75 24                	jne    ff50316c <unmapPage+0x3c>
ff503148:	c7 44 24 0c 2d 02 00 	movl   $0x22d,0xc(%esp)
ff50314f:	00 
ff503150:	c7 44 24 08 77 6f 50 	movl   $0xff506f77,0x8(%esp)
ff503157:	ff 
ff503158:	c7 44 24 04 ee 6c 50 	movl   $0xff506cee,0x4(%esp)
ff50315f:	ff 
ff503160:	c7 04 24 43 6d 50 ff 	movl   $0xff506d43,(%esp)
ff503167:	e8 a4 d3 ff ff       	call   ff500510 <printAssertMsg>
ff50316c:	83 7d 0c ff          	cmpl   $0xffffffff,0xc(%ebp)
ff503170:	75 24                	jne    ff503196 <unmapPage+0x66>
ff503172:	c7 44 24 0c 2e 02 00 	movl   $0x22e,0xc(%esp)
ff503179:	00 
ff50317a:	c7 44 24 08 77 6f 50 	movl   $0xff506f77,0x8(%esp)
ff503181:	ff 
ff503182:	c7 44 24 04 ee 6c 50 	movl   $0xff506cee,0x4(%esp)
ff503189:	ff 
ff50318a:	c7 04 24 14 6d 50 ff 	movl   $0xff506d14,(%esp)
ff503191:	e8 7a d3 ff ff       	call   ff500510 <printAssertMsg>
ff503196:	83 7d 08 ff          	cmpl   $0xffffffff,0x8(%ebp)
ff50319a:	74 06                	je     ff5031a2 <unmapPage+0x72>
ff50319c:	83 7d 0c ff          	cmpl   $0xffffffff,0xc(%ebp)
ff5031a0:	75 18                	jne    ff5031ba <unmapPage+0x8a>
ff5031a2:	c7 04 24 81 6f 50 ff 	movl   $0xff506f81,(%esp)
ff5031a9:	e8 a2 d5 ff ff       	call   ff500750 <kprintf>
ff5031ae:	c7 45 dc ff ff ff ff 	movl   $0xffffffff,-0x24(%ebp)
ff5031b5:	e9 b9 01 00 00       	jmp    ff503373 <unmapPage+0x243>
ff5031ba:	e8 9d cf ff ff       	call   ff50015c <getCR3>
ff5031bf:	3b 45 0c             	cmp    0xc(%ebp),%eax
ff5031c2:	0f 85 c5 00 00 00    	jne    ff50328d <unmapPage+0x15d>
ff5031c8:	8b 45 08             	mov    0x8(%ebp),%eax
ff5031cb:	25 00 f0 ff ff       	and    $0xfffff000,%eax
ff5031d0:	c1 e8 0a             	shr    $0xa,%eax
ff5031d3:	2d 00 00 40 00       	sub    $0x400000,%eax
ff5031d8:	89 45 f4             	mov    %eax,-0xc(%ebp)
ff5031db:	8b 45 08             	mov    0x8(%ebp),%eax
ff5031de:	25 00 00 c0 ff       	and    $0xffc00000,%eax
ff5031e3:	c1 e8 14             	shr    $0x14,%eax
ff5031e6:	2d 00 10 00 00       	sub    $0x1000,%eax
ff5031eb:	89 45 f8             	mov    %eax,-0x8(%ebp)
ff5031ee:	8b 45 f8             	mov    -0x8(%ebp),%eax
ff5031f1:	0f b6 00             	movzbl (%eax),%eax
ff5031f4:	83 e0 01             	and    $0x1,%eax
ff5031f7:	84 c0                	test   %al,%al
ff5031f9:	74 0d                	je     ff503208 <unmapPage+0xd8>
ff5031fb:	8b 45 f4             	mov    -0xc(%ebp),%eax
ff5031fe:	0f b6 00             	movzbl (%eax),%eax
ff503201:	83 e0 01             	and    $0x1,%eax
ff503204:	84 c0                	test   %al,%al
ff503206:	75 24                	jne    ff50322c <unmapPage+0xfc>
ff503208:	c7 44 24 0c 3b 02 00 	movl   $0x23b,0xc(%esp)
ff50320f:	00 
ff503210:	c7 44 24 08 77 6f 50 	movl   $0xff506f77,0x8(%esp)
ff503217:	ff 
ff503218:	c7 44 24 04 ee 6c 50 	movl   $0xff506cee,0x4(%esp)
ff50321f:	ff 
ff503220:	c7 04 24 54 6f 50 ff 	movl   $0xff506f54,(%esp)
ff503227:	e8 e4 d2 ff ff       	call   ff500510 <printAssertMsg>
ff50322c:	8b 45 f8             	mov    -0x8(%ebp),%eax
ff50322f:	0f b6 00             	movzbl (%eax),%eax
ff503232:	83 e0 01             	and    $0x1,%eax
ff503235:	84 c0                	test   %al,%al
ff503237:	74 48                	je     ff503281 <unmapPage+0x151>
ff503239:	8b 45 f4             	mov    -0xc(%ebp),%eax
ff50323c:	0f b6 00             	movzbl (%eax),%eax
ff50323f:	83 e0 01             	and    $0x1,%eax
ff503242:	84 c0                	test   %al,%al
ff503244:	74 3b                	je     ff503281 <unmapPage+0x151>
ff503246:	8b 55 f4             	mov    -0xc(%ebp),%edx
ff503249:	0f b6 02             	movzbl (%edx),%eax
ff50324c:	83 e0 fe             	and    $0xfffffffe,%eax
ff50324f:	88 02                	mov    %al,(%edx)
ff503251:	8b 55 f4             	mov    -0xc(%ebp),%edx
ff503254:	0f b6 42 01          	movzbl 0x1(%edx),%eax
ff503258:	c0 e8 04             	shr    $0x4,%al
ff50325b:	0f b6 c8             	movzbl %al,%ecx
ff50325e:	0f b6 42 02          	movzbl 0x2(%edx),%eax
ff503262:	c1 e0 04             	shl    $0x4,%eax
ff503265:	09 c1                	or     %eax,%ecx
ff503267:	0f b6 42 03          	movzbl 0x3(%edx),%eax
ff50326b:	c1 e0 0c             	shl    $0xc,%eax
ff50326e:	09 c8                	or     %ecx,%eax
ff503270:	c1 e0 0c             	shl    $0xc,%eax
ff503273:	89 45 fc             	mov    %eax,-0x4(%ebp)
ff503276:	8b 45 08             	mov    0x8(%ebp),%eax
ff503279:	0f 01 38             	invlpg (%eax)
ff50327c:	e9 ec 00 00 00       	jmp    ff50336d <unmapPage+0x23d>
ff503281:	c7 45 fc ff ff ff ff 	movl   $0xffffffff,-0x4(%ebp)
ff503288:	e9 e0 00 00 00       	jmp    ff50336d <unmapPage+0x23d>
ff50328d:	8b 45 0c             	mov    0xc(%ebp),%eax
ff503290:	89 44 24 08          	mov    %eax,0x8(%esp)
ff503294:	8b 45 f4             	mov    -0xc(%ebp),%eax
ff503297:	89 44 24 04          	mov    %eax,0x4(%esp)
ff50329b:	8b 45 08             	mov    0x8(%ebp),%eax
ff50329e:	89 04 24             	mov    %eax,(%esp)
ff5032a1:	e8 4a f2 ff ff       	call   ff5024f0 <readPTE>
ff5032a6:	85 c0                	test   %eax,%eax
ff5032a8:	0f 85 88 00 00 00    	jne    ff503336 <unmapPage+0x206>
ff5032ae:	8b 45 f4             	mov    -0xc(%ebp),%eax
ff5032b1:	0f b6 00             	movzbl (%eax),%eax
ff5032b4:	83 e0 01             	and    $0x1,%eax
ff5032b7:	84 c0                	test   %al,%al
ff5032b9:	74 7b                	je     ff503336 <unmapPage+0x206>
ff5032bb:	8b 55 f4             	mov    -0xc(%ebp),%edx
ff5032be:	0f b6 02             	movzbl (%edx),%eax
ff5032c1:	83 e0 fe             	and    $0xfffffffe,%eax
ff5032c4:	88 02                	mov    %al,(%edx)
ff5032c6:	8b 55 f4             	mov    -0xc(%ebp),%edx
ff5032c9:	0f b6 42 01          	movzbl 0x1(%edx),%eax
ff5032cd:	c0 e8 04             	shr    $0x4,%al
ff5032d0:	0f b6 c8             	movzbl %al,%ecx
ff5032d3:	0f b6 42 02          	movzbl 0x2(%edx),%eax
ff5032d7:	c1 e0 04             	shl    $0x4,%eax
ff5032da:	09 c1                	or     %eax,%ecx
ff5032dc:	0f b6 42 03          	movzbl 0x3(%edx),%eax
ff5032e0:	c1 e0 0c             	shl    $0xc,%eax
ff5032e3:	09 c8                	or     %ecx,%eax
ff5032e5:	c1 e0 0c             	shl    $0xc,%eax
ff5032e8:	89 45 fc             	mov    %eax,-0x4(%ebp)
ff5032eb:	8b 45 0c             	mov    0xc(%ebp),%eax
ff5032ee:	89 44 24 08          	mov    %eax,0x8(%esp)
ff5032f2:	8b 45 f4             	mov    -0xc(%ebp),%eax
ff5032f5:	89 44 24 04          	mov    %eax,0x4(%esp)
ff5032f9:	8b 45 08             	mov    0x8(%ebp),%eax
ff5032fc:	89 04 24             	mov    %eax,(%esp)
ff5032ff:	e8 9c f3 ff ff       	call   ff5026a0 <writePTE>
ff503304:	83 f8 ff             	cmp    $0xffffffff,%eax
ff503307:	75 64                	jne    ff50336d <unmapPage+0x23d>
ff503309:	c7 44 24 0c 50 02 00 	movl   $0x250,0xc(%esp)
ff503310:	00 
ff503311:	c7 44 24 08 77 6f 50 	movl   $0xff506f77,0x8(%esp)
ff503318:	ff 
ff503319:	c7 44 24 04 ee 6c 50 	movl   $0xff506cee,0x4(%esp)
ff503320:	ff 
ff503321:	c7 04 24 34 6d 50 ff 	movl   $0xff506d34,(%esp)
ff503328:	e8 e3 d1 ff ff       	call   ff500510 <printAssertMsg>
ff50332d:	c7 45 fc ff ff ff ff 	movl   $0xffffffff,-0x4(%ebp)
ff503334:	eb 37                	jmp    ff50336d <unmapPage+0x23d>
ff503336:	c7 04 24 9c 6f 50 ff 	movl   $0xff506f9c,(%esp)
ff50333d:	e8 0e d4 ff ff       	call   ff500750 <kprintf>
ff503342:	c7 44 24 0c 57 02 00 	movl   $0x257,0xc(%esp)
ff503349:	00 
ff50334a:	c7 44 24 08 77 6f 50 	movl   $0xff506f77,0x8(%esp)
ff503351:	ff 
ff503352:	c7 44 24 04 ee 6c 50 	movl   $0xff506cee,0x4(%esp)
ff503359:	ff 
ff50335a:	c7 04 24 34 6d 50 ff 	movl   $0xff506d34,(%esp)
ff503361:	e8 aa d1 ff ff       	call   ff500510 <printAssertMsg>
ff503366:	c7 45 fc ff ff ff ff 	movl   $0xffffffff,-0x4(%ebp)
ff50336d:	8b 45 fc             	mov    -0x4(%ebp),%eax
ff503370:	89 45 dc             	mov    %eax,-0x24(%ebp)
ff503373:	8b 45 dc             	mov    -0x24(%ebp),%eax
ff503376:	c9                   	leave  
ff503377:	c3                   	ret    
ff503378:	90                   	nop    
ff503379:	8d b4 26 00 00 00 00 	lea    0x0(%esi,%eiz,1),%esi

ff503380 <unmapPageTable>:
ff503380:	55                   	push   %ebp
ff503381:	89 e5                	mov    %esp,%ebp
ff503383:	83 ec 28             	sub    $0x28,%esp
ff503386:	8d 45 f4             	lea    -0xc(%ebp),%eax
ff503389:	89 45 f8             	mov    %eax,-0x8(%ebp)
ff50338c:	83 7d 08 ff          	cmpl   $0xffffffff,0x8(%ebp)
ff503390:	75 24                	jne    ff5033b6 <unmapPageTable+0x36>
ff503392:	c7 44 24 0c 63 02 00 	movl   $0x263,0xc(%esp)
ff503399:	00 
ff50339a:	c7 44 24 08 cb 6f 50 	movl   $0xff506fcb,0x8(%esp)
ff5033a1:	ff 
ff5033a2:	c7 44 24 04 ee 6c 50 	movl   $0xff506cee,0x4(%esp)
ff5033a9:	ff 
ff5033aa:	c7 04 24 43 6d 50 ff 	movl   $0xff506d43,(%esp)
ff5033b1:	e8 5a d1 ff ff       	call   ff500510 <printAssertMsg>
ff5033b6:	83 7d 0c ff          	cmpl   $0xffffffff,0xc(%ebp)
ff5033ba:	75 24                	jne    ff5033e0 <unmapPageTable+0x60>
ff5033bc:	c7 44 24 0c 65 02 00 	movl   $0x265,0xc(%esp)
ff5033c3:	00 
ff5033c4:	c7 44 24 08 cb 6f 50 	movl   $0xff506fcb,0x8(%esp)
ff5033cb:	ff 
ff5033cc:	c7 44 24 04 ee 6c 50 	movl   $0xff506cee,0x4(%esp)
ff5033d3:	ff 
ff5033d4:	c7 04 24 14 6d 50 ff 	movl   $0xff506d14,(%esp)
ff5033db:	e8 30 d1 ff ff       	call   ff500510 <printAssertMsg>
ff5033e0:	83 7d 08 ff          	cmpl   $0xffffffff,0x8(%ebp)
ff5033e4:	74 06                	je     ff5033ec <unmapPageTable+0x6c>
ff5033e6:	83 7d 0c ff          	cmpl   $0xffffffff,0xc(%ebp)
ff5033ea:	75 18                	jne    ff503404 <unmapPageTable+0x84>
ff5033ec:	c7 04 24 81 6f 50 ff 	movl   $0xff506f81,(%esp)
ff5033f3:	e8 58 d3 ff ff       	call   ff500750 <kprintf>
ff5033f8:	c7 45 ec ff ff ff ff 	movl   $0xffffffff,-0x14(%ebp)
ff5033ff:	e9 2c 01 00 00       	jmp    ff503530 <unmapPageTable+0x1b0>
ff503404:	e8 53 cd ff ff       	call   ff50015c <getCR3>
ff503409:	3b 45 0c             	cmp    0xc(%ebp),%eax
ff50340c:	75 4d                	jne    ff50345b <unmapPageTable+0xdb>
ff50340e:	8b 45 08             	mov    0x8(%ebp),%eax
ff503411:	25 00 00 c0 ff       	and    $0xffc00000,%eax
ff503416:	c1 e8 14             	shr    $0x14,%eax
ff503419:	2d 00 10 00 00       	sub    $0x1000,%eax
ff50341e:	89 45 f8             	mov    %eax,-0x8(%ebp)
ff503421:	8b 55 f8             	mov    -0x8(%ebp),%edx
ff503424:	0f b6 42 01          	movzbl 0x1(%edx),%eax
ff503428:	c0 e8 04             	shr    $0x4,%al
ff50342b:	0f b6 c8             	movzbl %al,%ecx
ff50342e:	0f b6 42 02          	movzbl 0x2(%edx),%eax
ff503432:	c1 e0 04             	shl    $0x4,%eax
ff503435:	09 c1                	or     %eax,%ecx
ff503437:	0f b6 42 03          	movzbl 0x3(%edx),%eax
ff50343b:	c1 e0 0c             	shl    $0xc,%eax
ff50343e:	09 c8                	or     %ecx,%eax
ff503440:	c1 e0 0c             	shl    $0xc,%eax
ff503443:	89 45 fc             	mov    %eax,-0x4(%ebp)
ff503446:	8b 55 f8             	mov    -0x8(%ebp),%edx
ff503449:	0f b6 02             	movzbl (%edx),%eax
ff50344c:	83 e0 fe             	and    $0xfffffffe,%eax
ff50344f:	88 02                	mov    %al,(%edx)
ff503451:	e8 8a ec ff ff       	call   ff5020e0 <reload_cr3>
ff503456:	e9 cf 00 00 00       	jmp    ff50352a <unmapPageTable+0x1aa>
ff50345b:	8b 45 0c             	mov    0xc(%ebp),%eax
ff50345e:	89 44 24 08          	mov    %eax,0x8(%esp)
ff503462:	8b 45 f8             	mov    -0x8(%ebp),%eax
ff503465:	89 44 24 04          	mov    %eax,0x4(%esp)
ff503469:	8b 45 08             	mov    0x8(%ebp),%eax
ff50346c:	89 04 24             	mov    %eax,(%esp)
ff50346f:	e8 9c ef ff ff       	call   ff502410 <readPDE>
ff503474:	85 c0                	test   %eax,%eax
ff503476:	75 7b                	jne    ff5034f3 <unmapPageTable+0x173>
ff503478:	8b 55 f8             	mov    -0x8(%ebp),%edx
ff50347b:	0f b6 02             	movzbl (%edx),%eax
ff50347e:	83 e0 fe             	and    $0xfffffffe,%eax
ff503481:	88 02                	mov    %al,(%edx)
ff503483:	8b 55 f8             	mov    -0x8(%ebp),%edx
ff503486:	0f b6 42 01          	movzbl 0x1(%edx),%eax
ff50348a:	c0 e8 04             	shr    $0x4,%al
ff50348d:	0f b6 c8             	movzbl %al,%ecx
ff503490:	0f b6 42 02          	movzbl 0x2(%edx),%eax
ff503494:	c1 e0 04             	shl    $0x4,%eax
ff503497:	09 c1                	or     %eax,%ecx
ff503499:	0f b6 42 03          	movzbl 0x3(%edx),%eax
ff50349d:	c1 e0 0c             	shl    $0xc,%eax
ff5034a0:	09 c8                	or     %ecx,%eax
ff5034a2:	c1 e0 0c             	shl    $0xc,%eax
ff5034a5:	89 45 fc             	mov    %eax,-0x4(%ebp)
ff5034a8:	8b 45 0c             	mov    0xc(%ebp),%eax
ff5034ab:	89 44 24 08          	mov    %eax,0x8(%esp)
ff5034af:	8b 45 f8             	mov    -0x8(%ebp),%eax
ff5034b2:	89 44 24 04          	mov    %eax,0x4(%esp)
ff5034b6:	8b 45 08             	mov    0x8(%ebp),%eax
ff5034b9:	89 04 24             	mov    %eax,(%esp)
ff5034bc:	e8 7f ed ff ff       	call   ff502240 <writePDE>
ff5034c1:	83 f8 ff             	cmp    $0xffffffff,%eax
ff5034c4:	75 64                	jne    ff50352a <unmapPageTable+0x1aa>
ff5034c6:	c7 44 24 0c 82 02 00 	movl   $0x282,0xc(%esp)
ff5034cd:	00 
ff5034ce:	c7 44 24 08 cb 6f 50 	movl   $0xff506fcb,0x8(%esp)
ff5034d5:	ff 
ff5034d6:	c7 44 24 04 ee 6c 50 	movl   $0xff506cee,0x4(%esp)
ff5034dd:	ff 
ff5034de:	c7 04 24 34 6d 50 ff 	movl   $0xff506d34,(%esp)
ff5034e5:	e8 26 d0 ff ff       	call   ff500510 <printAssertMsg>
ff5034ea:	c7 45 fc ff ff ff ff 	movl   $0xffffffff,-0x4(%ebp)
ff5034f1:	eb 37                	jmp    ff50352a <unmapPageTable+0x1aa>
ff5034f3:	c7 04 24 da 6f 50 ff 	movl   $0xff506fda,(%esp)
ff5034fa:	e8 51 d2 ff ff       	call   ff500750 <kprintf>
ff5034ff:	c7 44 24 0c 89 02 00 	movl   $0x289,0xc(%esp)
ff503506:	00 
ff503507:	c7 44 24 08 cb 6f 50 	movl   $0xff506fcb,0x8(%esp)
ff50350e:	ff 
ff50350f:	c7 44 24 04 ee 6c 50 	movl   $0xff506cee,0x4(%esp)
ff503516:	ff 
ff503517:	c7 04 24 34 6d 50 ff 	movl   $0xff506d34,(%esp)
ff50351e:	e8 ed cf ff ff       	call   ff500510 <printAssertMsg>
ff503523:	c7 45 fc ff ff ff ff 	movl   $0xffffffff,-0x4(%ebp)
ff50352a:	8b 45 fc             	mov    -0x4(%ebp),%eax
ff50352d:	89 45 ec             	mov    %eax,-0x14(%ebp)
ff503530:	8b 45 ec             	mov    -0x14(%ebp),%eax
ff503533:	c9                   	leave  
ff503534:	c3                   	ret    
	...

ff503540 <sendEOI>:
ff503540:	55                   	push   %ebp
ff503541:	89 e5                	mov    %esp,%ebp
ff503543:	83 ec 08             	sub    $0x8,%esp
ff503546:	c7 44 24 04 20 00 00 	movl   $0x20,0x4(%esp)
ff50354d:	00 
ff50354e:	c7 04 24 20 00 00 00 	movl   $0x20,(%esp)
ff503555:	e8 26 00 00 00       	call   ff503580 <outByte>
ff50355a:	e8 41 00 00 00       	call   ff5035a0 <ioWait>
ff50355f:	c7 44 24 04 20 00 00 	movl   $0x20,0x4(%esp)
ff503566:	00 
ff503567:	c7 04 24 a0 00 00 00 	movl   $0xa0,(%esp)
ff50356e:	e8 0d 00 00 00       	call   ff503580 <outByte>
ff503573:	e8 28 00 00 00       	call   ff5035a0 <ioWait>
ff503578:	c9                   	leave  
ff503579:	c3                   	ret    
ff50357a:	8d b6 00 00 00 00    	lea    0x0(%esi),%esi

ff503580 <outByte>:
ff503580:	55                   	push   %ebp
ff503581:	89 e5                	mov    %esp,%ebp
ff503583:	8b 45 08             	mov    0x8(%ebp),%eax
ff503586:	8b 55 0c             	mov    0xc(%ebp),%edx
ff503589:	89 c1                	mov    %eax,%ecx
ff50358b:	89 d0                	mov    %edx,%eax
ff50358d:	89 ca                	mov    %ecx,%edx
ff50358f:	ee                   	out    %al,(%dx)
ff503590:	5d                   	pop    %ebp
ff503591:	c3                   	ret    
ff503592:	8d b4 26 00 00 00 00 	lea    0x0(%esi,%eiz,1),%esi
ff503599:	8d bc 27 00 00 00 00 	lea    0x0(%edi,%eiz,1),%edi

ff5035a0 <ioWait>:
ff5035a0:	55                   	push   %ebp
ff5035a1:	89 e5                	mov    %esp,%ebp
ff5035a3:	eb 00                	jmp    ff5035a5 <ioWait+0x5>
ff5035a5:	eb 00                	jmp    ff5035a7 <ioWait+0x7>
ff5035a7:	5d                   	pop    %ebp
ff5035a8:	c3                   	ret    
ff5035a9:	8d b4 26 00 00 00 00 	lea    0x0(%esi,%eiz,1),%esi

ff5035b0 <enableIRQ>:
ff5035b0:	55                   	push   %ebp
ff5035b1:	89 e5                	mov    %esp,%ebp
ff5035b3:	83 ec 18             	sub    $0x18,%esp
ff5035b6:	83 7d 08 00          	cmpl   $0x0,0x8(%ebp)
ff5035ba:	0f 88 9b 00 00 00    	js     ff50365b <enableIRQ+0xab>
ff5035c0:	83 7d 08 0f          	cmpl   $0xf,0x8(%ebp)
ff5035c4:	0f 8f 91 00 00 00    	jg     ff50365b <enableIRQ+0xab>
ff5035ca:	83 7d 08 07          	cmpl   $0x7,0x8(%ebp)
ff5035ce:	7f 45                	jg     ff503615 <enableIRQ+0x65>
ff5035d0:	c7 04 24 21 00 00 00 	movl   $0x21,(%esp)
ff5035d7:	e8 84 00 00 00       	call   ff503660 <inByte>
ff5035dc:	88 45 ff             	mov    %al,-0x1(%ebp)
ff5035df:	e8 bc ff ff ff       	call   ff5035a0 <ioWait>
ff5035e4:	8b 45 08             	mov    0x8(%ebp),%eax
ff5035e7:	0f b6 c8             	movzbl %al,%ecx
ff5035ea:	b8 01 00 00 00       	mov    $0x1,%eax
ff5035ef:	d3 e0                	shl    %cl,%eax
ff5035f1:	89 c2                	mov    %eax,%edx
ff5035f3:	f7 d2                	not    %edx
ff5035f5:	0f b6 45 ff          	movzbl -0x1(%ebp),%eax
ff5035f9:	21 d0                	and    %edx,%eax
ff5035fb:	0f b6 c0             	movzbl %al,%eax
ff5035fe:	89 44 24 04          	mov    %eax,0x4(%esp)
ff503602:	c7 04 24 21 00 00 00 	movl   $0x21,(%esp)
ff503609:	e8 72 ff ff ff       	call   ff503580 <outByte>
ff50360e:	e8 8d ff ff ff       	call   ff5035a0 <ioWait>
ff503613:	eb 46                	jmp    ff50365b <enableIRQ+0xab>
ff503615:	c7 04 24 a1 00 00 00 	movl   $0xa1,(%esp)
ff50361c:	e8 3f 00 00 00       	call   ff503660 <inByte>
ff503621:	88 45 ff             	mov    %al,-0x1(%ebp)
ff503624:	e8 77 ff ff ff       	call   ff5035a0 <ioWait>
ff503629:	8b 45 08             	mov    0x8(%ebp),%eax
ff50362c:	0f b6 c0             	movzbl %al,%eax
ff50362f:	8d 48 f8             	lea    -0x8(%eax),%ecx
ff503632:	b8 01 00 00 00       	mov    $0x1,%eax
ff503637:	d3 e0                	shl    %cl,%eax
ff503639:	89 c2                	mov    %eax,%edx
ff50363b:	f7 d2                	not    %edx
ff50363d:	0f b6 45 ff          	movzbl -0x1(%ebp),%eax
ff503641:	21 d0                	and    %edx,%eax
ff503643:	0f b6 c0             	movzbl %al,%eax
ff503646:	89 44 24 04          	mov    %eax,0x4(%esp)
ff50364a:	c7 04 24 a1 00 00 00 	movl   $0xa1,(%esp)
ff503651:	e8 2a ff ff ff       	call   ff503580 <outByte>
ff503656:	e8 45 ff ff ff       	call   ff5035a0 <ioWait>
ff50365b:	c9                   	leave  
ff50365c:	c3                   	ret    
ff50365d:	8d 76 00             	lea    0x0(%esi),%esi

ff503660 <inByte>:
ff503660:	55                   	push   %ebp
ff503661:	89 e5                	mov    %esp,%ebp
ff503663:	8b 45 08             	mov    0x8(%ebp),%eax
ff503666:	89 c2                	mov    %eax,%edx
ff503668:	ec                   	in     (%dx),%al
ff503669:	5d                   	pop    %ebp
ff50366a:	c3                   	ret    
ff50366b:	90                   	nop    
ff50366c:	8d 74 26 00          	lea    0x0(%esi,%eiz,1),%esi

ff503670 <disableIRQ>:
ff503670:	55                   	push   %ebp
ff503671:	89 e5                	mov    %esp,%ebp
ff503673:	83 ec 18             	sub    $0x18,%esp
ff503676:	83 7d 08 00          	cmpl   $0x0,0x8(%ebp)
ff50367a:	0f 88 97 00 00 00    	js     ff503717 <disableIRQ+0xa7>
ff503680:	83 7d 08 0f          	cmpl   $0xf,0x8(%ebp)
ff503684:	0f 8f 8d 00 00 00    	jg     ff503717 <disableIRQ+0xa7>
ff50368a:	83 7d 08 07          	cmpl   $0x7,0x8(%ebp)
ff50368e:	7f 43                	jg     ff5036d3 <disableIRQ+0x63>
ff503690:	c7 04 24 21 00 00 00 	movl   $0x21,(%esp)
ff503697:	e8 c4 ff ff ff       	call   ff503660 <inByte>
ff50369c:	88 45 ff             	mov    %al,-0x1(%ebp)
ff50369f:	e8 fc fe ff ff       	call   ff5035a0 <ioWait>
ff5036a4:	8b 45 08             	mov    0x8(%ebp),%eax
ff5036a7:	0f b6 c8             	movzbl %al,%ecx
ff5036aa:	b8 01 00 00 00       	mov    $0x1,%eax
ff5036af:	d3 e0                	shl    %cl,%eax
ff5036b1:	89 c2                	mov    %eax,%edx
ff5036b3:	0f b6 45 ff          	movzbl -0x1(%ebp),%eax
ff5036b7:	09 d0                	or     %edx,%eax
ff5036b9:	0f b6 c0             	movzbl %al,%eax
ff5036bc:	89 44 24 04          	mov    %eax,0x4(%esp)
ff5036c0:	c7 04 24 21 00 00 00 	movl   $0x21,(%esp)
ff5036c7:	e8 b4 fe ff ff       	call   ff503580 <outByte>
ff5036cc:	e8 cf fe ff ff       	call   ff5035a0 <ioWait>
ff5036d1:	eb 44                	jmp    ff503717 <disableIRQ+0xa7>
ff5036d3:	c7 04 24 a1 00 00 00 	movl   $0xa1,(%esp)
ff5036da:	e8 81 ff ff ff       	call   ff503660 <inByte>
ff5036df:	88 45 ff             	mov    %al,-0x1(%ebp)
ff5036e2:	e8 b9 fe ff ff       	call   ff5035a0 <ioWait>
ff5036e7:	8b 45 08             	mov    0x8(%ebp),%eax
ff5036ea:	0f b6 c0             	movzbl %al,%eax
ff5036ed:	8d 48 f8             	lea    -0x8(%eax),%ecx
ff5036f0:	b8 01 00 00 00       	mov    $0x1,%eax
ff5036f5:	d3 e0                	shl    %cl,%eax
ff5036f7:	89 c2                	mov    %eax,%edx
ff5036f9:	0f b6 45 ff          	movzbl -0x1(%ebp),%eax
ff5036fd:	09 d0                	or     %edx,%eax
ff5036ff:	0f b6 c0             	movzbl %al,%eax
ff503702:	89 44 24 04          	mov    %eax,0x4(%esp)
ff503706:	c7 04 24 a1 00 00 00 	movl   $0xa1,(%esp)
ff50370d:	e8 6e fe ff ff       	call   ff503580 <outByte>
ff503712:	e8 89 fe ff ff       	call   ff5035a0 <ioWait>
ff503717:	c9                   	leave  
ff503718:	c3                   	ret    
ff503719:	8d b4 26 00 00 00 00 	lea    0x0(%esi,%eiz,1),%esi

ff503720 <enableAllIRQ>:
ff503720:	55                   	push   %ebp
ff503721:	89 e5                	mov    %esp,%ebp
ff503723:	83 ec 08             	sub    $0x8,%esp
ff503726:	c7 44 24 04 00 00 00 	movl   $0x0,0x4(%esp)
ff50372d:	00 
ff50372e:	c7 04 24 21 00 00 00 	movl   $0x21,(%esp)
ff503735:	e8 46 fe ff ff       	call   ff503580 <outByte>
ff50373a:	e8 61 fe ff ff       	call   ff5035a0 <ioWait>
ff50373f:	c7 44 24 04 00 00 00 	movl   $0x0,0x4(%esp)
ff503746:	00 
ff503747:	c7 04 24 a1 00 00 00 	movl   $0xa1,(%esp)
ff50374e:	e8 2d fe ff ff       	call   ff503580 <outByte>
ff503753:	e8 48 fe ff ff       	call   ff5035a0 <ioWait>
ff503758:	c9                   	leave  
ff503759:	c3                   	ret    
ff50375a:	8d b6 00 00 00 00    	lea    0x0(%esi),%esi

ff503760 <disableAllIRQ>:
ff503760:	55                   	push   %ebp
ff503761:	89 e5                	mov    %esp,%ebp
ff503763:	83 ec 08             	sub    $0x8,%esp
ff503766:	c7 44 24 04 ff 00 00 	movl   $0xff,0x4(%esp)
ff50376d:	00 
ff50376e:	c7 04 24 21 00 00 00 	movl   $0x21,(%esp)
ff503775:	e8 06 fe ff ff       	call   ff503580 <outByte>
ff50377a:	e8 21 fe ff ff       	call   ff5035a0 <ioWait>
ff50377f:	c7 44 24 04 ff 00 00 	movl   $0xff,0x4(%esp)
ff503786:	00 
ff503787:	c7 04 24 a1 00 00 00 	movl   $0xa1,(%esp)
ff50378e:	e8 ed fd ff ff       	call   ff503580 <outByte>
ff503793:	e8 08 fe ff ff       	call   ff5035a0 <ioWait>
ff503798:	c9                   	leave  
ff503799:	c3                   	ret    
ff50379a:	00 00                	add    %al,(%eax)
ff50379c:	00 00                	add    %al,(%eax)
	...

ff5037a0 <sleepEnqueue>:
ff5037a0:	55                   	push   %ebp
ff5037a1:	89 e5                	mov    %esp,%ebp
ff5037a3:	83 ec 38             	sub    $0x38,%esp
ff5037a6:	8b 45 0c             	mov    0xc(%ebp),%eax
ff5037a9:	8b 55 10             	mov    0x10(%ebp),%edx
ff5037ac:	66 89 45 ec          	mov    %ax,-0x14(%ebp)
ff5037b0:	66 89 55 e8          	mov    %dx,-0x18(%ebp)
ff5037b4:	66 c7 45 fe ff ff    	movw   $0xffff,-0x2(%ebp)
ff5037ba:	83 7d 08 00          	cmpl   $0x0,0x8(%ebp)
ff5037be:	75 24                	jne    ff5037e4 <sleepEnqueue+0x44>
ff5037c0:	c7 44 24 0c 14 00 00 	movl   $0x14,0xc(%esp)
ff5037c7:	00 
ff5037c8:	c7 44 24 08 f5 6f 50 	movl   $0xff506ff5,0x8(%esp)
ff5037cf:	ff 
ff5037d0:	c7 44 24 04 02 70 50 	movl   $0xff507002,0x4(%esp)
ff5037d7:	ff 
ff5037d8:	c7 04 24 0a 70 50 ff 	movl   $0xff50700a,(%esp)
ff5037df:	e8 2c cd ff ff       	call   ff500510 <printAssertMsg>
ff5037e4:	66 83 7d ec ff       	cmpw   $0xffffffff,-0x14(%ebp)
ff5037e9:	75 24                	jne    ff50380f <sleepEnqueue+0x6f>
ff5037eb:	c7 44 24 0c 15 00 00 	movl   $0x15,0xc(%esp)
ff5037f2:	00 
ff5037f3:	c7 44 24 08 f5 6f 50 	movl   $0xff506ff5,0x8(%esp)
ff5037fa:	ff 
ff5037fb:	c7 44 24 04 02 70 50 	movl   $0xff507002,0x4(%esp)
ff503802:	ff 
ff503803:	c7 04 24 18 70 50 ff 	movl   $0xff507018,(%esp)
ff50380a:	e8 01 cd ff ff       	call   ff500510 <printAssertMsg>
ff50380f:	66 83 7d e8 00       	cmpw   $0x0,-0x18(%ebp)
ff503814:	75 24                	jne    ff50383a <sleepEnqueue+0x9a>
ff503816:	c7 44 24 0c 16 00 00 	movl   $0x16,0xc(%esp)
ff50381d:	00 
ff50381e:	c7 44 24 08 f5 6f 50 	movl   $0xff506ff5,0x8(%esp)
ff503825:	ff 
ff503826:	c7 44 24 04 02 70 50 	movl   $0xff507002,0x4(%esp)
ff50382d:	ff 
ff50382e:	c7 04 24 28 70 50 ff 	movl   $0xff507028,(%esp)
ff503835:	e8 d6 cc ff ff       	call   ff500510 <printAssertMsg>
ff50383a:	66 83 7d e8 00       	cmpw   $0x0,-0x18(%ebp)
ff50383f:	74 0d                	je     ff50384e <sleepEnqueue+0xae>
ff503841:	83 7d 08 00          	cmpl   $0x0,0x8(%ebp)
ff503845:	74 07                	je     ff50384e <sleepEnqueue+0xae>
ff503847:	66 83 7d ec ff       	cmpw   $0xffffffff,-0x14(%ebp)
ff50384c:	75 40                	jne    ff50388e <sleepEnqueue+0xee>
ff50384e:	c7 44 24 14 31 70 50 	movl   $0xff507031,0x14(%esp)
ff503855:	ff 
ff503856:	c7 44 24 10 ff ff ff 	movl   $0xffffffff,0x10(%esp)
ff50385d:	ff 
ff50385e:	c7 44 24 0c 19 00 00 	movl   $0x19,0xc(%esp)
ff503865:	00 
ff503866:	c7 44 24 08 f5 6f 50 	movl   $0xff506ff5,0x8(%esp)
ff50386d:	ff 
ff50386e:	c7 44 24 04 02 70 50 	movl   $0xff507002,0x4(%esp)
ff503875:	ff 
ff503876:	c7 04 24 4e 70 50 ff 	movl   $0xff50704e,(%esp)
ff50387d:	e8 ce ce ff ff       	call   ff500750 <kprintf>
ff503882:	c7 45 e4 ff ff ff ff 	movl   $0xffffffff,-0x1c(%ebp)
ff503889:	e9 7f 01 00 00       	jmp    ff503a0d <sleepEnqueue+0x26d>
ff50388e:	8b 45 08             	mov    0x8(%ebp),%eax
ff503891:	0f b7 00             	movzwl (%eax),%eax
ff503894:	66 83 f8 ff          	cmp    $0xffffffff,%ax
ff503898:	75 42                	jne    ff5038dc <sleepEnqueue+0x13c>
ff50389a:	8b 55 08             	mov    0x8(%ebp),%edx
ff50389d:	0f b7 45 ec          	movzwl -0x14(%ebp),%eax
ff5038a1:	66 89 02             	mov    %ax,(%edx)
ff5038a4:	8b 15 48 c0 50 ff    	mov    0xff50c048,%edx
ff5038aa:	0f bf 45 ec          	movswl -0x14(%ebp),%eax
ff5038ae:	c1 e0 02             	shl    $0x2,%eax
ff5038b1:	01 c2                	add    %eax,%edx
ff5038b3:	0f b7 45 e8          	movzwl -0x18(%ebp),%eax
ff5038b7:	66 89 02             	mov    %ax,(%edx)
ff5038ba:	8b 15 48 c0 50 ff    	mov    0xff50c048,%edx
ff5038c0:	0f bf 45 ec          	movswl -0x14(%ebp),%eax
ff5038c4:	c1 e0 02             	shl    $0x2,%eax
ff5038c7:	8d 04 02             	lea    (%edx,%eax,1),%eax
ff5038ca:	66 c7 40 02 ff ff    	movw   $0xffff,0x2(%eax)
ff5038d0:	c7 45 e4 00 00 00 00 	movl   $0x0,-0x1c(%ebp)
ff5038d7:	e9 31 01 00 00       	jmp    ff503a0d <sleepEnqueue+0x26d>
ff5038dc:	8b 45 08             	mov    0x8(%ebp),%eax
ff5038df:	0f b7 00             	movzwl (%eax),%eax
ff5038e2:	66 89 45 fc          	mov    %ax,-0x4(%ebp)
ff5038e6:	e9 10 01 00 00       	jmp    ff5039fb <sleepEnqueue+0x25b>
ff5038eb:	8b 15 48 c0 50 ff    	mov    0xff50c048,%edx
ff5038f1:	0f bf 45 fc          	movswl -0x4(%ebp),%eax
ff5038f5:	c1 e0 02             	shl    $0x2,%eax
ff5038f8:	8d 04 02             	lea    (%edx,%eax,1),%eax
ff5038fb:	8b 00                	mov    (%eax),%eax
ff5038fd:	89 45 f8             	mov    %eax,-0x8(%ebp)
ff503900:	0f b7 45 f8          	movzwl -0x8(%ebp),%eax
ff503904:	66 3b 45 e8          	cmp    -0x18(%ebp),%ax
ff503908:	73 5e                	jae    ff503968 <sleepEnqueue+0x1c8>
ff50390a:	0f b7 45 f8          	movzwl -0x8(%ebp),%eax
ff50390e:	66 29 45 e8          	sub    %ax,-0x18(%ebp)
ff503912:	0f b7 45 fa          	movzwl -0x6(%ebp),%eax
ff503916:	66 83 f8 ff          	cmp    $0xffffffff,%ax
ff50391a:	0f 85 cb 00 00 00    	jne    ff5039eb <sleepEnqueue+0x24b>
ff503920:	8b 15 48 c0 50 ff    	mov    0xff50c048,%edx
ff503926:	0f bf 45 ec          	movswl -0x14(%ebp),%eax
ff50392a:	c1 e0 02             	shl    $0x2,%eax
ff50392d:	01 c2                	add    %eax,%edx
ff50392f:	0f b7 45 e8          	movzwl -0x18(%ebp),%eax
ff503933:	66 89 02             	mov    %ax,(%edx)
ff503936:	8b 15 48 c0 50 ff    	mov    0xff50c048,%edx
ff50393c:	0f bf 45 ec          	movswl -0x14(%ebp),%eax
ff503940:	c1 e0 02             	shl    $0x2,%eax
ff503943:	8d 04 02             	lea    (%edx,%eax,1),%eax
ff503946:	66 c7 40 02 ff ff    	movw   $0xffff,0x2(%eax)
ff50394c:	8b 15 48 c0 50 ff    	mov    0xff50c048,%edx
ff503952:	0f bf 45 fc          	movswl -0x4(%ebp),%eax
ff503956:	c1 e0 02             	shl    $0x2,%eax
ff503959:	01 c2                	add    %eax,%edx
ff50395b:	0f b7 45 ec          	movzwl -0x14(%ebp),%eax
ff50395f:	66 89 42 02          	mov    %ax,0x2(%edx)
ff503963:	e9 9e 00 00 00       	jmp    ff503a06 <sleepEnqueue+0x266>
ff503968:	66 83 7d fe ff       	cmpw   $0xffffffff,-0x2(%ebp)
ff50396d:	75 0c                	jne    ff50397b <sleepEnqueue+0x1db>
ff50396f:	8b 55 08             	mov    0x8(%ebp),%edx
ff503972:	0f b7 45 ec          	movzwl -0x14(%ebp),%eax
ff503976:	66 89 02             	mov    %ax,(%edx)
ff503979:	eb 17                	jmp    ff503992 <sleepEnqueue+0x1f2>
ff50397b:	8b 15 48 c0 50 ff    	mov    0xff50c048,%edx
ff503981:	0f bf 45 fe          	movswl -0x2(%ebp),%eax
ff503985:	c1 e0 02             	shl    $0x2,%eax
ff503988:	01 c2                	add    %eax,%edx
ff50398a:	0f b7 45 ec          	movzwl -0x14(%ebp),%eax
ff50398e:	66 89 42 02          	mov    %ax,0x2(%edx)
ff503992:	8b 15 48 c0 50 ff    	mov    0xff50c048,%edx
ff503998:	0f bf 45 ec          	movswl -0x14(%ebp),%eax
ff50399c:	c1 e0 02             	shl    $0x2,%eax
ff50399f:	01 c2                	add    %eax,%edx
ff5039a1:	0f b7 45 fc          	movzwl -0x4(%ebp),%eax
ff5039a5:	66 89 42 02          	mov    %ax,0x2(%edx)
ff5039a9:	8b 15 48 c0 50 ff    	mov    0xff50c048,%edx
ff5039af:	0f bf 45 ec          	movswl -0x14(%ebp),%eax
ff5039b3:	c1 e0 02             	shl    $0x2,%eax
ff5039b6:	01 c2                	add    %eax,%edx
ff5039b8:	0f b7 45 e8          	movzwl -0x18(%ebp),%eax
ff5039bc:	66 89 02             	mov    %ax,(%edx)
ff5039bf:	8b 15 48 c0 50 ff    	mov    0xff50c048,%edx
ff5039c5:	0f bf 45 fc          	movswl -0x4(%ebp),%eax
ff5039c9:	c1 e0 02             	shl    $0x2,%eax
ff5039cc:	8d 0c 02             	lea    (%edx,%eax,1),%ecx
ff5039cf:	8b 15 48 c0 50 ff    	mov    0xff50c048,%edx
ff5039d5:	0f bf 45 fc          	movswl -0x4(%ebp),%eax
ff5039d9:	c1 e0 02             	shl    $0x2,%eax
ff5039dc:	8d 04 02             	lea    (%edx,%eax,1),%eax
ff5039df:	0f b7 00             	movzwl (%eax),%eax
ff5039e2:	66 2b 45 e8          	sub    -0x18(%ebp),%ax
ff5039e6:	66 89 01             	mov    %ax,(%ecx)
ff5039e9:	eb 1b                	jmp    ff503a06 <sleepEnqueue+0x266>
ff5039eb:	0f b7 45 fc          	movzwl -0x4(%ebp),%eax
ff5039ef:	66 89 45 fe          	mov    %ax,-0x2(%ebp)
ff5039f3:	0f b7 45 fa          	movzwl -0x6(%ebp),%eax
ff5039f7:	66 89 45 fc          	mov    %ax,-0x4(%ebp)
ff5039fb:	66 83 7d fc ff       	cmpw   $0xffffffff,-0x4(%ebp)
ff503a00:	0f 85 e5 fe ff ff    	jne    ff5038eb <sleepEnqueue+0x14b>
ff503a06:	c7 45 e4 00 00 00 00 	movl   $0x0,-0x1c(%ebp)
ff503a0d:	8b 45 e4             	mov    -0x1c(%ebp),%eax
ff503a10:	c9                   	leave  
ff503a11:	c3                   	ret    
ff503a12:	8d b4 26 00 00 00 00 	lea    0x0(%esi,%eiz,1),%esi
ff503a19:	8d bc 27 00 00 00 00 	lea    0x0(%edi,%eiz,1),%edi

ff503a20 <sleepDequeue>:
ff503a20:	55                   	push   %ebp
ff503a21:	89 e5                	mov    %esp,%ebp
ff503a23:	83 ec 28             	sub    $0x28,%esp
ff503a26:	66 c7 45 fe ff ff    	movw   $0xffff,-0x2(%ebp)
ff503a2c:	83 7d 08 00          	cmpl   $0x0,0x8(%ebp)
ff503a30:	75 24                	jne    ff503a56 <sleepDequeue+0x36>
ff503a32:	c7 44 24 0c 50 00 00 	movl   $0x50,0xc(%esp)
ff503a39:	00 
ff503a3a:	c7 44 24 08 69 70 50 	movl   $0xff507069,0x8(%esp)
ff503a41:	ff 
ff503a42:	c7 44 24 04 02 70 50 	movl   $0xff507002,0x4(%esp)
ff503a49:	ff 
ff503a4a:	c7 04 24 0a 70 50 ff 	movl   $0xff50700a,(%esp)
ff503a51:	e8 ba ca ff ff       	call   ff500510 <printAssertMsg>
ff503a56:	83 7d 08 00          	cmpl   $0x0,0x8(%ebp)
ff503a5a:	74 0c                	je     ff503a68 <sleepDequeue+0x48>
ff503a5c:	8b 45 08             	mov    0x8(%ebp),%eax
ff503a5f:	0f b7 00             	movzwl (%eax),%eax
ff503a62:	66 83 f8 ff          	cmp    $0xffffffff,%ax
ff503a66:	75 08                	jne    ff503a70 <sleepDequeue+0x50>
ff503a68:	66 c7 45 ee ff ff    	movw   $0xffff,-0x12(%ebp)
ff503a6e:	eb 4a                	jmp    ff503aba <sleepDequeue+0x9a>
ff503a70:	8b 15 48 c0 50 ff    	mov    0xff50c048,%edx
ff503a76:	8b 45 08             	mov    0x8(%ebp),%eax
ff503a79:	0f b7 00             	movzwl (%eax),%eax
ff503a7c:	98                   	cwtl   
ff503a7d:	c1 e0 02             	shl    $0x2,%eax
ff503a80:	8d 04 02             	lea    (%edx,%eax,1),%eax
ff503a83:	0f b7 00             	movzwl (%eax),%eax
ff503a86:	66 85 c0             	test   %ax,%ax
ff503a89:	75 27                	jne    ff503ab2 <sleepDequeue+0x92>
ff503a8b:	8b 45 08             	mov    0x8(%ebp),%eax
ff503a8e:	0f b7 00             	movzwl (%eax),%eax
ff503a91:	66 89 45 fe          	mov    %ax,-0x2(%ebp)
ff503a95:	8b 15 48 c0 50 ff    	mov    0xff50c048,%edx
ff503a9b:	8b 45 08             	mov    0x8(%ebp),%eax
ff503a9e:	0f b7 00             	movzwl (%eax),%eax
ff503aa1:	98                   	cwtl   
ff503aa2:	c1 e0 02             	shl    $0x2,%eax
ff503aa5:	8d 04 02             	lea    (%edx,%eax,1),%eax
ff503aa8:	0f b7 50 02          	movzwl 0x2(%eax),%edx
ff503aac:	8b 45 08             	mov    0x8(%ebp),%eax
ff503aaf:	66 89 10             	mov    %dx,(%eax)
ff503ab2:	0f b7 45 fe          	movzwl -0x2(%ebp),%eax
ff503ab6:	66 89 45 ee          	mov    %ax,-0x12(%ebp)
ff503aba:	0f b7 45 ee          	movzwl -0x12(%ebp),%eax
ff503abe:	c9                   	leave  
ff503abf:	c3                   	ret    

ff503ac0 <enqueue>:
ff503ac0:	55                   	push   %ebp
ff503ac1:	89 e5                	mov    %esp,%ebp
ff503ac3:	83 ec 28             	sub    $0x28,%esp
ff503ac6:	8b 45 0c             	mov    0xc(%ebp),%eax
ff503ac9:	66 89 45 fc          	mov    %ax,-0x4(%ebp)
ff503acd:	83 7d 08 00          	cmpl   $0x0,0x8(%ebp)
ff503ad1:	75 24                	jne    ff503af7 <enqueue+0x37>
ff503ad3:	c7 44 24 0c 60 00 00 	movl   $0x60,0xc(%esp)
ff503ada:	00 
ff503adb:	c7 44 24 08 76 70 50 	movl   $0xff507076,0x8(%esp)
ff503ae2:	ff 
ff503ae3:	c7 44 24 04 02 70 50 	movl   $0xff507002,0x4(%esp)
ff503aea:	ff 
ff503aeb:	c7 04 24 0a 70 50 ff 	movl   $0xff50700a,(%esp)
ff503af2:	e8 19 ca ff ff       	call   ff500510 <printAssertMsg>
ff503af7:	66 83 7d fc ff       	cmpw   $0xffffffff,-0x4(%ebp)
ff503afc:	75 24                	jne    ff503b22 <enqueue+0x62>
ff503afe:	c7 44 24 0c 61 00 00 	movl   $0x61,0xc(%esp)
ff503b05:	00 
ff503b06:	c7 44 24 08 76 70 50 	movl   $0xff507076,0x8(%esp)
ff503b0d:	ff 
ff503b0e:	c7 44 24 04 02 70 50 	movl   $0xff507002,0x4(%esp)
ff503b15:	ff 
ff503b16:	c7 04 24 18 70 50 ff 	movl   $0xff507018,(%esp)
ff503b1d:	e8 ee c9 ff ff       	call   ff500510 <printAssertMsg>
ff503b22:	83 7d 08 00          	cmpl   $0x0,0x8(%ebp)
ff503b26:	74 07                	je     ff503b2f <enqueue+0x6f>
ff503b28:	66 83 7d fc ff       	cmpw   $0xffffffff,-0x4(%ebp)
ff503b2d:	75 40                	jne    ff503b6f <enqueue+0xaf>
ff503b2f:	c7 44 24 14 7e 70 50 	movl   $0xff50707e,0x14(%esp)
ff503b36:	ff 
ff503b37:	c7 44 24 10 ff ff ff 	movl   $0xffffffff,0x10(%esp)
ff503b3e:	ff 
ff503b3f:	c7 44 24 0c 64 00 00 	movl   $0x64,0xc(%esp)
ff503b46:	00 
ff503b47:	c7 44 24 08 76 70 50 	movl   $0xff507076,0x8(%esp)
ff503b4e:	ff 
ff503b4f:	c7 44 24 04 02 70 50 	movl   $0xff507002,0x4(%esp)
ff503b56:	ff 
ff503b57:	c7 04 24 4e 70 50 ff 	movl   $0xff50704e,(%esp)
ff503b5e:	e8 ed cb ff ff       	call   ff500750 <kprintf>
ff503b63:	c7 45 f8 ff ff ff ff 	movl   $0xffffffff,-0x8(%ebp)
ff503b6a:	e9 82 00 00 00       	jmp    ff503bf1 <enqueue+0x131>
ff503b6f:	8b 15 48 c0 50 ff    	mov    0xff50c048,%edx
ff503b75:	0f bf 45 fc          	movswl -0x4(%ebp),%eax
ff503b79:	c1 e0 02             	shl    $0x2,%eax
ff503b7c:	01 c2                	add    %eax,%edx
ff503b7e:	8b 45 08             	mov    0x8(%ebp),%eax
ff503b81:	0f b7 40 02          	movzwl 0x2(%eax),%eax
ff503b85:	66 89 02             	mov    %ax,(%edx)
ff503b88:	8b 15 48 c0 50 ff    	mov    0xff50c048,%edx
ff503b8e:	0f bf 45 fc          	movswl -0x4(%ebp),%eax
ff503b92:	c1 e0 02             	shl    $0x2,%eax
ff503b95:	8d 04 02             	lea    (%edx,%eax,1),%eax
ff503b98:	66 c7 40 02 ff ff    	movw   $0xffff,0x2(%eax)
ff503b9e:	8b 45 08             	mov    0x8(%ebp),%eax
ff503ba1:	0f b7 40 02          	movzwl 0x2(%eax),%eax
ff503ba5:	66 83 f8 ff          	cmp    $0xffffffff,%ax
ff503ba9:	74 1b                	je     ff503bc6 <enqueue+0x106>
ff503bab:	8b 15 48 c0 50 ff    	mov    0xff50c048,%edx
ff503bb1:	8b 45 08             	mov    0x8(%ebp),%eax
ff503bb4:	0f b7 40 02          	movzwl 0x2(%eax),%eax
ff503bb8:	98                   	cwtl   
ff503bb9:	c1 e0 02             	shl    $0x2,%eax
ff503bbc:	01 c2                	add    %eax,%edx
ff503bbe:	0f b7 45 fc          	movzwl -0x4(%ebp),%eax
ff503bc2:	66 89 42 02          	mov    %ax,0x2(%edx)
ff503bc6:	8b 55 08             	mov    0x8(%ebp),%edx
ff503bc9:	0f b7 45 fc          	movzwl -0x4(%ebp),%eax
ff503bcd:	66 89 42 02          	mov    %ax,0x2(%edx)
ff503bd1:	8b 45 08             	mov    0x8(%ebp),%eax
ff503bd4:	0f b7 00             	movzwl (%eax),%eax
ff503bd7:	66 83 f8 ff          	cmp    $0xffffffff,%ax
ff503bdb:	75 0d                	jne    ff503bea <enqueue+0x12a>
ff503bdd:	8b 45 08             	mov    0x8(%ebp),%eax
ff503be0:	0f b7 50 02          	movzwl 0x2(%eax),%edx
ff503be4:	8b 45 08             	mov    0x8(%ebp),%eax
ff503be7:	66 89 10             	mov    %dx,(%eax)
ff503bea:	c7 45 f8 00 00 00 00 	movl   $0x0,-0x8(%ebp)
ff503bf1:	8b 45 f8             	mov    -0x8(%ebp),%eax
ff503bf4:	c9                   	leave  
ff503bf5:	c3                   	ret    
ff503bf6:	8d 76 00             	lea    0x0(%esi),%esi
ff503bf9:	8d bc 27 00 00 00 00 	lea    0x0(%edi,%eiz,1),%edi

ff503c00 <detachQueue>:
ff503c00:	55                   	push   %ebp
ff503c01:	89 e5                	mov    %esp,%ebp
ff503c03:	83 ec 28             	sub    $0x28,%esp
ff503c06:	8b 45 0c             	mov    0xc(%ebp),%eax
ff503c09:	66 89 45 ec          	mov    %ax,-0x14(%ebp)
ff503c0d:	83 7d 08 00          	cmpl   $0x0,0x8(%ebp)
ff503c11:	75 24                	jne    ff503c37 <detachQueue+0x37>
ff503c13:	c7 44 24 0c 79 00 00 	movl   $0x79,0xc(%esp)
ff503c1a:	00 
ff503c1b:	c7 44 24 08 8b 70 50 	movl   $0xff50708b,0x8(%esp)
ff503c22:	ff 
ff503c23:	c7 44 24 04 02 70 50 	movl   $0xff507002,0x4(%esp)
ff503c2a:	ff 
ff503c2b:	c7 04 24 0a 70 50 ff 	movl   $0xff50700a,(%esp)
ff503c32:	e8 d9 c8 ff ff       	call   ff500510 <printAssertMsg>
ff503c37:	83 7d 08 00          	cmpl   $0x0,0x8(%ebp)
ff503c3b:	74 13                	je     ff503c50 <detachQueue+0x50>
ff503c3d:	8b 45 08             	mov    0x8(%ebp),%eax
ff503c40:	0f b7 00             	movzwl (%eax),%eax
ff503c43:	66 83 f8 ff          	cmp    $0xffffffff,%ax
ff503c47:	74 07                	je     ff503c50 <detachQueue+0x50>
ff503c49:	66 83 7d ec ff       	cmpw   $0xffffffff,-0x14(%ebp)
ff503c4e:	75 0b                	jne    ff503c5b <detachQueue+0x5b>
ff503c50:	66 c7 45 ea ff ff    	movw   $0xffff,-0x16(%ebp)
ff503c56:	e9 07 01 00 00       	jmp    ff503d62 <detachQueue+0x162>
ff503c5b:	8b 45 08             	mov    0x8(%ebp),%eax
ff503c5e:	0f b7 00             	movzwl (%eax),%eax
ff503c61:	66 89 45 fa          	mov    %ax,-0x6(%ebp)
ff503c65:	e9 e7 00 00 00       	jmp    ff503d51 <detachQueue+0x151>
ff503c6a:	8b 15 48 c0 50 ff    	mov    0xff50c048,%edx
ff503c70:	0f bf 45 fa          	movswl -0x6(%ebp),%eax
ff503c74:	c1 e0 02             	shl    $0x2,%eax
ff503c77:	8d 04 02             	lea    (%edx,%eax,1),%eax
ff503c7a:	89 45 fc             	mov    %eax,-0x4(%ebp)
ff503c7d:	0f b7 45 fa          	movzwl -0x6(%ebp),%eax
ff503c81:	66 3b 45 ec          	cmp    -0x14(%ebp),%ax
ff503c85:	0f 85 bb 00 00 00    	jne    ff503d46 <detachQueue+0x146>
ff503c8b:	8b 45 fc             	mov    -0x4(%ebp),%eax
ff503c8e:	0f b7 00             	movzwl (%eax),%eax
ff503c91:	66 83 f8 ff          	cmp    $0xffffffff,%ax
ff503c95:	74 1d                	je     ff503cb4 <detachQueue+0xb4>
ff503c97:	8b 15 48 c0 50 ff    	mov    0xff50c048,%edx
ff503c9d:	8b 45 fc             	mov    -0x4(%ebp),%eax
ff503ca0:	0f b7 00             	movzwl (%eax),%eax
ff503ca3:	98                   	cwtl   
ff503ca4:	c1 e0 02             	shl    $0x2,%eax
ff503ca7:	01 c2                	add    %eax,%edx
ff503ca9:	8b 45 fc             	mov    -0x4(%ebp),%eax
ff503cac:	0f b7 40 02          	movzwl 0x2(%eax),%eax
ff503cb0:	66 89 42 02          	mov    %ax,0x2(%edx)
ff503cb4:	8b 45 fc             	mov    -0x4(%ebp),%eax
ff503cb7:	0f b7 40 02          	movzwl 0x2(%eax),%eax
ff503cbb:	66 83 f8 ff          	cmp    $0xffffffff,%ax
ff503cbf:	74 1c                	je     ff503cdd <detachQueue+0xdd>
ff503cc1:	8b 15 48 c0 50 ff    	mov    0xff50c048,%edx
ff503cc7:	8b 45 fc             	mov    -0x4(%ebp),%eax
ff503cca:	0f b7 40 02          	movzwl 0x2(%eax),%eax
ff503cce:	98                   	cwtl   
ff503ccf:	c1 e0 02             	shl    $0x2,%eax
ff503cd2:	01 c2                	add    %eax,%edx
ff503cd4:	8b 45 fc             	mov    -0x4(%ebp),%eax
ff503cd7:	0f b7 00             	movzwl (%eax),%eax
ff503cda:	66 89 02             	mov    %ax,(%edx)
ff503cdd:	8b 45 08             	mov    0x8(%ebp),%eax
ff503ce0:	0f b7 00             	movzwl (%eax),%eax
ff503ce3:	66 3b 45 fa          	cmp    -0x6(%ebp),%ax
ff503ce7:	75 0d                	jne    ff503cf6 <detachQueue+0xf6>
ff503ce9:	8b 45 fc             	mov    -0x4(%ebp),%eax
ff503cec:	0f b7 50 02          	movzwl 0x2(%eax),%edx
ff503cf0:	8b 45 08             	mov    0x8(%ebp),%eax
ff503cf3:	66 89 10             	mov    %dx,(%eax)
ff503cf6:	8b 45 08             	mov    0x8(%ebp),%eax
ff503cf9:	0f b7 40 02          	movzwl 0x2(%eax),%eax
ff503cfd:	66 3b 45 fa          	cmp    -0x6(%ebp),%ax
ff503d01:	75 0d                	jne    ff503d10 <detachQueue+0x110>
ff503d03:	8b 45 fc             	mov    -0x4(%ebp),%eax
ff503d06:	0f b7 10             	movzwl (%eax),%edx
ff503d09:	8b 45 08             	mov    0x8(%ebp),%eax
ff503d0c:	66 89 50 02          	mov    %dx,0x2(%eax)
ff503d10:	8b 15 48 c0 50 ff    	mov    0xff50c048,%edx
ff503d16:	0f bf 45 fa          	movswl -0x6(%ebp),%eax
ff503d1a:	c1 e0 02             	shl    $0x2,%eax
ff503d1d:	8d 0c 02             	lea    (%edx,%eax,1),%ecx
ff503d20:	8b 15 48 c0 50 ff    	mov    0xff50c048,%edx
ff503d26:	0f bf 45 fa          	movswl -0x6(%ebp),%eax
ff503d2a:	c1 e0 02             	shl    $0x2,%eax
ff503d2d:	8d 04 02             	lea    (%edx,%eax,1),%eax
ff503d30:	66 c7 00 ff ff       	movw   $0xffff,(%eax)
ff503d35:	0f b7 00             	movzwl (%eax),%eax
ff503d38:	66 89 41 02          	mov    %ax,0x2(%ecx)
ff503d3c:	0f b7 45 fa          	movzwl -0x6(%ebp),%eax
ff503d40:	66 89 45 ea          	mov    %ax,-0x16(%ebp)
ff503d44:	eb 1c                	jmp    ff503d62 <detachQueue+0x162>
ff503d46:	8b 45 fc             	mov    -0x4(%ebp),%eax
ff503d49:	0f b7 40 02          	movzwl 0x2(%eax),%eax
ff503d4d:	66 89 45 fa          	mov    %ax,-0x6(%ebp)
ff503d51:	66 83 7d fa ff       	cmpw   $0xffffffff,-0x6(%ebp)
ff503d56:	0f 85 0e ff ff ff    	jne    ff503c6a <detachQueue+0x6a>
ff503d5c:	66 c7 45 ea ff ff    	movw   $0xffff,-0x16(%ebp)
ff503d62:	0f b7 45 ea          	movzwl -0x16(%ebp),%eax
ff503d66:	c9                   	leave  
ff503d67:	c3                   	ret    
ff503d68:	90                   	nop    
ff503d69:	8d b4 26 00 00 00 00 	lea    0x0(%esi,%eiz,1),%esi

ff503d70 <dequeue>:
ff503d70:	55                   	push   %ebp
ff503d71:	89 e5                	mov    %esp,%ebp
ff503d73:	83 ec 18             	sub    $0x18,%esp
ff503d76:	83 7d 08 00          	cmpl   $0x0,0x8(%ebp)
ff503d7a:	75 24                	jne    ff503da0 <dequeue+0x30>
ff503d7c:	c7 44 24 0c 9a 00 00 	movl   $0x9a,0xc(%esp)
ff503d83:	00 
ff503d84:	c7 44 24 08 97 70 50 	movl   $0xff507097,0x8(%esp)
ff503d8b:	ff 
ff503d8c:	c7 44 24 04 02 70 50 	movl   $0xff507002,0x4(%esp)
ff503d93:	ff 
ff503d94:	c7 04 24 0a 70 50 ff 	movl   $0xff50700a,(%esp)
ff503d9b:	e8 70 c7 ff ff       	call   ff500510 <printAssertMsg>
ff503da0:	83 7d 08 00          	cmpl   $0x0,0x8(%ebp)
ff503da4:	75 08                	jne    ff503dae <dequeue+0x3e>
ff503da6:	66 c7 45 fe ff ff    	movw   $0xffff,-0x2(%ebp)
ff503dac:	eb 1a                	jmp    ff503dc8 <dequeue+0x58>
ff503dae:	8b 45 08             	mov    0x8(%ebp),%eax
ff503db1:	0f b7 00             	movzwl (%eax),%eax
ff503db4:	98                   	cwtl   
ff503db5:	89 44 24 04          	mov    %eax,0x4(%esp)
ff503db9:	8b 45 08             	mov    0x8(%ebp),%eax
ff503dbc:	89 04 24             	mov    %eax,(%esp)
ff503dbf:	e8 3c fe ff ff       	call   ff503c00 <detachQueue>
ff503dc4:	66 89 45 fe          	mov    %ax,-0x2(%ebp)
ff503dc8:	0f b7 45 fe          	movzwl -0x2(%ebp),%eax
ff503dcc:	c9                   	leave  
ff503dcd:	c3                   	ret    
	...

ff503dd0 <idle>:
ff503dd0:	fa                   	cli    
ff503dd1:	e8 6a 66 00 00       	call   ff50a440 <init2>
ff503dd6:	fb                   	sti    

ff503dd7 <.halt>:
ff503dd7:	f4                   	hlt    
ff503dd8:	eb fd                	jmp    ff503dd7 <.halt>
ff503dda:	8d b6 00 00 00 00    	lea    0x0(%esi),%esi

ff503de0 <schedule>:
ff503de0:	55                   	push   %ebp
ff503de1:	89 e5                	mov    %esp,%ebp
ff503de3:	53                   	push   %ebx
ff503de4:	83 ec 24             	sub    $0x24,%esp
ff503de7:	83 7d 08 00          	cmpl   $0x0,0x8(%ebp)
ff503deb:	75 24                	jne    ff503e11 <schedule+0x31>
ff503ded:	c7 44 24 0c 33 00 00 	movl   $0x33,0xc(%esp)
ff503df4:	00 
ff503df5:	c7 44 24 08 a0 70 50 	movl   $0xff5070a0,0x8(%esp)
ff503dfc:	ff 
ff503dfd:	c7 44 24 04 a9 70 50 	movl   $0xff5070a9,0x4(%esp)
ff503e04:	ff 
ff503e05:	c7 04 24 b4 70 50 ff 	movl   $0xff5070b4,(%esp)
ff503e0c:	e8 ff c6 ff ff       	call   ff500510 <printAssertMsg>
ff503e11:	83 7d 08 00          	cmpl   $0x0,0x8(%ebp)
ff503e15:	75 0c                	jne    ff503e23 <schedule+0x43>
ff503e17:	c7 45 e8 00 00 00 00 	movl   $0x0,-0x18(%ebp)
ff503e1e:	e9 71 04 00 00       	jmp    ff504294 <schedule+0x4b4>
ff503e23:	a1 50 c0 50 ff       	mov    0xff50c050,%eax
ff503e28:	39 45 08             	cmp    %eax,0x8(%ebp)
ff503e2b:	74 24                	je     ff503e51 <schedule+0x71>
ff503e2d:	c7 44 24 0c 3d 00 00 	movl   $0x3d,0xc(%esp)
ff503e34:	00 
ff503e35:	c7 44 24 08 a0 70 50 	movl   $0xff5070a0,0x8(%esp)
ff503e3c:	ff 
ff503e3d:	c7 44 24 04 a9 70 50 	movl   $0xff5070a9,0x4(%esp)
ff503e44:	ff 
ff503e45:	c7 04 24 c3 70 50 ff 	movl   $0xff5070c3,(%esp)
ff503e4c:	e8 bf c6 ff ff       	call   ff500510 <printAssertMsg>
ff503e51:	8b 45 08             	mov    0x8(%ebp),%eax
ff503e54:	0f b6 40 05          	movzbl 0x5(%eax),%eax
ff503e58:	83 e0 0f             	and    $0xf,%eax
ff503e5b:	3c 03                	cmp    $0x3,%al
ff503e5d:	75 24                	jne    ff503e83 <schedule+0xa3>
ff503e5f:	c7 44 24 0c 3e 00 00 	movl   $0x3e,0xc(%esp)
ff503e66:	00 
ff503e67:	c7 44 24 08 a0 70 50 	movl   $0xff5070a0,0x8(%esp)
ff503e6e:	ff 
ff503e6f:	c7 44 24 04 a9 70 50 	movl   $0xff5070a9,0x4(%esp)
ff503e76:	ff 
ff503e77:	c7 04 24 db 70 50 ff 	movl   $0xff5070db,(%esp)
ff503e7e:	e8 8d c6 ff ff       	call   ff500510 <printAssertMsg>
ff503e83:	8b 45 08             	mov    0x8(%ebp),%eax
ff503e86:	0f b6 40 05          	movzbl 0x5(%eax),%eax
ff503e8a:	83 e0 0f             	and    $0xf,%eax
ff503e8d:	3c 04                	cmp    $0x4,%al
ff503e8f:	74 12                	je     ff503ea3 <schedule+0xc3>
ff503e91:	8b 45 08             	mov    0x8(%ebp),%eax
ff503e94:	0f b6 40 05          	movzbl 0x5(%eax),%eax
ff503e98:	83 e0 0f             	and    $0xf,%eax
ff503e9b:	3c 03                	cmp    $0x3,%al
ff503e9d:	0f 85 bf 00 00 00    	jne    ff503f62 <schedule+0x182>
ff503ea3:	a1 64 c0 50 ff       	mov    0xff50c064,%eax
ff503ea8:	39 45 08             	cmp    %eax,0x8(%ebp)
ff503eab:	74 7c                	je     ff503f29 <schedule+0x149>
ff503ead:	8b 45 08             	mov    0x8(%ebp),%eax
ff503eb0:	0f b6 40 04          	movzbl 0x4(%eax),%eax
ff503eb4:	84 c0                	test   %al,%al
ff503eb6:	75 71                	jne    ff503f29 <schedule+0x149>
ff503eb8:	8b 45 08             	mov    0x8(%ebp),%eax
ff503ebb:	0f b6 40 05          	movzbl 0x5(%eax),%eax
ff503ebf:	c0 e8 04             	shr    $0x4,%al
ff503ec2:	83 e0 07             	and    $0x7,%eax
ff503ec5:	0f b6 c0             	movzbl %al,%eax
ff503ec8:	83 f8 06             	cmp    $0x6,%eax
ff503ecb:	7f 5c                	jg     ff503f29 <schedule+0x149>
ff503ecd:	8b 45 08             	mov    0x8(%ebp),%eax
ff503ed0:	0f b6 40 05          	movzbl 0x5(%eax),%eax
ff503ed4:	83 e0 0f             	and    $0xf,%eax
ff503ed7:	3c 03                	cmp    $0x3,%al
ff503ed9:	75 0b                	jne    ff503ee6 <schedule+0x106>
ff503edb:	8b 45 08             	mov    0x8(%ebp),%eax
ff503ede:	89 04 24             	mov    %eax,(%esp)
ff503ee1:	e8 fa 06 00 00       	call   ff5045e0 <detachRunQueue>
ff503ee6:	8b 45 08             	mov    0x8(%ebp),%eax
ff503ee9:	0f b6 40 05          	movzbl 0x5(%eax),%eax
ff503eed:	c0 e8 04             	shr    $0x4,%al
ff503ef0:	83 e0 07             	and    $0x7,%eax
ff503ef3:	83 c0 01             	add    $0x1,%eax
ff503ef6:	83 e0 07             	and    $0x7,%eax
ff503ef9:	8b 4d 08             	mov    0x8(%ebp),%ecx
ff503efc:	83 e0 07             	and    $0x7,%eax
ff503eff:	89 c2                	mov    %eax,%edx
ff503f01:	c1 e2 04             	shl    $0x4,%edx
ff503f04:	0f b6 41 05          	movzbl 0x5(%ecx),%eax
ff503f08:	83 e0 8f             	and    $0xffffff8f,%eax
ff503f0b:	09 d0                	or     %edx,%eax
ff503f0d:	88 41 05             	mov    %al,0x5(%ecx)
ff503f10:	8b 45 08             	mov    0x8(%ebp),%eax
ff503f13:	0f b6 40 05          	movzbl 0x5(%eax),%eax
ff503f17:	83 e0 0f             	and    $0xf,%eax
ff503f1a:	3c 03                	cmp    $0x3,%al
ff503f1c:	75 0b                	jne    ff503f29 <schedule+0x149>
ff503f1e:	8b 45 08             	mov    0x8(%ebp),%eax
ff503f21:	89 04 24             	mov    %eax,(%esp)
ff503f24:	e8 07 05 00 00       	call   ff504430 <attachRunQueue>
ff503f29:	8b 55 08             	mov    0x8(%ebp),%edx
ff503f2c:	0f b6 42 05          	movzbl 0x5(%edx),%eax
ff503f30:	83 e0 f0             	and    $0xfffffff0,%eax
ff503f33:	83 c8 03             	or     $0x3,%eax
ff503f36:	88 42 05             	mov    %al,0x5(%edx)
ff503f39:	a1 64 c0 50 ff       	mov    0xff50c064,%eax
ff503f3e:	39 45 08             	cmp    %eax,0x8(%ebp)
ff503f41:	75 09                	jne    ff503f4c <schedule+0x16c>
ff503f43:	8b 45 08             	mov    0x8(%ebp),%eax
ff503f46:	c6 40 04 01          	movb   $0x1,0x4(%eax)
ff503f4a:	eb 16                	jmp    ff503f62 <schedule+0x182>
ff503f4c:	8b 45 08             	mov    0x8(%ebp),%eax
ff503f4f:	0f b6 40 05          	movzbl 0x5(%eax),%eax
ff503f53:	c0 e8 04             	shr    $0x4,%al
ff503f56:	83 e0 07             	and    $0x7,%eax
ff503f59:	8d 50 01             	lea    0x1(%eax),%edx
ff503f5c:	8b 45 08             	mov    0x8(%ebp),%eax
ff503f5f:	88 50 04             	mov    %dl,0x4(%eax)
ff503f62:	c7 45 f0 00 00 00 00 	movl   $0x0,-0x10(%ebp)
ff503f69:	e9 59 01 00 00       	jmp    ff5040c7 <schedule+0x2e7>
ff503f6e:	8b 15 44 c0 50 ff    	mov    0xff50c044,%edx
ff503f74:	8b 45 f0             	mov    -0x10(%ebp),%eax
ff503f77:	c1 e0 02             	shl    $0x2,%eax
ff503f7a:	8d 04 02             	lea    (%edx,%eax,1),%eax
ff503f7d:	0f b7 40 02          	movzwl 0x2(%eax),%eax
ff503f81:	66 83 f8 ff          	cmp    $0xffffffff,%ax
ff503f85:	75 1c                	jne    ff503fa3 <schedule+0x1c3>
ff503f87:	8b 15 44 c0 50 ff    	mov    0xff50c044,%edx
ff503f8d:	8b 45 f0             	mov    -0x10(%ebp),%eax
ff503f90:	c1 e0 02             	shl    $0x2,%eax
ff503f93:	8d 04 02             	lea    (%edx,%eax,1),%eax
ff503f96:	0f b7 00             	movzwl (%eax),%eax
ff503f99:	66 83 f8 ff          	cmp    $0xffffffff,%ax
ff503f9d:	0f 84 20 01 00 00    	je     ff5040c3 <schedule+0x2e3>
ff503fa3:	8b 15 44 c0 50 ff    	mov    0xff50c044,%edx
ff503fa9:	8b 45 f0             	mov    -0x10(%ebp),%eax
ff503fac:	c1 e0 02             	shl    $0x2,%eax
ff503faf:	8d 04 02             	lea    (%edx,%eax,1),%eax
ff503fb2:	0f b7 08             	movzwl (%eax),%ecx
ff503fb5:	8b 55 08             	mov    0x8(%ebp),%edx
ff503fb8:	a1 3c c0 50 ff       	mov    0xff50c03c,%eax
ff503fbd:	89 d3                	mov    %edx,%ebx
ff503fbf:	29 c3                	sub    %eax,%ebx
ff503fc1:	89 d8                	mov    %ebx,%eax
ff503fc3:	c1 f8 03             	sar    $0x3,%eax
ff503fc6:	69 c0 a3 8b 2e ba    	imul   $0xba2e8ba3,%eax,%eax
ff503fcc:	66 39 c1             	cmp    %ax,%cx
ff503fcf:	75 24                	jne    ff503ff5 <schedule+0x215>
ff503fd1:	c7 44 24 0c 63 00 00 	movl   $0x63,0xc(%esp)
ff503fd8:	00 
ff503fd9:	c7 44 24 08 a0 70 50 	movl   $0xff5070a0,0x8(%esp)
ff503fe0:	ff 
ff503fe1:	c7 44 24 04 a9 70 50 	movl   $0xff5070a9,0x4(%esp)
ff503fe8:	ff 
ff503fe9:	c7 04 24 f4 70 50 ff 	movl   $0xff5070f4,(%esp)
ff503ff0:	e8 1b c5 ff ff       	call   ff500510 <printAssertMsg>
ff503ff5:	8b 15 44 c0 50 ff    	mov    0xff50c044,%edx
ff503ffb:	8b 45 f0             	mov    -0x10(%ebp),%eax
ff503ffe:	c1 e0 02             	shl    $0x2,%eax
ff504001:	8d 04 02             	lea    (%edx,%eax,1),%eax
ff504004:	0f b7 48 02          	movzwl 0x2(%eax),%ecx
ff504008:	8b 55 08             	mov    0x8(%ebp),%edx
ff50400b:	a1 3c c0 50 ff       	mov    0xff50c03c,%eax
ff504010:	89 d3                	mov    %edx,%ebx
ff504012:	29 c3                	sub    %eax,%ebx
ff504014:	89 d8                	mov    %ebx,%eax
ff504016:	c1 f8 03             	sar    $0x3,%eax
ff504019:	69 c0 a3 8b 2e ba    	imul   $0xba2e8ba3,%eax,%eax
ff50401f:	66 39 c1             	cmp    %ax,%cx
ff504022:	75 24                	jne    ff504048 <schedule+0x268>
ff504024:	c7 44 24 0c 64 00 00 	movl   $0x64,0xc(%esp)
ff50402b:	00 
ff50402c:	c7 44 24 08 a0 70 50 	movl   $0xff5070a0,0x8(%esp)
ff504033:	ff 
ff504034:	c7 44 24 04 a9 70 50 	movl   $0xff5070a9,0x4(%esp)
ff50403b:	ff 
ff50403c:	c7 04 24 20 71 50 ff 	movl   $0xff507120,(%esp)
ff504043:	e8 c8 c4 ff ff       	call   ff500510 <printAssertMsg>
ff504048:	8b 15 44 c0 50 ff    	mov    0xff50c044,%edx
ff50404e:	8b 45 f0             	mov    -0x10(%ebp),%eax
ff504051:	c1 e0 02             	shl    $0x2,%eax
ff504054:	8d 04 02             	lea    (%edx,%eax,1),%eax
ff504057:	0f b7 00             	movzwl (%eax),%eax
ff50405a:	66 83 f8 ff          	cmp    $0xffffffff,%ax
ff50405e:	75 24                	jne    ff504084 <schedule+0x2a4>
ff504060:	c7 44 24 0c 65 00 00 	movl   $0x65,0xc(%esp)
ff504067:	00 
ff504068:	c7 44 24 08 a0 70 50 	movl   $0xff5070a0,0x8(%esp)
ff50406f:	ff 
ff504070:	c7 44 24 04 a9 70 50 	movl   $0xff5070a9,0x4(%esp)
ff504077:	ff 
ff504078:	c7 04 24 4c 71 50 ff 	movl   $0xff50714c,(%esp)
ff50407f:	e8 8c c4 ff ff       	call   ff500510 <printAssertMsg>
ff504084:	8b 15 44 c0 50 ff    	mov    0xff50c044,%edx
ff50408a:	8b 45 f0             	mov    -0x10(%ebp),%eax
ff50408d:	c1 e0 02             	shl    $0x2,%eax
ff504090:	8d 04 02             	lea    (%edx,%eax,1),%eax
ff504093:	0f b7 40 02          	movzwl 0x2(%eax),%eax
ff504097:	66 83 f8 ff          	cmp    $0xffffffff,%ax
ff50409b:	75 34                	jne    ff5040d1 <schedule+0x2f1>
ff50409d:	c7 44 24 0c 66 00 00 	movl   $0x66,0xc(%esp)
ff5040a4:	00 
ff5040a5:	c7 44 24 08 a0 70 50 	movl   $0xff5070a0,0x8(%esp)
ff5040ac:	ff 
ff5040ad:	c7 44 24 04 a9 70 50 	movl   $0xff5070a9,0x4(%esp)
ff5040b4:	ff 
ff5040b5:	c7 04 24 70 71 50 ff 	movl   $0xff507170,(%esp)
ff5040bc:	e8 4f c4 ff ff       	call   ff500510 <printAssertMsg>
ff5040c1:	eb 0e                	jmp    ff5040d1 <schedule+0x2f1>
ff5040c3:	83 45 f0 01          	addl   $0x1,-0x10(%ebp)
ff5040c7:	83 7d f0 07          	cmpl   $0x7,-0x10(%ebp)
ff5040cb:	0f 8e 9d fe ff ff    	jle    ff503f6e <schedule+0x18e>
ff5040d1:	83 7d f0 07          	cmpl   $0x7,-0x10(%ebp)
ff5040d5:	7e 76                	jle    ff50414d <schedule+0x36d>
ff5040d7:	8b 45 08             	mov    0x8(%ebp),%eax
ff5040da:	0f b6 40 05          	movzbl 0x5(%eax),%eax
ff5040de:	83 e0 0f             	and    $0xf,%eax
ff5040e1:	3c 03                	cmp    $0x3,%al
ff5040e3:	75 51                	jne    ff504136 <schedule+0x356>
ff5040e5:	a1 64 c0 50 ff       	mov    0xff50c064,%eax
ff5040ea:	39 45 08             	cmp    %eax,0x8(%ebp)
ff5040ed:	74 47                	je     ff504136 <schedule+0x356>
ff5040ef:	8b 45 08             	mov    0x8(%ebp),%eax
ff5040f2:	a3 50 c0 50 ff       	mov    %eax,0xff50c050
ff5040f7:	a1 50 c0 50 ff       	mov    0xff50c050,%eax
ff5040fc:	89 45 f8             	mov    %eax,-0x8(%ebp)
ff5040ff:	a1 64 c0 50 ff       	mov    0xff50c064,%eax
ff504104:	39 45 08             	cmp    %eax,0x8(%ebp)
ff504107:	0f 85 21 01 00 00    	jne    ff50422e <schedule+0x44e>
ff50410d:	c7 44 24 0c 71 00 00 	movl   $0x71,0xc(%esp)
ff504114:	00 
ff504115:	c7 44 24 08 a0 70 50 	movl   $0xff5070a0,0x8(%esp)
ff50411c:	ff 
ff50411d:	c7 44 24 04 a9 70 50 	movl   $0xff5070a9,0x4(%esp)
ff504124:	ff 
ff504125:	c7 04 24 94 71 50 ff 	movl   $0xff507194,(%esp)
ff50412c:	e8 df c3 ff ff       	call   ff500510 <printAssertMsg>
ff504131:	e9 f8 00 00 00       	jmp    ff50422e <schedule+0x44e>
ff504136:	a1 64 c0 50 ff       	mov    0xff50c064,%eax
ff50413b:	a3 50 c0 50 ff       	mov    %eax,0xff50c050
ff504140:	a1 50 c0 50 ff       	mov    0xff50c050,%eax
ff504145:	89 45 f8             	mov    %eax,-0x8(%ebp)
ff504148:	e9 e1 00 00 00       	jmp    ff50422e <schedule+0x44e>
ff50414d:	8b 15 44 c0 50 ff    	mov    0xff50c044,%edx
ff504153:	8b 45 f0             	mov    -0x10(%ebp),%eax
ff504156:	c1 e0 02             	shl    $0x2,%eax
ff504159:	8d 04 02             	lea    (%edx,%eax,1),%eax
ff50415c:	89 04 24             	mov    %eax,(%esp)
ff50415f:	e8 0c fc ff ff       	call   ff503d70 <dequeue>
ff504164:	66 89 45 f6          	mov    %ax,-0xa(%ebp)
ff504168:	66 83 7d f6 ff       	cmpw   $0xffffffff,-0xa(%ebp)
ff50416d:	75 24                	jne    ff504193 <schedule+0x3b3>
ff50416f:	c7 44 24 0c 7d 00 00 	movl   $0x7d,0xc(%esp)
ff504176:	00 
ff504177:	c7 44 24 08 a0 70 50 	movl   $0xff5070a0,0x8(%esp)
ff50417e:	ff 
ff50417f:	c7 44 24 04 a9 70 50 	movl   $0xff5070a9,0x4(%esp)
ff504186:	ff 
ff504187:	c7 04 24 a9 71 50 ff 	movl   $0xff5071a9,(%esp)
ff50418e:	e8 7d c3 ff ff       	call   ff500510 <printAssertMsg>
ff504193:	a1 3c c0 50 ff       	mov    0xff50c03c,%eax
ff504198:	89 c2                	mov    %eax,%edx
ff50419a:	0f bf 45 f6          	movswl -0xa(%ebp),%eax
ff50419e:	6b c0 58             	imul   $0x58,%eax,%eax
ff5041a1:	8d 04 02             	lea    (%edx,%eax,1),%eax
ff5041a4:	a3 50 c0 50 ff       	mov    %eax,0xff50c050
ff5041a9:	a1 50 c0 50 ff       	mov    0xff50c050,%eax
ff5041ae:	89 45 f8             	mov    %eax,-0x8(%ebp)
ff5041b1:	8b 45 f8             	mov    -0x8(%ebp),%eax
ff5041b4:	0f b6 40 05          	movzbl 0x5(%eax),%eax
ff5041b8:	83 e0 0f             	and    $0xf,%eax
ff5041bb:	3c 03                	cmp    $0x3,%al
ff5041bd:	74 24                	je     ff5041e3 <schedule+0x403>
ff5041bf:	c7 44 24 0c 82 00 00 	movl   $0x82,0xc(%esp)
ff5041c6:	00 
ff5041c7:	c7 44 24 08 a0 70 50 	movl   $0xff5070a0,0x8(%esp)
ff5041ce:	ff 
ff5041cf:	c7 44 24 04 a9 70 50 	movl   $0xff5070a9,0x4(%esp)
ff5041d6:	ff 
ff5041d7:	c7 04 24 bc 71 50 ff 	movl   $0xff5071bc,(%esp)
ff5041de:	e8 2d c3 ff ff       	call   ff500510 <printAssertMsg>
ff5041e3:	8b 45 08             	mov    0x8(%ebp),%eax
ff5041e6:	0f b6 40 05          	movzbl 0x5(%eax),%eax
ff5041ea:	83 e0 0f             	and    $0xf,%eax
ff5041ed:	3c 03                	cmp    $0x3,%al
ff5041ef:	75 3d                	jne    ff50422e <schedule+0x44e>
ff5041f1:	a1 64 c0 50 ff       	mov    0xff50c064,%eax
ff5041f6:	39 45 08             	cmp    %eax,0x8(%ebp)
ff5041f9:	74 33                	je     ff50422e <schedule+0x44e>
ff5041fb:	8b 45 08             	mov    0x8(%ebp),%eax
ff5041fe:	89 04 24             	mov    %eax,(%esp)
ff504201:	e8 2a 02 00 00       	call   ff504430 <attachRunQueue>
ff504206:	85 c0                	test   %eax,%eax
ff504208:	74 24                	je     ff50422e <schedule+0x44e>
ff50420a:	c7 44 24 0c 87 00 00 	movl   $0x87,0xc(%esp)
ff504211:	00 
ff504212:	c7 44 24 08 a0 70 50 	movl   $0xff5070a0,0x8(%esp)
ff504219:	ff 
ff50421a:	c7 44 24 04 a9 70 50 	movl   $0xff5070a9,0x4(%esp)
ff504221:	ff 
ff504222:	c7 04 24 d8 71 50 ff 	movl   $0xff5071d8,(%esp)
ff504229:	e8 e2 c2 ff ff       	call   ff500510 <printAssertMsg>
ff50422e:	83 7d f8 00          	cmpl   $0x0,-0x8(%ebp)
ff504232:	75 24                	jne    ff504258 <schedule+0x478>
ff504234:	c7 44 24 0c 8e 00 00 	movl   $0x8e,0xc(%esp)
ff50423b:	00 
ff50423c:	c7 44 24 08 a0 70 50 	movl   $0xff5070a0,0x8(%esp)
ff504243:	ff 
ff504244:	c7 44 24 04 a9 70 50 	movl   $0xff5070a9,0x4(%esp)
ff50424b:	ff 
ff50424c:	c7 04 24 fd 71 50 ff 	movl   $0xff5071fd,(%esp)
ff504253:	e8 b8 c2 ff ff       	call   ff500510 <printAssertMsg>
ff504258:	8b 0d 50 c0 50 ff    	mov    0xff50c050,%ecx
ff50425e:	8b 55 f8             	mov    -0x8(%ebp),%edx
ff504261:	0f b6 42 05          	movzbl 0x5(%edx),%eax
ff504265:	83 e0 f0             	and    $0xfffffff0,%eax
ff504268:	83 c8 04             	or     $0x4,%eax
ff50426b:	88 42 05             	mov    %al,0x5(%edx)
ff50426e:	8b 45 f8             	mov    -0x8(%ebp),%eax
ff504271:	0f b6 40 05          	movzbl 0x5(%eax),%eax
ff504275:	83 e0 0f             	and    $0xf,%eax
ff504278:	89 c2                	mov    %eax,%edx
ff50427a:	83 e2 0f             	and    $0xf,%edx
ff50427d:	0f b6 41 05          	movzbl 0x5(%ecx),%eax
ff504281:	83 e0 f0             	and    $0xfffffff0,%eax
ff504284:	09 d0                	or     %edx,%eax
ff504286:	88 41 05             	mov    %al,0x5(%ecx)
ff504289:	e8 d2 c2 ff ff       	call   ff500560 <incSchedCount>
ff50428e:	8b 45 f8             	mov    -0x8(%ebp),%eax
ff504291:	89 45 e8             	mov    %eax,-0x18(%ebp)
ff504294:	8b 45 e8             	mov    -0x18(%ebp),%eax
ff504297:	83 c4 24             	add    $0x24,%esp
ff50429a:	5b                   	pop    %ebx
ff50429b:	5d                   	pop    %ebp
ff50429c:	c3                   	ret    
ff50429d:	8d 76 00             	lea    0x0(%esi),%esi

ff5042a0 <sysYield>:
ff5042a0:	55                   	push   %ebp
ff5042a1:	89 e5                	mov    %esp,%ebp
ff5042a3:	83 ec 18             	sub    $0x18,%esp
ff5042a6:	83 7d 08 00          	cmpl   $0x0,0x8(%ebp)
ff5042aa:	75 24                	jne    ff5042d0 <sysYield+0x30>
ff5042ac:	c7 44 24 0c a0 00 00 	movl   $0xa0,0xc(%esp)
ff5042b3:	00 
ff5042b4:	c7 44 24 08 0f 72 50 	movl   $0xff50720f,0x8(%esp)
ff5042bb:	ff 
ff5042bc:	c7 44 24 04 a9 70 50 	movl   $0xff5070a9,0x4(%esp)
ff5042c3:	ff 
ff5042c4:	c7 04 24 b4 70 50 ff 	movl   $0xff5070b4,(%esp)
ff5042cb:	e8 40 c2 ff ff       	call   ff500510 <printAssertMsg>
ff5042d0:	83 7d 08 00          	cmpl   $0x0,0x8(%ebp)
ff5042d4:	75 09                	jne    ff5042df <sysYield+0x3f>
ff5042d6:	c7 45 fc ff ff ff ff 	movl   $0xffffffff,-0x4(%ebp)
ff5042dd:	eb 3e                	jmp    ff50431d <sysYield+0x7d>
ff5042df:	8b 55 08             	mov    0x8(%ebp),%edx
ff5042e2:	a1 50 c0 50 ff       	mov    0xff50c050,%eax
ff5042e7:	39 c2                	cmp    %eax,%edx
ff5042e9:	74 24                	je     ff50430f <sysYield+0x6f>
ff5042eb:	c7 44 24 0c a5 00 00 	movl   $0xa5,0xc(%esp)
ff5042f2:	00 
ff5042f3:	c7 44 24 08 0f 72 50 	movl   $0xff50720f,0x8(%esp)
ff5042fa:	ff 
ff5042fb:	c7 44 24 04 a9 70 50 	movl   $0xff5070a9,0x4(%esp)
ff504302:	ff 
ff504303:	c7 04 24 c3 70 50 ff 	movl   $0xff5070c3,(%esp)
ff50430a:	e8 01 c2 ff ff       	call   ff500510 <printAssertMsg>
ff50430f:	8b 45 08             	mov    0x8(%ebp),%eax
ff504312:	c6 40 04 00          	movb   $0x0,0x4(%eax)
ff504316:	c7 45 fc 00 00 00 00 	movl   $0x0,-0x4(%ebp)
ff50431d:	8b 45 fc             	mov    -0x4(%ebp),%eax
ff504320:	c9                   	leave  
ff504321:	c3                   	ret    
ff504322:	8d b4 26 00 00 00 00 	lea    0x0(%esi,%eiz,1),%esi
ff504329:	8d bc 27 00 00 00 00 	lea    0x0(%edi,%eiz,1),%edi

ff504330 <setPriority>:
ff504330:	55                   	push   %ebp
ff504331:	89 e5                	mov    %esp,%ebp
ff504333:	83 ec 18             	sub    $0x18,%esp
ff504336:	83 7d 08 00          	cmpl   $0x0,0x8(%ebp)
ff50433a:	75 24                	jne    ff504360 <setPriority+0x30>
ff50433c:	c7 44 24 0c b0 00 00 	movl   $0xb0,0xc(%esp)
ff504343:	00 
ff504344:	c7 44 24 08 18 72 50 	movl   $0xff507218,0x8(%esp)
ff50434b:	ff 
ff50434c:	c7 44 24 04 a9 70 50 	movl   $0xff5070a9,0x4(%esp)
ff504353:	ff 
ff504354:	c7 04 24 b4 70 50 ff 	movl   $0xff5070b4,(%esp)
ff50435b:	e8 b0 c1 ff ff       	call   ff500510 <printAssertMsg>
ff504360:	83 7d 08 00          	cmpl   $0x0,0x8(%ebp)
ff504364:	74 0a                	je     ff504370 <setPriority+0x40>
ff504366:	a1 64 c0 50 ff       	mov    0xff50c064,%eax
ff50436b:	39 45 08             	cmp    %eax,0x8(%ebp)
ff50436e:	75 0c                	jne    ff50437c <setPriority+0x4c>
ff504370:	c7 45 fc ff ff ff ff 	movl   $0xffffffff,-0x4(%ebp)
ff504377:	e9 af 00 00 00       	jmp    ff50442b <setPriority+0xfb>
ff50437c:	83 7d 0c 00          	cmpl   $0x0,0xc(%ebp)
ff504380:	78 06                	js     ff504388 <setPriority+0x58>
ff504382:	83 7d 0c 07          	cmpl   $0x7,0xc(%ebp)
ff504386:	7e 0c                	jle    ff504394 <setPriority+0x64>
ff504388:	c7 45 fc ff ff ff ff 	movl   $0xffffffff,-0x4(%ebp)
ff50438f:	e9 97 00 00 00       	jmp    ff50442b <setPriority+0xfb>
ff504394:	8b 55 08             	mov    0x8(%ebp),%edx
ff504397:	a1 3c c0 50 ff       	mov    0xff50c03c,%eax
ff50439c:	89 d1                	mov    %edx,%ecx
ff50439e:	29 c1                	sub    %eax,%ecx
ff5043a0:	89 c8                	mov    %ecx,%eax
ff5043a2:	c1 f8 03             	sar    $0x3,%eax
ff5043a5:	69 c0 a3 8b 2e ba    	imul   $0xba2e8ba3,%eax,%eax
ff5043ab:	66 83 f8 ff          	cmp    $0xffffffff,%ax
ff5043af:	75 24                	jne    ff5043d5 <setPriority+0xa5>
ff5043b1:	c7 44 24 0c b8 00 00 	movl   $0xb8,0xc(%esp)
ff5043b8:	00 
ff5043b9:	c7 44 24 08 18 72 50 	movl   $0xff507218,0x8(%esp)
ff5043c0:	ff 
ff5043c1:	c7 44 24 04 a9 70 50 	movl   $0xff5070a9,0x4(%esp)
ff5043c8:	ff 
ff5043c9:	c7 04 24 24 72 50 ff 	movl   $0xff507224,(%esp)
ff5043d0:	e8 3b c1 ff ff       	call   ff500510 <printAssertMsg>
ff5043d5:	8b 45 08             	mov    0x8(%ebp),%eax
ff5043d8:	0f b6 40 05          	movzbl 0x5(%eax),%eax
ff5043dc:	83 e0 0f             	and    $0xf,%eax
ff5043df:	3c 03                	cmp    $0x3,%al
ff5043e1:	75 0b                	jne    ff5043ee <setPriority+0xbe>
ff5043e3:	8b 45 08             	mov    0x8(%ebp),%eax
ff5043e6:	89 04 24             	mov    %eax,(%esp)
ff5043e9:	e8 f2 01 00 00       	call   ff5045e0 <detachRunQueue>
ff5043ee:	8b 45 0c             	mov    0xc(%ebp),%eax
ff5043f1:	83 e0 07             	and    $0x7,%eax
ff5043f4:	8b 4d 08             	mov    0x8(%ebp),%ecx
ff5043f7:	83 e0 07             	and    $0x7,%eax
ff5043fa:	89 c2                	mov    %eax,%edx
ff5043fc:	c1 e2 04             	shl    $0x4,%edx
ff5043ff:	0f b6 41 05          	movzbl 0x5(%ecx),%eax
ff504403:	83 e0 8f             	and    $0xffffff8f,%eax
ff504406:	09 d0                	or     %edx,%eax
ff504408:	88 41 05             	mov    %al,0x5(%ecx)
ff50440b:	8b 45 08             	mov    0x8(%ebp),%eax
ff50440e:	0f b6 40 05          	movzbl 0x5(%eax),%eax
ff504412:	83 e0 0f             	and    $0xf,%eax
ff504415:	3c 03                	cmp    $0x3,%al
ff504417:	75 0b                	jne    ff504424 <setPriority+0xf4>
ff504419:	8b 45 08             	mov    0x8(%ebp),%eax
ff50441c:	89 04 24             	mov    %eax,(%esp)
ff50441f:	e8 0c 00 00 00       	call   ff504430 <attachRunQueue>
ff504424:	c7 45 fc 00 00 00 00 	movl   $0x0,-0x4(%ebp)
ff50442b:	8b 45 fc             	mov    -0x4(%ebp),%eax
ff50442e:	c9                   	leave  
ff50442f:	c3                   	ret    

ff504430 <attachRunQueue>:
ff504430:	55                   	push   %ebp
ff504431:	89 e5                	mov    %esp,%ebp
ff504433:	83 ec 28             	sub    $0x28,%esp
ff504436:	83 7d 08 00          	cmpl   $0x0,0x8(%ebp)
ff50443a:	75 24                	jne    ff504460 <attachRunQueue+0x30>
ff50443c:	c7 44 24 0c c9 00 00 	movl   $0xc9,0xc(%esp)
ff504443:	00 
ff504444:	c7 44 24 08 40 72 50 	movl   $0xff507240,0x8(%esp)
ff50444b:	ff 
ff50444c:	c7 44 24 04 a9 70 50 	movl   $0xff5070a9,0x4(%esp)
ff504453:	ff 
ff504454:	c7 04 24 b4 70 50 ff 	movl   $0xff5070b4,(%esp)
ff50445b:	e8 b0 c0 ff ff       	call   ff500510 <printAssertMsg>
ff504460:	8b 45 08             	mov    0x8(%ebp),%eax
ff504463:	0f b6 40 05          	movzbl 0x5(%eax),%eax
ff504467:	c0 e8 04             	shr    $0x4,%al
ff50446a:	83 e0 07             	and    $0x7,%eax
ff50446d:	0f b6 c0             	movzbl %al,%eax
ff504470:	83 f8 07             	cmp    $0x7,%eax
ff504473:	7e 24                	jle    ff504499 <attachRunQueue+0x69>
ff504475:	c7 44 24 0c ca 00 00 	movl   $0xca,0xc(%esp)
ff50447c:	00 
ff50447d:	c7 44 24 08 40 72 50 	movl   $0xff507240,0x8(%esp)
ff504484:	ff 
ff504485:	c7 44 24 04 a9 70 50 	movl   $0xff5070a9,0x4(%esp)
ff50448c:	ff 
ff50448d:	c7 04 24 50 72 50 ff 	movl   $0xff507250,(%esp)
ff504494:	e8 77 c0 ff ff       	call   ff500510 <printAssertMsg>
ff504499:	83 7d 08 00          	cmpl   $0x0,0x8(%ebp)
ff50449d:	75 0c                	jne    ff5044ab <attachRunQueue+0x7b>
ff50449f:	c7 45 ec ff ff ff ff 	movl   $0xffffffff,-0x14(%ebp)
ff5044a6:	e9 28 01 00 00       	jmp    ff5045d3 <attachRunQueue+0x1a3>
ff5044ab:	8b 55 08             	mov    0x8(%ebp),%edx
ff5044ae:	a1 50 c0 50 ff       	mov    0xff50c050,%eax
ff5044b3:	39 c2                	cmp    %eax,%edx
ff5044b5:	75 24                	jne    ff5044db <attachRunQueue+0xab>
ff5044b7:	c7 44 24 0c cf 00 00 	movl   $0xcf,0xc(%esp)
ff5044be:	00 
ff5044bf:	c7 44 24 08 40 72 50 	movl   $0xff507240,0x8(%esp)
ff5044c6:	ff 
ff5044c7:	c7 44 24 04 a9 70 50 	movl   $0xff5070a9,0x4(%esp)
ff5044ce:	ff 
ff5044cf:	c7 04 24 72 72 50 ff 	movl   $0xff507272,(%esp)
ff5044d6:	e8 35 c0 ff ff       	call   ff500510 <printAssertMsg>
ff5044db:	8b 45 08             	mov    0x8(%ebp),%eax
ff5044de:	0f b6 40 05          	movzbl 0x5(%eax),%eax
ff5044e2:	83 e0 0f             	and    $0xf,%eax
ff5044e5:	3c 04                	cmp    $0x4,%al
ff5044e7:	75 0c                	jne    ff5044f5 <attachRunQueue+0xc5>
ff5044e9:	c7 45 ec 01 00 00 00 	movl   $0x1,-0x14(%ebp)
ff5044f0:	e9 de 00 00 00       	jmp    ff5045d3 <attachRunQueue+0x1a3>
ff5044f5:	8b 55 08             	mov    0x8(%ebp),%edx
ff5044f8:	a1 3c c0 50 ff       	mov    0xff50c03c,%eax
ff5044fd:	89 d1                	mov    %edx,%ecx
ff5044ff:	29 c1                	sub    %eax,%ecx
ff504501:	89 c8                	mov    %ecx,%eax
ff504503:	c1 f8 03             	sar    $0x3,%eax
ff504506:	69 c0 a3 8b 2e ba    	imul   $0xba2e8ba3,%eax,%eax
ff50450c:	0f bf d0             	movswl %ax,%edx
ff50450f:	8b 0d 44 c0 50 ff    	mov    0xff50c044,%ecx
ff504515:	8b 45 08             	mov    0x8(%ebp),%eax
ff504518:	0f b6 40 05          	movzbl 0x5(%eax),%eax
ff50451c:	c0 e8 04             	shr    $0x4,%al
ff50451f:	83 e0 07             	and    $0x7,%eax
ff504522:	0f b6 c0             	movzbl %al,%eax
ff504525:	c1 e0 02             	shl    $0x2,%eax
ff504528:	8d 04 01             	lea    (%ecx,%eax,1),%eax
ff50452b:	89 54 24 04          	mov    %edx,0x4(%esp)
ff50452f:	89 04 24             	mov    %eax,(%esp)
ff504532:	e8 89 f5 ff ff       	call   ff503ac0 <enqueue>
ff504537:	89 45 fc             	mov    %eax,-0x4(%ebp)
ff50453a:	8b 15 44 c0 50 ff    	mov    0xff50c044,%edx
ff504540:	8b 45 08             	mov    0x8(%ebp),%eax
ff504543:	0f b6 40 05          	movzbl 0x5(%eax),%eax
ff504547:	c0 e8 04             	shr    $0x4,%al
ff50454a:	83 e0 07             	and    $0x7,%eax
ff50454d:	0f b6 c0             	movzbl %al,%eax
ff504550:	c1 e0 02             	shl    $0x2,%eax
ff504553:	8d 04 02             	lea    (%edx,%eax,1),%eax
ff504556:	0f b7 00             	movzwl (%eax),%eax
ff504559:	66 83 f8 ff          	cmp    $0xffffffff,%ax
ff50455d:	75 24                	jne    ff504583 <attachRunQueue+0x153>
ff50455f:	c7 44 24 0c d8 00 00 	movl   $0xd8,0xc(%esp)
ff504566:	00 
ff504567:	c7 44 24 08 40 72 50 	movl   $0xff507240,0x8(%esp)
ff50456e:	ff 
ff50456f:	c7 44 24 04 a9 70 50 	movl   $0xff5070a9,0x4(%esp)
ff504576:	ff 
ff504577:	c7 04 24 8c 72 50 ff 	movl   $0xff50728c,(%esp)
ff50457e:	e8 8d bf ff ff       	call   ff500510 <printAssertMsg>
ff504583:	8b 15 44 c0 50 ff    	mov    0xff50c044,%edx
ff504589:	8b 45 08             	mov    0x8(%ebp),%eax
ff50458c:	0f b6 40 05          	movzbl 0x5(%eax),%eax
ff504590:	c0 e8 04             	shr    $0x4,%al
ff504593:	83 e0 07             	and    $0x7,%eax
ff504596:	0f b6 c0             	movzbl %al,%eax
ff504599:	c1 e0 02             	shl    $0x2,%eax
ff50459c:	8d 04 02             	lea    (%edx,%eax,1),%eax
ff50459f:	0f b7 40 02          	movzwl 0x2(%eax),%eax
ff5045a3:	66 83 f8 ff          	cmp    $0xffffffff,%ax
ff5045a7:	75 24                	jne    ff5045cd <attachRunQueue+0x19d>
ff5045a9:	c7 44 24 0c d9 00 00 	movl   $0xd9,0xc(%esp)
ff5045b0:	00 
ff5045b1:	c7 44 24 08 40 72 50 	movl   $0xff507240,0x8(%esp)
ff5045b8:	ff 
ff5045b9:	c7 44 24 04 a9 70 50 	movl   $0xff5070a9,0x4(%esp)
ff5045c0:	ff 
ff5045c1:	c7 04 24 bc 72 50 ff 	movl   $0xff5072bc,(%esp)
ff5045c8:	e8 43 bf ff ff       	call   ff500510 <printAssertMsg>
ff5045cd:	8b 45 fc             	mov    -0x4(%ebp),%eax
ff5045d0:	89 45 ec             	mov    %eax,-0x14(%ebp)
ff5045d3:	8b 45 ec             	mov    -0x14(%ebp),%eax
ff5045d6:	c9                   	leave  
ff5045d7:	c3                   	ret    
ff5045d8:	90                   	nop    
ff5045d9:	8d b4 26 00 00 00 00 	lea    0x0(%esi,%eiz,1),%esi

ff5045e0 <detachRunQueue>:
ff5045e0:	55                   	push   %ebp
ff5045e1:	89 e5                	mov    %esp,%ebp
ff5045e3:	83 ec 18             	sub    $0x18,%esp
ff5045e6:	83 7d 08 00          	cmpl   $0x0,0x8(%ebp)
ff5045ea:	75 24                	jne    ff504610 <detachRunQueue+0x30>
ff5045ec:	c7 44 24 0c e3 00 00 	movl   $0xe3,0xc(%esp)
ff5045f3:	00 
ff5045f4:	c7 44 24 08 eb 72 50 	movl   $0xff5072eb,0x8(%esp)
ff5045fb:	ff 
ff5045fc:	c7 44 24 04 a9 70 50 	movl   $0xff5070a9,0x4(%esp)
ff504603:	ff 
ff504604:	c7 04 24 b4 70 50 ff 	movl   $0xff5070b4,(%esp)
ff50460b:	e8 00 bf ff ff       	call   ff500510 <printAssertMsg>
ff504610:	8b 45 08             	mov    0x8(%ebp),%eax
ff504613:	0f b6 40 05          	movzbl 0x5(%eax),%eax
ff504617:	c0 e8 04             	shr    $0x4,%al
ff50461a:	83 e0 07             	and    $0x7,%eax
ff50461d:	0f b6 c0             	movzbl %al,%eax
ff504620:	83 f8 07             	cmp    $0x7,%eax
ff504623:	7e 24                	jle    ff504649 <detachRunQueue+0x69>
ff504625:	c7 44 24 0c e4 00 00 	movl   $0xe4,0xc(%esp)
ff50462c:	00 
ff50462d:	c7 44 24 08 eb 72 50 	movl   $0xff5072eb,0x8(%esp)
ff504634:	ff 
ff504635:	c7 44 24 04 a9 70 50 	movl   $0xff5070a9,0x4(%esp)
ff50463c:	ff 
ff50463d:	c7 04 24 50 72 50 ff 	movl   $0xff507250,(%esp)
ff504644:	e8 c7 be ff ff       	call   ff500510 <printAssertMsg>
ff504649:	83 7d 08 00          	cmpl   $0x0,0x8(%ebp)
ff50464d:	75 0c                	jne    ff50465b <detachRunQueue+0x7b>
ff50464f:	c7 45 fc ff ff ff ff 	movl   $0xffffffff,-0x4(%ebp)
ff504656:	e9 a4 00 00 00       	jmp    ff5046ff <detachRunQueue+0x11f>
ff50465b:	8b 45 08             	mov    0x8(%ebp),%eax
ff50465e:	0f b6 40 05          	movzbl 0x5(%eax),%eax
ff504662:	83 e0 0f             	and    $0xf,%eax
ff504665:	3c 04                	cmp    $0x4,%al
ff504667:	75 0c                	jne    ff504675 <detachRunQueue+0x95>
ff504669:	c7 45 fc 01 00 00 00 	movl   $0x1,-0x4(%ebp)
ff504670:	e9 8a 00 00 00       	jmp    ff5046ff <detachRunQueue+0x11f>
ff504675:	8b 55 08             	mov    0x8(%ebp),%edx
ff504678:	a1 3c c0 50 ff       	mov    0xff50c03c,%eax
ff50467d:	89 d1                	mov    %edx,%ecx
ff50467f:	29 c1                	sub    %eax,%ecx
ff504681:	89 c8                	mov    %ecx,%eax
ff504683:	c1 f8 03             	sar    $0x3,%eax
ff504686:	69 c0 a3 8b 2e ba    	imul   $0xba2e8ba3,%eax,%eax
ff50468c:	66 83 f8 ff          	cmp    $0xffffffff,%ax
ff504690:	75 24                	jne    ff5046b6 <detachRunQueue+0xd6>
ff504692:	c7 44 24 0c ec 00 00 	movl   $0xec,0xc(%esp)
ff504699:	00 
ff50469a:	c7 44 24 08 eb 72 50 	movl   $0xff5072eb,0x8(%esp)
ff5046a1:	ff 
ff5046a2:	c7 44 24 04 a9 70 50 	movl   $0xff5070a9,0x4(%esp)
ff5046a9:	ff 
ff5046aa:	c7 04 24 24 72 50 ff 	movl   $0xff507224,(%esp)
ff5046b1:	e8 5a be ff ff       	call   ff500510 <printAssertMsg>
ff5046b6:	8b 55 08             	mov    0x8(%ebp),%edx
ff5046b9:	a1 3c c0 50 ff       	mov    0xff50c03c,%eax
ff5046be:	89 d1                	mov    %edx,%ecx
ff5046c0:	29 c1                	sub    %eax,%ecx
ff5046c2:	89 c8                	mov    %ecx,%eax
ff5046c4:	c1 f8 03             	sar    $0x3,%eax
ff5046c7:	69 c0 a3 8b 2e ba    	imul   $0xba2e8ba3,%eax,%eax
ff5046cd:	0f bf d0             	movswl %ax,%edx
ff5046d0:	8b 0d 44 c0 50 ff    	mov    0xff50c044,%ecx
ff5046d6:	8b 45 08             	mov    0x8(%ebp),%eax
ff5046d9:	0f b6 40 05          	movzbl 0x5(%eax),%eax
ff5046dd:	c0 e8 04             	shr    $0x4,%al
ff5046e0:	83 e0 07             	and    $0x7,%eax
ff5046e3:	0f b6 c0             	movzbl %al,%eax
ff5046e6:	c1 e0 02             	shl    $0x2,%eax
ff5046e9:	8d 04 01             	lea    (%ecx,%eax,1),%eax
ff5046ec:	89 54 24 04          	mov    %edx,0x4(%esp)
ff5046f0:	89 04 24             	mov    %eax,(%esp)
ff5046f3:	e8 08 f5 ff ff       	call   ff503c00 <detachQueue>
ff5046f8:	c7 45 fc 00 00 00 00 	movl   $0x0,-0x4(%ebp)
ff5046ff:	8b 45 fc             	mov    -0x4(%ebp),%eax
ff504702:	c9                   	leave  
ff504703:	c3                   	ret    
ff504704:	8d b6 00 00 00 00    	lea    0x0(%esi),%esi
ff50470a:	8d bf 00 00 00 00    	lea    0x0(%edi),%edi

ff504710 <timerInt>:
ff504710:	55                   	push   %ebp
ff504711:	89 e5                	mov    %esp,%ebp
ff504713:	83 ec 28             	sub    $0x28,%esp
ff504716:	e8 85 bf ff ff       	call   ff5006a0 <incTimerCount>
ff50471b:	83 7d 08 00          	cmpl   $0x0,0x8(%ebp)
ff50471f:	75 24                	jne    ff504745 <timerInt+0x35>
ff504721:	c7 44 24 0c fc 00 00 	movl   $0xfc,0xc(%esp)
ff504728:	00 
ff504729:	c7 44 24 08 fa 72 50 	movl   $0xff5072fa,0x8(%esp)
ff504730:	ff 
ff504731:	c7 44 24 04 a9 70 50 	movl   $0xff5070a9,0x4(%esp)
ff504738:	ff 
ff504739:	c7 04 24 b4 70 50 ff 	movl   $0xff5070b4,(%esp)
ff504740:	e8 cb bd ff ff       	call   ff500510 <printAssertMsg>
ff504745:	8b 45 08             	mov    0x8(%ebp),%eax
ff504748:	0f b6 40 04          	movzbl 0x4(%eax),%eax
ff50474c:	8d 50 ff             	lea    -0x1(%eax),%edx
ff50474f:	8b 45 08             	mov    0x8(%ebp),%eax
ff504752:	88 50 04             	mov    %dl,0x4(%eax)
ff504755:	0f b7 05 4c c0 50 ff 	movzwl 0xff50c04c,%eax
ff50475c:	66 83 f8 ff          	cmp    $0xffffffff,%ax
ff504760:	0f 84 2a 01 00 00    	je     ff504890 <timerInt+0x180>
ff504766:	8b 15 48 c0 50 ff    	mov    0xff50c048,%edx
ff50476c:	0f b7 05 4c c0 50 ff 	movzwl 0xff50c04c,%eax
ff504773:	98                   	cwtl   
ff504774:	c1 e0 02             	shl    $0x2,%eax
ff504777:	01 c2                	add    %eax,%edx
ff504779:	0f b7 02             	movzwl (%edx),%eax
ff50477c:	83 e8 01             	sub    $0x1,%eax
ff50477f:	66 89 02             	mov    %ax,(%edx)
ff504782:	e9 09 01 00 00       	jmp    ff504890 <timerInt+0x180>
ff504787:	c7 04 24 4c c0 50 ff 	movl   $0xff50c04c,(%esp)
ff50478e:	e8 8d f2 ff ff       	call   ff503a20 <sleepDequeue>
ff504793:	66 89 45 fe          	mov    %ax,-0x2(%ebp)
ff504797:	66 83 7d fe ff       	cmpw   $0xffffffff,-0x2(%ebp)
ff50479c:	75 24                	jne    ff5047c2 <timerInt+0xb2>
ff50479e:	c7 44 24 0c 0b 01 00 	movl   $0x10b,0xc(%esp)
ff5047a5:	00 
ff5047a6:	c7 44 24 08 fa 72 50 	movl   $0xff5072fa,0x8(%esp)
ff5047ad:	ff 
ff5047ae:	c7 44 24 04 a9 70 50 	movl   $0xff5070a9,0x4(%esp)
ff5047b5:	ff 
ff5047b6:	c7 04 24 03 73 50 ff 	movl   $0xff507303,(%esp)
ff5047bd:	e8 4e bd ff ff       	call   ff500510 <printAssertMsg>
ff5047c2:	8b 15 3c c0 50 ff    	mov    0xff50c03c,%edx
ff5047c8:	0f bf 45 fe          	movswl -0x2(%ebp),%eax
ff5047cc:	6b c0 58             	imul   $0x58,%eax,%eax
ff5047cf:	8d 04 02             	lea    (%edx,%eax,1),%eax
ff5047d2:	89 45 f8             	mov    %eax,-0x8(%ebp)
ff5047d5:	8b 45 f8             	mov    -0x8(%ebp),%eax
ff5047d8:	0f b6 40 05          	movzbl 0x5(%eax),%eax
ff5047dc:	83 e0 0f             	and    $0xf,%eax
ff5047df:	3c 02                	cmp    $0x2,%al
ff5047e1:	74 24                	je     ff504807 <timerInt+0xf7>
ff5047e3:	c7 44 24 0c 0d 01 00 	movl   $0x10d,0xc(%esp)
ff5047ea:	00 
ff5047eb:	c7 44 24 08 fa 72 50 	movl   $0xff5072fa,0x8(%esp)
ff5047f2:	ff 
ff5047f3:	c7 44 24 04 a9 70 50 	movl   $0xff5070a9,0x4(%esp)
ff5047fa:	ff 
ff5047fb:	c7 04 24 14 73 50 ff 	movl   $0xff507314,(%esp)
ff504802:	e8 09 bd ff ff       	call   ff500510 <printAssertMsg>
ff504807:	8b 45 f8             	mov    -0x8(%ebp),%eax
ff50480a:	89 04 24             	mov    %eax,(%esp)
ff50480d:	e8 1e fc ff ff       	call   ff504430 <attachRunQueue>
ff504812:	85 c0                	test   %eax,%eax
ff504814:	74 24                	je     ff50483a <timerInt+0x12a>
ff504816:	c7 44 24 0c 12 01 00 	movl   $0x112,0xc(%esp)
ff50481d:	00 
ff50481e:	c7 44 24 08 fa 72 50 	movl   $0xff5072fa,0x8(%esp)
ff504825:	ff 
ff504826:	c7 44 24 04 a9 70 50 	movl   $0xff5070a9,0x4(%esp)
ff50482d:	ff 
ff50482e:	c7 04 24 34 73 50 ff 	movl   $0xff507334,(%esp)
ff504835:	e8 d6 bc ff ff       	call   ff500510 <printAssertMsg>
ff50483a:	8b 55 f8             	mov    -0x8(%ebp),%edx
ff50483d:	a1 50 c0 50 ff       	mov    0xff50c050,%eax
ff504842:	39 c2                	cmp    %eax,%edx
ff504844:	75 24                	jne    ff50486a <timerInt+0x15a>
ff504846:	c7 44 24 0c 14 01 00 	movl   $0x114,0xc(%esp)
ff50484d:	00 
ff50484e:	c7 44 24 08 fa 72 50 	movl   $0xff5072fa,0x8(%esp)
ff504855:	ff 
ff504856:	c7 44 24 04 a9 70 50 	movl   $0xff5070a9,0x4(%esp)
ff50485d:	ff 
ff50485e:	c7 04 24 57 73 50 ff 	movl   $0xff507357,(%esp)
ff504865:	e8 a6 bc ff ff       	call   ff500510 <printAssertMsg>
ff50486a:	8b 55 f8             	mov    -0x8(%ebp),%edx
ff50486d:	0f b6 42 05          	movzbl 0x5(%edx),%eax
ff504871:	83 e0 f0             	and    $0xfffffff0,%eax
ff504874:	83 c8 03             	or     $0x3,%eax
ff504877:	88 42 05             	mov    %al,0x5(%edx)
ff50487a:	8b 45 f8             	mov    -0x8(%ebp),%eax
ff50487d:	0f b6 40 05          	movzbl 0x5(%eax),%eax
ff504881:	c0 e8 04             	shr    $0x4,%al
ff504884:	83 e0 07             	and    $0x7,%eax
ff504887:	8d 50 01             	lea    0x1(%eax),%edx
ff50488a:	8b 45 f8             	mov    -0x8(%ebp),%eax
ff50488d:	88 50 04             	mov    %dl,0x4(%eax)
ff504890:	0f b7 05 4c c0 50 ff 	movzwl 0xff50c04c,%eax
ff504897:	66 83 f8 ff          	cmp    $0xffffffff,%ax
ff50489b:	74 20                	je     ff5048bd <timerInt+0x1ad>
ff50489d:	8b 15 48 c0 50 ff    	mov    0xff50c048,%edx
ff5048a3:	0f b7 05 4c c0 50 ff 	movzwl 0xff50c04c,%eax
ff5048aa:	98                   	cwtl   
ff5048ab:	c1 e0 02             	shl    $0x2,%eax
ff5048ae:	8d 04 02             	lea    (%edx,%eax,1),%eax
ff5048b1:	0f b7 00             	movzwl (%eax),%eax
ff5048b4:	66 85 c0             	test   %ax,%ax
ff5048b7:	0f 84 ca fe ff ff    	je     ff504787 <timerInt+0x77>
ff5048bd:	e8 7e ec ff ff       	call   ff503540 <sendEOI>
ff5048c2:	c9                   	leave  
ff5048c3:	c3                   	ret    
	...

ff5048d0 <sysSetSigHandler>:
ff5048d0:	55                   	push   %ebp
ff5048d1:	89 e5                	mov    %esp,%ebp
ff5048d3:	8b 55 08             	mov    0x8(%ebp),%edx
ff5048d6:	8b 45 0c             	mov    0xc(%ebp),%eax
ff5048d9:	89 42 0e             	mov    %eax,0xe(%edx)
ff5048dc:	b8 00 00 00 00       	mov    $0x0,%eax
ff5048e1:	5d                   	pop    %ebp
ff5048e2:	c3                   	ret    
ff5048e3:	8d b6 00 00 00 00    	lea    0x0(%esi),%esi
ff5048e9:	8d bc 27 00 00 00 00 	lea    0x0(%edi,%eiz,1),%edi

ff5048f0 <sysRaise>:
ff5048f0:	55                   	push   %ebp
ff5048f1:	89 e5                	mov    %esp,%ebp
ff5048f3:	53                   	push   %ebx
ff5048f4:	83 ec 54             	sub    $0x54,%esp
ff5048f7:	8b 45 08             	mov    0x8(%ebp),%eax
ff5048fa:	8b 40 0e             	mov    0xe(%eax),%eax
ff5048fd:	85 c0                	test   %eax,%eax
ff5048ff:	75 0c                	jne    ff50490d <sysRaise+0x1d>
ff504901:	c7 45 b8 01 00 00 00 	movl   $0x1,-0x48(%ebp)
ff504908:	e9 e9 01 00 00       	jmp    ff504af6 <sysRaise+0x206>
ff50490d:	8b 45 08             	mov    0x8(%ebp),%eax
ff504910:	0f b6 40 05          	movzbl 0x5(%eax),%eax
ff504914:	83 e0 0f             	and    $0xf,%eax
ff504917:	3c 05                	cmp    $0x5,%al
ff504919:	75 31                	jne    ff50494c <sysRaise+0x5c>
ff50491b:	8b 45 08             	mov    0x8(%ebp),%eax
ff50491e:	66 c7 40 0c ff ff    	movw   $0xffff,0xc(%eax)
ff504924:	8b 55 08             	mov    0x8(%ebp),%edx
ff504927:	0f b6 42 05          	movzbl 0x5(%edx),%eax
ff50492b:	83 e0 f0             	and    $0xfffffff0,%eax
ff50492e:	83 c8 01             	or     $0x1,%eax
ff504931:	88 42 05             	mov    %al,0x5(%edx)
ff504934:	8b 45 08             	mov    0x8(%ebp),%eax
ff504937:	c7 40 34 02 00 00 00 	movl   $0x2,0x34(%eax)
ff50493e:	c7 04 24 7d 73 50 ff 	movl   $0xff50737d,(%esp)
ff504945:	e8 06 be ff ff       	call   ff500750 <kprintf>
ff50494a:	eb 7a                	jmp    ff5049c6 <sysRaise+0xd6>
ff50494c:	8b 45 08             	mov    0x8(%ebp),%eax
ff50494f:	0f b6 40 05          	movzbl 0x5(%eax),%eax
ff504953:	83 e0 0f             	and    $0xf,%eax
ff504956:	3c 06                	cmp    $0x6,%al
ff504958:	75 6c                	jne    ff5049c6 <sysRaise+0xd6>
ff50495a:	8b 45 08             	mov    0x8(%ebp),%eax
ff50495d:	c7 40 34 02 00 00 00 	movl   $0x2,0x34(%eax)
ff504964:	c7 04 24 92 73 50 ff 	movl   $0xff507392,(%esp)
ff50496b:	e8 e0 bd ff ff       	call   ff500750 <kprintf>
ff504970:	8b 55 08             	mov    0x8(%ebp),%edx
ff504973:	0f b6 42 05          	movzbl 0x5(%edx),%eax
ff504977:	83 e0 f0             	and    $0xfffffff0,%eax
ff50497a:	83 c8 01             	or     $0x1,%eax
ff50497d:	88 42 05             	mov    %al,0x5(%edx)
ff504980:	8b 55 08             	mov    0x8(%ebp),%edx
ff504983:	a1 3c c0 50 ff       	mov    0xff50c03c,%eax
ff504988:	89 d1                	mov    %edx,%ecx
ff50498a:	29 c1                	sub    %eax,%ecx
ff50498c:	89 c8                	mov    %ecx,%eax
ff50498e:	c1 f8 03             	sar    $0x3,%eax
ff504991:	69 c0 a3 8b 2e ba    	imul   $0xba2e8ba3,%eax,%eax
ff504997:	0f bf c8             	movswl %ax,%ecx
ff50499a:	8b 15 3c c0 50 ff    	mov    0xff50c03c,%edx
ff5049a0:	8b 45 08             	mov    0x8(%ebp),%eax
ff5049a3:	0f b7 40 0c          	movzwl 0xc(%eax),%eax
ff5049a7:	98                   	cwtl   
ff5049a8:	6b c0 58             	imul   $0x58,%eax,%eax
ff5049ab:	8d 04 02             	lea    (%edx,%eax,1),%eax
ff5049ae:	83 c0 06             	add    $0x6,%eax
ff5049b1:	89 4c 24 04          	mov    %ecx,0x4(%esp)
ff5049b5:	89 04 24             	mov    %eax,(%esp)
ff5049b8:	e8 43 f2 ff ff       	call   ff503c00 <detachQueue>
ff5049bd:	8b 45 08             	mov    0x8(%ebp),%eax
ff5049c0:	66 c7 40 0c ff ff    	movw   $0xffff,0xc(%eax)
ff5049c6:	8b 45 0c             	mov    0xc(%ebp),%eax
ff5049c9:	89 45 c8             	mov    %eax,-0x38(%ebp)
ff5049cc:	8b 45 10             	mov    0x10(%ebp),%eax
ff5049cf:	89 45 cc             	mov    %eax,-0x34(%ebp)
ff5049d2:	8b 45 08             	mov    0x8(%ebp),%eax
ff5049d5:	83 c0 18             	add    $0x18,%eax
ff5049d8:	c7 44 24 08 20 00 00 	movl   $0x20,0x8(%esp)
ff5049df:	00 
ff5049e0:	89 44 24 04          	mov    %eax,0x4(%esp)
ff5049e4:	8d 45 c8             	lea    -0x38(%ebp),%eax
ff5049e7:	83 c0 08             	add    $0x8,%eax
ff5049ea:	89 04 24             	mov    %eax,(%esp)
ff5049ed:	e8 2e cc ff ff       	call   ff501620 <memcpy>
ff5049f2:	8b 45 08             	mov    0x8(%ebp),%eax
ff5049f5:	8b 40 4c             	mov    0x4c(%eax),%eax
ff5049f8:	89 45 f0             	mov    %eax,-0x10(%ebp)
ff5049fb:	8b 45 08             	mov    0x8(%ebp),%eax
ff5049fe:	8b 40 44             	mov    0x44(%eax),%eax
ff504a01:	89 45 f4             	mov    %eax,-0xc(%ebp)
ff504a04:	8b 45 08             	mov    0x8(%ebp),%eax
ff504a07:	8b 10                	mov    (%eax),%edx
ff504a09:	8b 45 08             	mov    0x8(%ebp),%eax
ff504a0c:	8b 40 50             	mov    0x50(%eax),%eax
ff504a0f:	83 e8 30             	sub    $0x30,%eax
ff504a12:	89 c1                	mov    %eax,%ecx
ff504a14:	89 54 24 0c          	mov    %edx,0xc(%esp)
ff504a18:	8d 45 c8             	lea    -0x38(%ebp),%eax
ff504a1b:	89 44 24 08          	mov    %eax,0x8(%esp)
ff504a1f:	c7 44 24 04 30 00 00 	movl   $0x30,0x4(%esp)
ff504a26:	00 
ff504a27:	89 0c 24             	mov    %ecx,(%esp)
ff504a2a:	e8 d1 df ff ff       	call   ff502a00 <pokeMem>
ff504a2f:	85 c0                	test   %eax,%eax
ff504a31:	74 16                	je     ff504a49 <sysRaise+0x159>
ff504a33:	8b 45 08             	mov    0x8(%ebp),%eax
ff504a36:	c7 40 34 ff ff ff ff 	movl   $0xffffffff,0x34(%eax)
ff504a3d:	c7 45 b8 ff ff ff ff 	movl   $0xffffffff,-0x48(%ebp)
ff504a44:	e9 ad 00 00 00       	jmp    ff504af6 <sysRaise+0x206>
ff504a49:	8b 45 08             	mov    0x8(%ebp),%eax
ff504a4c:	8b 40 0e             	mov    0xe(%eax),%eax
ff504a4f:	89 c2                	mov    %eax,%edx
ff504a51:	8b 45 08             	mov    0x8(%ebp),%eax
ff504a54:	89 50 44             	mov    %edx,0x44(%eax)
ff504a57:	8b 45 08             	mov    0x8(%ebp),%eax
ff504a5a:	8b 40 50             	mov    0x50(%eax),%eax
ff504a5d:	8d 50 d0             	lea    -0x30(%eax),%edx
ff504a60:	8b 45 08             	mov    0x8(%ebp),%eax
ff504a63:	89 50 50             	mov    %edx,0x50(%eax)
ff504a66:	8b 45 08             	mov    0x8(%ebp),%eax
ff504a69:	89 04 24             	mov    %eax,(%esp)
ff504a6c:	e8 af 08 00 00       	call   ff505320 <startThread>
ff504a71:	85 c0                	test   %eax,%eax
ff504a73:	79 24                	jns    ff504a99 <sysRaise+0x1a9>
ff504a75:	c7 44 24 0c 41 00 00 	movl   $0x41,0xc(%esp)
ff504a7c:	00 
ff504a7d:	c7 44 24 08 74 73 50 	movl   $0xff507374,0x8(%esp)
ff504a84:	ff 
ff504a85:	c7 44 24 04 a4 73 50 	movl   $0xff5073a4,0x4(%esp)
ff504a8c:	ff 
ff504a8d:	c7 04 24 ad 73 50 ff 	movl   $0xff5073ad,(%esp)
ff504a94:	e8 77 ba ff ff       	call   ff500510 <printAssertMsg>
ff504a99:	8b 0d 3c c0 50 ff    	mov    0xff50c03c,%ecx
ff504a9f:	8b 55 08             	mov    0x8(%ebp),%edx
ff504aa2:	a1 3c c0 50 ff       	mov    0xff50c03c,%eax
ff504aa7:	89 d3                	mov    %edx,%ebx
ff504aa9:	29 c3                	sub    %eax,%ebx
ff504aab:	89 d8                	mov    %ebx,%eax
ff504aad:	c1 f8 03             	sar    $0x3,%eax
ff504ab0:	69 c0 a3 8b 2e ba    	imul   $0xba2e8ba3,%eax,%eax
ff504ab6:	98                   	cwtl   
ff504ab7:	6b c0 58             	imul   $0x58,%eax,%eax
ff504aba:	8d 04 01             	lea    (%ecx,%eax,1),%eax
ff504abd:	8b 50 34             	mov    0x34(%eax),%edx
ff504ac0:	8b 45 08             	mov    0x8(%ebp),%eax
ff504ac3:	8b 40 34             	mov    0x34(%eax),%eax
ff504ac6:	89 54 24 08          	mov    %edx,0x8(%esp)
ff504aca:	89 44 24 04          	mov    %eax,0x4(%esp)
ff504ace:	c7 04 24 c5 73 50 ff 	movl   $0xff5073c5,(%esp)
ff504ad5:	e8 76 bc ff ff       	call   ff500750 <kprintf>
ff504ada:	8b 55 08             	mov    0x8(%ebp),%edx
ff504add:	a1 50 c0 50 ff       	mov    0xff50c050,%eax
ff504ae2:	39 c2                	cmp    %eax,%edx
ff504ae4:	75 09                	jne    ff504aef <sysRaise+0x1ff>
ff504ae6:	c7 45 b8 fe ff ff ff 	movl   $0xfffffffe,-0x48(%ebp)
ff504aed:	eb 07                	jmp    ff504af6 <sysRaise+0x206>
ff504aef:	c7 45 b8 00 00 00 00 	movl   $0x0,-0x48(%ebp)
ff504af6:	8b 45 b8             	mov    -0x48(%ebp),%eax
ff504af9:	83 c4 54             	add    $0x54,%esp
ff504afc:	5b                   	pop    %ebx
ff504afd:	5d                   	pop    %ebp
ff504afe:	c3                   	ret    
	...

ff504b00 <sysExit>:
ff504b00:	55                   	push   %ebp
ff504b01:	89 e5                	mov    %esp,%ebp
ff504b03:	83 ec 18             	sub    $0x18,%esp
ff504b06:	8b 55 08             	mov    0x8(%ebp),%edx
ff504b09:	0f b6 42 05          	movzbl 0x5(%edx),%eax
ff504b0d:	83 e0 f0             	and    $0xfffffff0,%eax
ff504b10:	83 c8 07             	or     $0x7,%eax
ff504b13:	88 42 05             	mov    %al,0x5(%edx)
ff504b16:	8b 45 08             	mov    0x8(%ebp),%eax
ff504b19:	0f b7 40 0a          	movzwl 0xa(%eax),%eax
ff504b1d:	66 83 f8 ff          	cmp    $0xffffffff,%ax
ff504b21:	75 29                	jne    ff504b4c <sysExit+0x4c>
ff504b23:	8b 55 08             	mov    0x8(%ebp),%edx
ff504b26:	a1 3c c0 50 ff       	mov    0xff50c03c,%eax
ff504b2b:	89 d1                	mov    %edx,%ecx
ff504b2d:	29 c1                	sub    %eax,%ecx
ff504b2f:	89 c8                	mov    %ecx,%eax
ff504b31:	c1 f8 03             	sar    $0x3,%eax
ff504b34:	69 c0 a3 8b 2e ba    	imul   $0xba2e8ba3,%eax,%eax
ff504b3a:	98                   	cwtl   
ff504b3b:	89 44 24 04          	mov    %eax,0x4(%esp)
ff504b3f:	8b 45 08             	mov    0x8(%ebp),%eax
ff504b42:	89 04 24             	mov    %eax,(%esp)
ff504b45:	e8 a6 10 00 00       	call   ff505bf0 <releaseThread>
ff504b4a:	eb 46                	jmp    ff504b92 <sysExit+0x92>
ff504b4c:	8b 55 08             	mov    0x8(%ebp),%edx
ff504b4f:	a1 3c c0 50 ff       	mov    0xff50c03c,%eax
ff504b54:	89 d1                	mov    %edx,%ecx
ff504b56:	29 c1                	sub    %eax,%ecx
ff504b58:	89 c8                	mov    %ecx,%eax
ff504b5a:	c1 f8 03             	sar    $0x3,%eax
ff504b5d:	69 c0 a3 8b 2e ba    	imul   $0xba2e8ba3,%eax,%eax
ff504b63:	98                   	cwtl   
ff504b64:	c1 e0 08             	shl    $0x8,%eax
ff504b67:	89 c1                	mov    %eax,%ecx
ff504b69:	83 c9 07             	or     $0x7,%ecx
ff504b6c:	8b 15 3c c0 50 ff    	mov    0xff50c03c,%edx
ff504b72:	8b 45 08             	mov    0x8(%ebp),%eax
ff504b75:	0f b7 40 0a          	movzwl 0xa(%eax),%eax
ff504b79:	98                   	cwtl   
ff504b7a:	6b c0 58             	imul   $0x58,%eax,%eax
ff504b7d:	01 c2                	add    %eax,%edx
ff504b7f:	8b 45 0c             	mov    0xc(%ebp),%eax
ff504b82:	89 44 24 08          	mov    %eax,0x8(%esp)
ff504b86:	89 4c 24 04          	mov    %ecx,0x4(%esp)
ff504b8a:	89 14 24             	mov    %edx,(%esp)
ff504b8d:	e8 5e fd ff ff       	call   ff5048f0 <sysRaise>
ff504b92:	c9                   	leave  
ff504b93:	c3                   	ret    
ff504b94:	8d b6 00 00 00 00    	lea    0x0(%esi),%esi
ff504b9a:	8d bf 00 00 00 00    	lea    0x0(%edi),%edi

ff504ba0 <sysGetThreadInfo>:
ff504ba0:	55                   	push   %ebp
ff504ba1:	89 e5                	mov    %esp,%ebp
ff504ba3:	53                   	push   %ebx
ff504ba4:	83 ec 34             	sub    $0x34,%esp
ff504ba7:	8b 45 0c             	mov    0xc(%ebp),%eax
ff504baa:	66 89 45 e8          	mov    %ax,-0x18(%ebp)
ff504bae:	83 7d 10 00          	cmpl   $0x0,0x10(%ebp)
ff504bb2:	75 24                	jne    ff504bd8 <sysGetThreadInfo+0x38>
ff504bb4:	c7 44 24 0c 48 00 00 	movl   $0x48,0xc(%esp)
ff504bbb:	00 
ff504bbc:	c7 44 24 08 d8 73 50 	movl   $0xff5073d8,0x8(%esp)
ff504bc3:	ff 
ff504bc4:	c7 44 24 04 e9 73 50 	movl   $0xff5073e9,0x4(%esp)
ff504bcb:	ff 
ff504bcc:	c7 04 24 f3 73 50 ff 	movl   $0xff5073f3,(%esp)
ff504bd3:	e8 38 b9 ff ff       	call   ff500510 <printAssertMsg>
ff504bd8:	83 7d 08 00          	cmpl   $0x0,0x8(%ebp)
ff504bdc:	75 24                	jne    ff504c02 <sysGetThreadInfo+0x62>
ff504bde:	c7 44 24 0c 49 00 00 	movl   $0x49,0xc(%esp)
ff504be5:	00 
ff504be6:	c7 44 24 08 d8 73 50 	movl   $0xff5073d8,0x8(%esp)
ff504bed:	ff 
ff504bee:	c7 44 24 04 e9 73 50 	movl   $0xff5073e9,0x4(%esp)
ff504bf5:	ff 
ff504bf6:	c7 04 24 00 74 50 ff 	movl   $0xff507400,(%esp)
ff504bfd:	e8 0e b9 ff ff       	call   ff500510 <printAssertMsg>
ff504c02:	83 7d 10 00          	cmpl   $0x0,0x10(%ebp)
ff504c06:	74 06                	je     ff504c0e <sysGetThreadInfo+0x6e>
ff504c08:	83 7d 08 00          	cmpl   $0x0,0x8(%ebp)
ff504c0c:	75 0c                	jne    ff504c1a <sysGetThreadInfo+0x7a>
ff504c0e:	c7 45 e4 ff ff ff ff 	movl   $0xffffffff,-0x1c(%ebp)
ff504c15:	e9 2d 01 00 00       	jmp    ff504d47 <sysGetThreadInfo+0x1a7>
ff504c1a:	0f bf 55 e8          	movswl -0x18(%ebp),%edx
ff504c1e:	a1 40 c0 50 ff       	mov    0xff50c040,%eax
ff504c23:	39 c2                	cmp    %eax,%edx
ff504c25:	7c 0c                	jl     ff504c33 <sysGetThreadInfo+0x93>
ff504c27:	c7 45 e4 ff ff ff ff 	movl   $0xffffffff,-0x1c(%ebp)
ff504c2e:	e9 14 01 00 00       	jmp    ff504d47 <sysGetThreadInfo+0x1a7>
ff504c33:	66 83 7d e8 ff       	cmpw   $0xffffffff,-0x18(%ebp)
ff504c38:	75 08                	jne    ff504c42 <sysGetThreadInfo+0xa2>
ff504c3a:	8b 45 08             	mov    0x8(%ebp),%eax
ff504c3d:	89 45 f8             	mov    %eax,-0x8(%ebp)
ff504c40:	eb 13                	jmp    ff504c55 <sysGetThreadInfo+0xb5>
ff504c42:	8b 15 3c c0 50 ff    	mov    0xff50c03c,%edx
ff504c48:	0f bf 45 e8          	movswl -0x18(%ebp),%eax
ff504c4c:	6b c0 58             	imul   $0x58,%eax,%eax
ff504c4f:	8d 04 02             	lea    (%edx,%eax,1),%eax
ff504c52:	89 45 f8             	mov    %eax,-0x8(%ebp)
ff504c55:	8b 45 f8             	mov    -0x8(%ebp),%eax
ff504c58:	3b 45 08             	cmp    0x8(%ebp),%eax
ff504c5b:	74 2f                	je     ff504c8c <sysGetThreadInfo+0xec>
ff504c5d:	8b 45 f8             	mov    -0x8(%ebp),%eax
ff504c60:	0f b7 48 0a          	movzwl 0xa(%eax),%ecx
ff504c64:	8b 55 08             	mov    0x8(%ebp),%edx
ff504c67:	a1 3c c0 50 ff       	mov    0xff50c03c,%eax
ff504c6c:	89 d3                	mov    %edx,%ebx
ff504c6e:	29 c3                	sub    %eax,%ebx
ff504c70:	89 d8                	mov    %ebx,%eax
ff504c72:	c1 f8 03             	sar    $0x3,%eax
ff504c75:	69 c0 a3 8b 2e ba    	imul   $0xba2e8ba3,%eax,%eax
ff504c7b:	66 39 c1             	cmp    %ax,%cx
ff504c7e:	74 0c                	je     ff504c8c <sysGetThreadInfo+0xec>
ff504c80:	c7 45 e4 ff ff ff ff 	movl   $0xffffffff,-0x1c(%ebp)
ff504c87:	e9 bb 00 00 00       	jmp    ff504d47 <sysGetThreadInfo+0x1a7>
ff504c8c:	8b 55 f8             	mov    -0x8(%ebp),%edx
ff504c8f:	a1 3c c0 50 ff       	mov    0xff50c03c,%eax
ff504c94:	89 d1                	mov    %edx,%ecx
ff504c96:	29 c1                	sub    %eax,%ecx
ff504c98:	89 c8                	mov    %ecx,%eax
ff504c9a:	c1 f8 03             	sar    $0x3,%eax
ff504c9d:	69 c0 a3 8b 2e ba    	imul   $0xba2e8ba3,%eax,%eax
ff504ca3:	89 c2                	mov    %eax,%edx
ff504ca5:	8b 45 10             	mov    0x10(%ebp),%eax
ff504ca8:	66 89 10             	mov    %dx,(%eax)
ff504cab:	8b 45 f8             	mov    -0x8(%ebp),%eax
ff504cae:	0f b7 50 0a          	movzwl 0xa(%eax),%edx
ff504cb2:	8b 45 10             	mov    0x10(%ebp),%eax
ff504cb5:	66 89 50 02          	mov    %dx,0x2(%eax)
ff504cb9:	8b 45 f8             	mov    -0x8(%ebp),%eax
ff504cbc:	0f b6 40 05          	movzbl 0x5(%eax),%eax
ff504cc0:	c0 e8 04             	shr    $0x4,%al
ff504cc3:	83 e0 07             	and    $0x7,%eax
ff504cc6:	0f b6 d0             	movzbl %al,%edx
ff504cc9:	8b 45 10             	mov    0x10(%ebp),%eax
ff504ccc:	89 50 04             	mov    %edx,0x4(%eax)
ff504ccf:	8b 45 f8             	mov    -0x8(%ebp),%eax
ff504cd2:	8b 10                	mov    (%eax),%edx
ff504cd4:	8b 45 10             	mov    0x10(%ebp),%eax
ff504cd7:	89 50 08             	mov    %edx,0x8(%eax)
ff504cda:	8b 45 10             	mov    0x10(%ebp),%eax
ff504cdd:	8b 55 f8             	mov    -0x8(%ebp),%edx
ff504ce0:	8b 4a 18             	mov    0x18(%edx),%ecx
ff504ce3:	89 48 0c             	mov    %ecx,0xc(%eax)
ff504ce6:	8b 4a 1c             	mov    0x1c(%edx),%ecx
ff504ce9:	89 48 10             	mov    %ecx,0x10(%eax)
ff504cec:	8b 4a 20             	mov    0x20(%edx),%ecx
ff504cef:	89 48 14             	mov    %ecx,0x14(%eax)
ff504cf2:	8b 4a 24             	mov    0x24(%edx),%ecx
ff504cf5:	89 48 18             	mov    %ecx,0x18(%eax)
ff504cf8:	8b 4a 28             	mov    0x28(%edx),%ecx
ff504cfb:	89 48 1c             	mov    %ecx,0x1c(%eax)
ff504cfe:	8b 4a 2c             	mov    0x2c(%edx),%ecx
ff504d01:	89 48 20             	mov    %ecx,0x20(%eax)
ff504d04:	8b 4a 30             	mov    0x30(%edx),%ecx
ff504d07:	89 48 24             	mov    %ecx,0x24(%eax)
ff504d0a:	8b 4a 34             	mov    0x34(%edx),%ecx
ff504d0d:	89 48 28             	mov    %ecx,0x28(%eax)
ff504d10:	8b 4a 38             	mov    0x38(%edx),%ecx
ff504d13:	89 48 2c             	mov    %ecx,0x2c(%eax)
ff504d16:	8b 4a 3c             	mov    0x3c(%edx),%ecx
ff504d19:	89 48 30             	mov    %ecx,0x30(%eax)
ff504d1c:	8b 4a 40             	mov    0x40(%edx),%ecx
ff504d1f:	89 48 34             	mov    %ecx,0x34(%eax)
ff504d22:	8b 4a 44             	mov    0x44(%edx),%ecx
ff504d25:	89 48 38             	mov    %ecx,0x38(%eax)
ff504d28:	8b 4a 48             	mov    0x48(%edx),%ecx
ff504d2b:	89 48 3c             	mov    %ecx,0x3c(%eax)
ff504d2e:	8b 4a 4c             	mov    0x4c(%edx),%ecx
ff504d31:	89 48 40             	mov    %ecx,0x40(%eax)
ff504d34:	8b 4a 50             	mov    0x50(%edx),%ecx
ff504d37:	89 48 44             	mov    %ecx,0x44(%eax)
ff504d3a:	8b 52 54             	mov    0x54(%edx),%edx
ff504d3d:	89 50 48             	mov    %edx,0x48(%eax)
ff504d40:	c7 45 e4 00 00 00 00 	movl   $0x0,-0x1c(%ebp)
ff504d47:	8b 45 e4             	mov    -0x1c(%ebp),%eax
ff504d4a:	83 c4 34             	add    $0x34,%esp
ff504d4d:	5b                   	pop    %ebx
ff504d4e:	5d                   	pop    %ebp
ff504d4f:	c3                   	ret    

ff504d50 <_syscall>:
ff504d50:	55                   	push   %ebp
ff504d51:	89 e5                	mov    %esp,%ebp
ff504d53:	53                   	push   %ebx
ff504d54:	83 ec 34             	sub    $0x34,%esp
ff504d57:	8b 45 08             	mov    0x8(%ebp),%eax
ff504d5a:	89 45 ec             	mov    %eax,-0x14(%ebp)
ff504d5d:	8b 45 ec             	mov    -0x14(%ebp),%eax
ff504d60:	83 c0 18             	add    $0x18,%eax
ff504d63:	89 45 f0             	mov    %eax,-0x10(%ebp)
ff504d66:	8b 45 f0             	mov    -0x10(%ebp),%eax
ff504d69:	83 c0 1c             	add    $0x1c,%eax
ff504d6c:	89 45 f4             	mov    %eax,-0xc(%ebp)
ff504d6f:	8b 45 ec             	mov    -0x14(%ebp),%eax
ff504d72:	8b 18                	mov    (%eax),%ebx
ff504d74:	e8 e3 b3 ff ff       	call   ff50015c <getCR3>
ff504d79:	39 c3                	cmp    %eax,%ebx
ff504d7b:	74 24                	je     ff504da1 <_syscall+0x51>
ff504d7d:	c7 44 24 0c e7 00 00 	movl   $0xe7,0xc(%esp)
ff504d84:	00 
ff504d85:	c7 44 24 08 0f 74 50 	movl   $0xff50740f,0x8(%esp)
ff504d8c:	ff 
ff504d8d:	c7 44 24 04 e9 73 50 	movl   $0xff5073e9,0x4(%esp)
ff504d94:	ff 
ff504d95:	c7 04 24 18 74 50 ff 	movl   $0xff507418,(%esp)
ff504d9c:	e8 6f b7 ff ff       	call   ff500510 <printAssertMsg>
ff504da1:	8b 45 f0             	mov    -0x10(%ebp),%eax
ff504da4:	8b 40 1c             	mov    0x1c(%eax),%eax
ff504da7:	89 45 dc             	mov    %eax,-0x24(%ebp)
ff504daa:	83 7d dc 13          	cmpl   $0x13,-0x24(%ebp)
ff504dae:	0f 87 b1 03 00 00    	ja     ff505165 <_syscall+0x415>
ff504db4:	8b 55 dc             	mov    -0x24(%ebp),%edx
ff504db7:	8b 04 95 6c 74 50 ff 	mov    -0xaf8b94(,%edx,4),%eax
ff504dbe:	ff e0                	jmp    *%eax
ff504dc0:	8b 45 f0             	mov    -0x10(%ebp),%eax
ff504dc3:	8b 40 14             	mov    0x14(%eax),%eax
ff504dc6:	89 c2                	mov    %eax,%edx
ff504dc8:	8b 45 f0             	mov    -0x10(%ebp),%eax
ff504dcb:	8b 40 18             	mov    0x18(%eax),%eax
ff504dce:	89 c1                	mov    %eax,%ecx
ff504dd0:	8b 45 f0             	mov    -0x10(%ebp),%eax
ff504dd3:	8b 40 10             	mov    0x10(%eax),%eax
ff504dd6:	98                   	cwtl   
ff504dd7:	89 54 24 0c          	mov    %edx,0xc(%esp)
ff504ddb:	89 4c 24 08          	mov    %ecx,0x8(%esp)
ff504ddf:	89 44 24 04          	mov    %eax,0x4(%esp)
ff504de3:	8b 45 ec             	mov    -0x14(%ebp),%eax
ff504de6:	89 04 24             	mov    %eax,(%esp)
ff504de9:	e8 52 cd ff ff       	call   ff501b40 <sendMessage>
ff504dee:	89 c2                	mov    %eax,%edx
ff504df0:	8b 45 f4             	mov    -0xc(%ebp),%eax
ff504df3:	89 10                	mov    %edx,(%eax)
ff504df5:	e9 d6 03 00 00       	jmp    ff5051d0 <_syscall+0x480>
ff504dfa:	8b 45 f0             	mov    -0x10(%ebp),%eax
ff504dfd:	8b 40 14             	mov    0x14(%eax),%eax
ff504e00:	89 c2                	mov    %eax,%edx
ff504e02:	8b 45 f0             	mov    -0x10(%ebp),%eax
ff504e05:	8b 40 18             	mov    0x18(%eax),%eax
ff504e08:	89 c1                	mov    %eax,%ecx
ff504e0a:	8b 45 f0             	mov    -0x10(%ebp),%eax
ff504e0d:	8b 40 10             	mov    0x10(%eax),%eax
ff504e10:	98                   	cwtl   
ff504e11:	89 54 24 0c          	mov    %edx,0xc(%esp)
ff504e15:	89 4c 24 08          	mov    %ecx,0x8(%esp)
ff504e19:	89 44 24 04          	mov    %eax,0x4(%esp)
ff504e1d:	8b 45 ec             	mov    -0x14(%ebp),%eax
ff504e20:	89 04 24             	mov    %eax,(%esp)
ff504e23:	e8 18 d0 ff ff       	call   ff501e40 <receiveMessage>
ff504e28:	89 c2                	mov    %eax,%edx
ff504e2a:	8b 45 f4             	mov    -0xc(%ebp),%eax
ff504e2d:	89 10                	mov    %edx,(%eax)
ff504e2f:	e9 9c 03 00 00       	jmp    ff5051d0 <_syscall+0x480>
ff504e34:	8b 45 f0             	mov    -0x10(%ebp),%eax
ff504e37:	8b 40 10             	mov    0x10(%eax),%eax
ff504e3a:	89 44 24 04          	mov    %eax,0x4(%esp)
ff504e3e:	8b 45 ec             	mov    -0x14(%ebp),%eax
ff504e41:	89 04 24             	mov    %eax,(%esp)
ff504e44:	e8 b7 fc ff ff       	call   ff504b00 <sysExit>
ff504e49:	e9 82 03 00 00       	jmp    ff5051d0 <_syscall+0x480>
ff504e4e:	8b 45 f0             	mov    -0x10(%ebp),%eax
ff504e51:	8b 40 04             	mov    0x4(%eax),%eax
ff504e54:	98                   	cwtl   
ff504e55:	89 45 e0             	mov    %eax,-0x20(%ebp)
ff504e58:	8b 45 f0             	mov    -0x10(%ebp),%eax
ff504e5b:	8b 40 14             	mov    0x14(%eax),%eax
ff504e5e:	89 45 e4             	mov    %eax,-0x1c(%ebp)
ff504e61:	8b 45 f0             	mov    -0x10(%ebp),%eax
ff504e64:	8b 40 18             	mov    0x18(%eax),%eax
ff504e67:	83 f8 ff             	cmp    $0xffffffff,%eax
ff504e6a:	75 0a                	jne    ff504e76 <_syscall+0x126>
ff504e6c:	8b 45 ec             	mov    -0x14(%ebp),%eax
ff504e6f:	8b 00                	mov    (%eax),%eax
ff504e71:	89 45 e8             	mov    %eax,-0x18(%ebp)
ff504e74:	eb 09                	jmp    ff504e7f <_syscall+0x12f>
ff504e76:	8b 45 f0             	mov    -0x10(%ebp),%eax
ff504e79:	8b 40 18             	mov    0x18(%eax),%eax
ff504e7c:	89 45 e8             	mov    %eax,-0x18(%ebp)
ff504e7f:	8b 45 f0             	mov    -0x10(%ebp),%eax
ff504e82:	8b 40 10             	mov    0x10(%eax),%eax
ff504e85:	8b 4d e0             	mov    -0x20(%ebp),%ecx
ff504e88:	89 4c 24 0c          	mov    %ecx,0xc(%esp)
ff504e8c:	8b 5d e4             	mov    -0x1c(%ebp),%ebx
ff504e8f:	89 5c 24 08          	mov    %ebx,0x8(%esp)
ff504e93:	8b 55 e8             	mov    -0x18(%ebp),%edx
ff504e96:	89 54 24 04          	mov    %edx,0x4(%esp)
ff504e9a:	89 04 24             	mov    %eax,(%esp)
ff504e9d:	e8 fe 08 00 00       	call   ff5057a0 <createThread>
ff504ea2:	89 45 f8             	mov    %eax,-0x8(%ebp)
ff504ea5:	8b 55 f8             	mov    -0x8(%ebp),%edx
ff504ea8:	a1 3c c0 50 ff       	mov    0xff50c03c,%eax
ff504ead:	89 d1                	mov    %edx,%ecx
ff504eaf:	29 c1                	sub    %eax,%ecx
ff504eb1:	89 c8                	mov    %ecx,%eax
ff504eb3:	c1 f8 03             	sar    $0x3,%eax
ff504eb6:	69 c0 a3 8b 2e ba    	imul   $0xba2e8ba3,%eax,%eax
ff504ebc:	0f bf d0             	movswl %ax,%edx
ff504ebf:	8b 45 f4             	mov    -0xc(%ebp),%eax
ff504ec2:	89 10                	mov    %edx,(%eax)
ff504ec4:	e9 07 03 00 00       	jmp    ff5051d0 <_syscall+0x480>
ff504ec9:	8b 45 ec             	mov    -0x14(%ebp),%eax
ff504ecc:	89 04 24             	mov    %eax,(%esp)
ff504ecf:	e8 8c 07 00 00       	call   ff505660 <pauseThread>
ff504ed4:	89 c2                	mov    %eax,%edx
ff504ed6:	8b 45 f4             	mov    -0xc(%ebp),%eax
ff504ed9:	89 10                	mov    %edx,(%eax)
ff504edb:	e9 f0 02 00 00       	jmp    ff5051d0 <_syscall+0x480>
ff504ee0:	8b 45 f0             	mov    -0x10(%ebp),%eax
ff504ee3:	8b 40 10             	mov    0x10(%eax),%eax
ff504ee6:	66 83 f8 ff          	cmp    $0xffffffff,%ax
ff504eea:	75 0e                	jne    ff504efa <_syscall+0x1aa>
ff504eec:	8b 45 f4             	mov    -0xc(%ebp),%eax
ff504eef:	c7 00 ff ff ff ff    	movl   $0xffffffff,(%eax)
ff504ef5:	e9 d6 02 00 00       	jmp    ff5051d0 <_syscall+0x480>
ff504efa:	8b 15 3c c0 50 ff    	mov    0xff50c03c,%edx
ff504f00:	8b 45 f0             	mov    -0x10(%ebp),%eax
ff504f03:	8b 40 10             	mov    0x10(%eax),%eax
ff504f06:	98                   	cwtl   
ff504f07:	6b c0 58             	imul   $0x58,%eax,%eax
ff504f0a:	8d 04 02             	lea    (%edx,%eax,1),%eax
ff504f0d:	89 04 24             	mov    %eax,(%esp)
ff504f10:	e8 0b 04 00 00       	call   ff505320 <startThread>
ff504f15:	89 c2                	mov    %eax,%edx
ff504f17:	8b 45 f4             	mov    -0xc(%ebp),%eax
ff504f1a:	89 10                	mov    %edx,(%eax)
ff504f1c:	e9 af 02 00 00       	jmp    ff5051d0 <_syscall+0x480>
ff504f21:	8b 45 f0             	mov    -0x10(%ebp),%eax
ff504f24:	8b 40 10             	mov    0x10(%eax),%eax
ff504f27:	85 c0                	test   %eax,%eax
ff504f29:	75 10                	jne    ff504f3b <_syscall+0x1eb>
ff504f2b:	8b 45 ec             	mov    -0x14(%ebp),%eax
ff504f2e:	89 04 24             	mov    %eax,(%esp)
ff504f31:	e8 6a f3 ff ff       	call   ff5042a0 <sysYield>
ff504f36:	e9 95 02 00 00       	jmp    ff5051d0 <_syscall+0x480>
ff504f3b:	8b 45 f0             	mov    -0x10(%ebp),%eax
ff504f3e:	8b 40 10             	mov    0x10(%eax),%eax
ff504f41:	89 44 24 04          	mov    %eax,0x4(%esp)
ff504f45:	8b 45 ec             	mov    -0x14(%ebp),%eax
ff504f48:	89 04 24             	mov    %eax,(%esp)
ff504f4b:	e8 d0 04 00 00       	call   ff505420 <sleepThread>
ff504f50:	89 c2                	mov    %eax,%edx
ff504f52:	8b 45 f4             	mov    -0xc(%ebp),%eax
ff504f55:	89 10                	mov    %edx,(%eax)
ff504f57:	e9 74 02 00 00       	jmp    ff5051d0 <_syscall+0x480>
ff504f5c:	8b 45 f0             	mov    -0x10(%ebp),%eax
ff504f5f:	8b 40 10             	mov    0x10(%eax),%eax
ff504f62:	98                   	cwtl   
ff504f63:	89 44 24 04          	mov    %eax,0x4(%esp)
ff504f67:	8b 45 ec             	mov    -0x14(%ebp),%eax
ff504f6a:	89 04 24             	mov    %eax,(%esp)
ff504f6d:	e8 0e bb ff ff       	call   ff500a80 <sysEndPageFault>
ff504f72:	89 c2                	mov    %eax,%edx
ff504f74:	8b 45 f4             	mov    -0xc(%ebp),%eax
ff504f77:	89 10                	mov    %edx,(%eax)
ff504f79:	e9 52 02 00 00       	jmp    ff5051d0 <_syscall+0x480>
ff504f7e:	8b 45 f0             	mov    -0x10(%ebp),%eax
ff504f81:	8b 40 10             	mov    0x10(%eax),%eax
ff504f84:	89 44 24 04          	mov    %eax,0x4(%esp)
ff504f88:	8b 45 ec             	mov    -0x14(%ebp),%eax
ff504f8b:	89 04 24             	mov    %eax,(%esp)
ff504f8e:	e8 0d b9 ff ff       	call   ff5008a0 <sysEndIRQ>
ff504f93:	89 c2                	mov    %eax,%edx
ff504f95:	8b 45 f4             	mov    -0xc(%ebp),%eax
ff504f98:	89 10                	mov    %edx,(%eax)
ff504f9a:	e9 31 02 00 00       	jmp    ff5051d0 <_syscall+0x480>
ff504f9f:	8b 45 f0             	mov    -0x10(%ebp),%eax
ff504fa2:	8b 40 10             	mov    0x10(%eax),%eax
ff504fa5:	89 44 24 04          	mov    %eax,0x4(%esp)
ff504fa9:	8b 45 ec             	mov    -0x14(%ebp),%eax
ff504fac:	89 04 24             	mov    %eax,(%esp)
ff504faf:	e8 dc b9 ff ff       	call   ff500990 <sysRegisterInt>
ff504fb4:	89 c2                	mov    %eax,%edx
ff504fb6:	8b 45 f4             	mov    -0xc(%ebp),%eax
ff504fb9:	89 10                	mov    %edx,(%eax)
ff504fbb:	e9 10 02 00 00       	jmp    ff5051d0 <_syscall+0x480>
ff504fc0:	8b 45 f0             	mov    -0x10(%ebp),%eax
ff504fc3:	8b 48 14             	mov    0x14(%eax),%ecx
ff504fc6:	8b 45 f0             	mov    -0x10(%ebp),%eax
ff504fc9:	8b 40 18             	mov    0x18(%eax),%eax
ff504fcc:	89 c2                	mov    %eax,%edx
ff504fce:	8b 45 f0             	mov    -0x10(%ebp),%eax
ff504fd1:	8b 40 10             	mov    0x10(%eax),%eax
ff504fd4:	89 4c 24 0c          	mov    %ecx,0xc(%esp)
ff504fd8:	89 54 24 08          	mov    %edx,0x8(%esp)
ff504fdc:	89 44 24 04          	mov    %eax,0x4(%esp)
ff504fe0:	8b 45 ec             	mov    -0x14(%ebp),%eax
ff504fe3:	89 04 24             	mov    %eax,(%esp)
ff504fe6:	e8 45 0d 00 00       	call   ff505d30 <sysMap>
ff504feb:	89 c2                	mov    %eax,%edx
ff504fed:	8b 45 f4             	mov    -0xc(%ebp),%eax
ff504ff0:	89 10                	mov    %edx,(%eax)
ff504ff2:	e9 d9 01 00 00       	jmp    ff5051d0 <_syscall+0x480>
ff504ff7:	8b 45 f0             	mov    -0x10(%ebp),%eax
ff504ffa:	8b 50 04             	mov    0x4(%eax),%edx
ff504ffd:	8b 45 f0             	mov    -0x10(%ebp),%eax
ff505000:	8b 40 14             	mov    0x14(%eax),%eax
ff505003:	89 c1                	mov    %eax,%ecx
ff505005:	8b 45 f0             	mov    -0x10(%ebp),%eax
ff505008:	8b 40 18             	mov    0x18(%eax),%eax
ff50500b:	89 c3                	mov    %eax,%ebx
ff50500d:	8b 45 f0             	mov    -0x10(%ebp),%eax
ff505010:	8b 40 10             	mov    0x10(%eax),%eax
ff505013:	89 54 24 10          	mov    %edx,0x10(%esp)
ff505017:	89 4c 24 0c          	mov    %ecx,0xc(%esp)
ff50501b:	89 5c 24 08          	mov    %ebx,0x8(%esp)
ff50501f:	89 44 24 04          	mov    %eax,0x4(%esp)
ff505023:	8b 45 ec             	mov    -0x14(%ebp),%eax
ff505026:	89 04 24             	mov    %eax,(%esp)
ff505029:	e8 c2 0e 00 00       	call   ff505ef0 <sysGrant>
ff50502e:	89 c2                	mov    %eax,%edx
ff505030:	8b 45 f4             	mov    -0xc(%ebp),%eax
ff505033:	89 10                	mov    %edx,(%eax)
ff505035:	e9 96 01 00 00       	jmp    ff5051d0 <_syscall+0x480>
ff50503a:	8b 45 f0             	mov    -0x10(%ebp),%eax
ff50503d:	8b 40 18             	mov    0x18(%eax),%eax
ff505040:	89 c2                	mov    %eax,%edx
ff505042:	8b 45 f0             	mov    -0x10(%ebp),%eax
ff505045:	8b 40 10             	mov    0x10(%eax),%eax
ff505048:	89 54 24 08          	mov    %edx,0x8(%esp)
ff50504c:	89 44 24 04          	mov    %eax,0x4(%esp)
ff505050:	8b 45 ec             	mov    -0x14(%ebp),%eax
ff505053:	89 04 24             	mov    %eax,(%esp)
ff505056:	e8 c5 0d 00 00       	call   ff505e20 <sysMapPageTable>
ff50505b:	89 c2                	mov    %eax,%edx
ff50505d:	8b 45 f4             	mov    -0xc(%ebp),%eax
ff505060:	89 10                	mov    %edx,(%eax)
ff505062:	e9 69 01 00 00       	jmp    ff5051d0 <_syscall+0x480>
ff505067:	8b 45 f0             	mov    -0x10(%ebp),%eax
ff50506a:	8b 50 04             	mov    0x4(%eax),%edx
ff50506d:	8b 45 f0             	mov    -0x10(%ebp),%eax
ff505070:	8b 40 14             	mov    0x14(%eax),%eax
ff505073:	89 c1                	mov    %eax,%ecx
ff505075:	8b 45 f0             	mov    -0x10(%ebp),%eax
ff505078:	8b 40 18             	mov    0x18(%eax),%eax
ff50507b:	89 c3                	mov    %eax,%ebx
ff50507d:	8b 45 f0             	mov    -0x10(%ebp),%eax
ff505080:	8b 40 10             	mov    0x10(%eax),%eax
ff505083:	89 54 24 10          	mov    %edx,0x10(%esp)
ff505087:	89 4c 24 0c          	mov    %ecx,0xc(%esp)
ff50508b:	89 5c 24 08          	mov    %ebx,0x8(%esp)
ff50508f:	89 44 24 04          	mov    %eax,0x4(%esp)
ff505093:	8b 45 ec             	mov    -0x14(%ebp),%eax
ff505096:	89 04 24             	mov    %eax,(%esp)
ff505099:	e8 52 0f 00 00       	call   ff505ff0 <sysGrantPageTable>
ff50509e:	89 c2                	mov    %eax,%edx
ff5050a0:	8b 45 f4             	mov    -0xc(%ebp),%eax
ff5050a3:	89 10                	mov    %edx,(%eax)
ff5050a5:	e9 26 01 00 00       	jmp    ff5051d0 <_syscall+0x480>
ff5050aa:	8b 45 f0             	mov    -0x10(%ebp),%eax
ff5050ad:	8b 40 18             	mov    0x18(%eax),%eax
ff5050b0:	89 c2                	mov    %eax,%edx
ff5050b2:	8b 45 f0             	mov    -0x10(%ebp),%eax
ff5050b5:	8b 40 10             	mov    0x10(%eax),%eax
ff5050b8:	98                   	cwtl   
ff5050b9:	89 54 24 08          	mov    %edx,0x8(%esp)
ff5050bd:	89 44 24 04          	mov    %eax,0x4(%esp)
ff5050c1:	8b 45 ec             	mov    -0x14(%ebp),%eax
ff5050c4:	89 04 24             	mov    %eax,(%esp)
ff5050c7:	e8 d4 fa ff ff       	call   ff504ba0 <sysGetThreadInfo>
ff5050cc:	89 c2                	mov    %eax,%edx
ff5050ce:	8b 45 f4             	mov    -0xc(%ebp),%eax
ff5050d1:	89 10                	mov    %edx,(%eax)
ff5050d3:	e9 f8 00 00 00       	jmp    ff5051d0 <_syscall+0x480>
ff5050d8:	8b 45 f0             	mov    -0x10(%ebp),%eax
ff5050db:	8b 40 10             	mov    0x10(%eax),%eax
ff5050de:	89 44 24 04          	mov    %eax,0x4(%esp)
ff5050e2:	8b 45 ec             	mov    -0x14(%ebp),%eax
ff5050e5:	89 04 24             	mov    %eax,(%esp)
ff5050e8:	e8 a3 0b 00 00       	call   ff505c90 <sysUnmap>
ff5050ed:	89 c2                	mov    %eax,%edx
ff5050ef:	8b 45 f4             	mov    -0xc(%ebp),%eax
ff5050f2:	89 10                	mov    %edx,(%eax)
ff5050f4:	e9 d7 00 00 00       	jmp    ff5051d0 <_syscall+0x480>
ff5050f9:	8b 45 f0             	mov    -0x10(%ebp),%eax
ff5050fc:	8b 40 10             	mov    0x10(%eax),%eax
ff5050ff:	89 44 24 04          	mov    %eax,0x4(%esp)
ff505103:	8b 45 ec             	mov    -0x14(%ebp),%eax
ff505106:	89 04 24             	mov    %eax,(%esp)
ff505109:	e8 d2 0b 00 00       	call   ff505ce0 <sysUnmapPageTable>
ff50510e:	89 c2                	mov    %eax,%edx
ff505110:	8b 45 f4             	mov    -0xc(%ebp),%eax
ff505113:	89 10                	mov    %edx,(%eax)
ff505115:	e9 b6 00 00 00       	jmp    ff5051d0 <_syscall+0x480>
ff50511a:	8b 45 f0             	mov    -0x10(%ebp),%eax
ff50511d:	8b 40 18             	mov    0x18(%eax),%eax
ff505120:	89 c2                	mov    %eax,%edx
ff505122:	8b 45 f0             	mov    -0x10(%ebp),%eax
ff505125:	8b 40 10             	mov    0x10(%eax),%eax
ff505128:	89 54 24 08          	mov    %edx,0x8(%esp)
ff50512c:	89 44 24 04          	mov    %eax,0x4(%esp)
ff505130:	8b 45 ec             	mov    -0x14(%ebp),%eax
ff505133:	89 04 24             	mov    %eax,(%esp)
ff505136:	e8 b5 f7 ff ff       	call   ff5048f0 <sysRaise>
ff50513b:	89 c2                	mov    %eax,%edx
ff50513d:	8b 45 f4             	mov    -0xc(%ebp),%eax
ff505140:	89 10                	mov    %edx,(%eax)
ff505142:	e9 89 00 00 00       	jmp    ff5051d0 <_syscall+0x480>
ff505147:	8b 45 f0             	mov    -0x10(%ebp),%eax
ff50514a:	8b 40 10             	mov    0x10(%eax),%eax
ff50514d:	89 44 24 04          	mov    %eax,0x4(%esp)
ff505151:	8b 45 ec             	mov    -0x14(%ebp),%eax
ff505154:	89 04 24             	mov    %eax,(%esp)
ff505157:	e8 74 f7 ff ff       	call   ff5048d0 <sysSetSigHandler>
ff50515c:	89 c2                	mov    %eax,%edx
ff50515e:	8b 45 f4             	mov    -0xc(%ebp),%eax
ff505161:	89 10                	mov    %edx,(%eax)
ff505163:	eb 6b                	jmp    ff5051d0 <_syscall+0x480>
ff505165:	8b 45 ec             	mov    -0x14(%ebp),%eax
ff505168:	8b 48 44             	mov    0x44(%eax),%ecx
ff50516b:	8b 55 ec             	mov    -0x14(%ebp),%edx
ff50516e:	a1 3c c0 50 ff       	mov    0xff50c03c,%eax
ff505173:	89 d3                	mov    %edx,%ebx
ff505175:	29 c3                	sub    %eax,%ebx
ff505177:	89 d8                	mov    %ebx,%eax
ff505179:	c1 f8 03             	sar    $0x3,%eax
ff50517c:	69 c0 a3 8b 2e ba    	imul   $0xba2e8ba3,%eax,%eax
ff505182:	0f bf d0             	movswl %ax,%edx
ff505185:	8b 45 f0             	mov    -0x10(%ebp),%eax
ff505188:	8b 40 1c             	mov    0x1c(%eax),%eax
ff50518b:	89 4c 24 0c          	mov    %ecx,0xc(%esp)
ff50518f:	89 54 24 08          	mov    %edx,0x8(%esp)
ff505193:	89 44 24 04          	mov    %eax,0x4(%esp)
ff505197:	c7 04 24 40 74 50 ff 	movl   $0xff507440,(%esp)
ff50519e:	e8 ad b5 ff ff       	call   ff500750 <kprintf>
ff5051a3:	c7 44 24 0c 3b 01 00 	movl   $0x13b,0xc(%esp)
ff5051aa:	00 
ff5051ab:	c7 44 24 08 0f 74 50 	movl   $0xff50740f,0x8(%esp)
ff5051b2:	ff 
ff5051b3:	c7 44 24 04 e9 73 50 	movl   $0xff5073e9,0x4(%esp)
ff5051ba:	ff 
ff5051bb:	c7 04 24 63 74 50 ff 	movl   $0xff507463,(%esp)
ff5051c2:	e8 49 b3 ff ff       	call   ff500510 <printAssertMsg>
ff5051c7:	8b 45 f4             	mov    -0xc(%ebp),%eax
ff5051ca:	c7 00 ff ff ff ff    	movl   $0xffffffff,(%eax)
ff5051d0:	83 c4 34             	add    $0x34,%esp
ff5051d3:	5b                   	pop    %ebx
ff5051d4:	5d                   	pop    %ebp
ff5051d5:	c3                   	ret    
	...

ff5051e0 <getFreeTID>:
ff5051e0:	55                   	push   %ebp
ff5051e1:	89 e5                	mov    %esp,%ebp
ff5051e3:	83 ec 38             	sub    $0x38,%esp
ff5051e6:	c7 45 fc 00 00 00 00 	movl   $0x0,-0x4(%ebp)
ff5051ed:	0f b7 05 00 c0 50 ff 	movzwl 0xff50c000,%eax
ff5051f4:	98                   	cwtl   
ff5051f5:	89 44 24 04          	mov    %eax,0x4(%esp)
ff5051f9:	c7 04 24 c7 74 50 ff 	movl   $0xff5074c7,(%esp)
ff505200:	e8 4b b5 ff ff       	call   ff500750 <kprintf>
ff505205:	8b 15 3c c0 50 ff    	mov    0xff50c03c,%edx
ff50520b:	0f b7 05 00 c0 50 ff 	movzwl 0xff50c000,%eax
ff505212:	98                   	cwtl   
ff505213:	6b c0 58             	imul   $0x58,%eax,%eax
ff505216:	8d 04 02             	lea    (%edx,%eax,1),%eax
ff505219:	0f b6 40 05          	movzbl 0x5(%eax),%eax
ff50521d:	83 e0 0f             	and    $0xf,%eax
ff505220:	84 c0                	test   %al,%al
ff505222:	75 44                	jne    ff505268 <getFreeTID+0x88>
ff505224:	c7 04 24 d8 74 50 ff 	movl   $0xff5074d8,(%esp)
ff50522b:	e8 20 b5 ff ff       	call   ff500750 <kprintf>
ff505230:	eb 36                	jmp    ff505268 <getFreeTID+0x88>
ff505232:	0f b7 05 00 c0 50 ff 	movzwl 0xff50c000,%eax
ff505239:	0f bf d0             	movswl %ax,%edx
ff50523c:	a1 40 c0 50 ff       	mov    0xff50c040,%eax
ff505241:	83 e8 01             	sub    $0x1,%eax
ff505244:	39 c2                	cmp    %eax,%edx
ff505246:	74 10                	je     ff505258 <getFreeTID+0x78>
ff505248:	0f b7 05 00 c0 50 ff 	movzwl 0xff50c000,%eax
ff50524f:	83 c0 01             	add    $0x1,%eax
ff505252:	66 89 45 ec          	mov    %ax,-0x14(%ebp)
ff505256:	eb 06                	jmp    ff50525e <getFreeTID+0x7e>
ff505258:	66 c7 45 ec 01 00    	movw   $0x1,-0x14(%ebp)
ff50525e:	0f b7 45 ec          	movzwl -0x14(%ebp),%eax
ff505262:	66 a3 00 c0 50 ff    	mov    %ax,0xff50c000
ff505268:	8b 15 3c c0 50 ff    	mov    0xff50c03c,%edx
ff50526e:	0f b7 05 00 c0 50 ff 	movzwl 0xff50c000,%eax
ff505275:	98                   	cwtl   
ff505276:	6b c0 58             	imul   $0x58,%eax,%eax
ff505279:	8d 04 02             	lea    (%edx,%eax,1),%eax
ff50527c:	0f b6 40 05          	movzbl 0x5(%eax),%eax
ff505280:	83 e0 0f             	and    $0xf,%eax
ff505283:	84 c0                	test   %al,%al
ff505285:	74 13                	je     ff50529a <getFreeTID+0xba>
ff505287:	a1 40 c0 50 ff       	mov    0xff50c040,%eax
ff50528c:	39 45 fc             	cmp    %eax,-0x4(%ebp)
ff50528f:	0f 9c c0             	setl   %al
ff505292:	83 45 fc 01          	addl   $0x1,-0x4(%ebp)
ff505296:	84 c0                	test   %al,%al
ff505298:	75 98                	jne    ff505232 <getFreeTID+0x52>
ff50529a:	c7 04 24 06 75 50 ff 	movl   $0xff507506,(%esp)
ff5052a1:	e8 aa b4 ff ff       	call   ff500750 <kprintf>
ff5052a6:	8b 15 3c c0 50 ff    	mov    0xff50c03c,%edx
ff5052ac:	0f b7 05 00 c0 50 ff 	movzwl 0xff50c000,%eax
ff5052b3:	98                   	cwtl   
ff5052b4:	6b c0 58             	imul   $0x58,%eax,%eax
ff5052b7:	8d 04 02             	lea    (%edx,%eax,1),%eax
ff5052ba:	0f b6 40 05          	movzbl 0x5(%eax),%eax
ff5052be:	83 e0 0f             	and    $0xf,%eax
ff5052c1:	84 c0                	test   %al,%al
ff5052c3:	75 0d                	jne    ff5052d2 <getFreeTID+0xf2>
ff5052c5:	0f b7 05 00 c0 50 ff 	movzwl 0xff50c000,%eax
ff5052cc:	66 89 45 ee          	mov    %ax,-0x12(%ebp)
ff5052d0:	eb 3a                	jmp    ff50530c <getFreeTID+0x12c>
ff5052d2:	c7 44 24 14 15 75 50 	movl   $0xff507515,0x14(%esp)
ff5052d9:	ff 
ff5052da:	c7 44 24 10 ff ff ff 	movl   $0xffffffff,0x10(%esp)
ff5052e1:	ff 
ff5052e2:	c7 44 24 0c 22 00 00 	movl   $0x22,0xc(%esp)
ff5052e9:	00 
ff5052ea:	c7 44 24 08 bc 74 50 	movl   $0xff5074bc,0x8(%esp)
ff5052f1:	ff 
ff5052f2:	c7 44 24 04 29 75 50 	movl   $0xff507529,0x4(%esp)
ff5052f9:	ff 
ff5052fa:	c7 04 24 32 75 50 ff 	movl   $0xff507532,(%esp)
ff505301:	e8 4a b4 ff ff       	call   ff500750 <kprintf>
ff505306:	66 c7 45 ee ff ff    	movw   $0xffff,-0x12(%ebp)
ff50530c:	0f b7 45 ee          	movzwl -0x12(%ebp),%eax
ff505310:	c9                   	leave  
ff505311:	c3                   	ret    
ff505312:	8d b4 26 00 00 00 00 	lea    0x0(%esi,%eiz,1),%esi
ff505319:	8d bc 27 00 00 00 00 	lea    0x0(%edi,%eiz,1),%edi

ff505320 <startThread>:
ff505320:	55                   	push   %ebp
ff505321:	89 e5                	mov    %esp,%ebp
ff505323:	83 ec 18             	sub    $0x18,%esp
ff505326:	83 7d 08 00          	cmpl   $0x0,0x8(%ebp)
ff50532a:	75 24                	jne    ff505350 <startThread+0x30>
ff50532c:	c7 44 24 0c 49 00 00 	movl   $0x49,0xc(%esp)
ff505333:	00 
ff505334:	c7 44 24 08 4d 75 50 	movl   $0xff50754d,0x8(%esp)
ff50533b:	ff 
ff50533c:	c7 44 24 04 29 75 50 	movl   $0xff507529,0x4(%esp)
ff505343:	ff 
ff505344:	c7 04 24 59 75 50 ff 	movl   $0xff507559,(%esp)
ff50534b:	e8 c0 b1 ff ff       	call   ff500510 <printAssertMsg>
ff505350:	83 7d 08 00          	cmpl   $0x0,0x8(%ebp)
ff505354:	75 0c                	jne    ff505362 <startThread+0x42>
ff505356:	c7 45 fc ff ff ff ff 	movl   $0xffffffff,-0x4(%ebp)
ff50535d:	e9 b5 00 00 00       	jmp    ff505417 <startThread+0xf7>
ff505362:	8b 45 08             	mov    0x8(%ebp),%eax
ff505365:	0f b6 40 05          	movzbl 0x5(%eax),%eax
ff505369:	83 e0 0f             	and    $0xf,%eax
ff50536c:	3c 01                	cmp    $0x1,%al
ff50536e:	0f 85 9c 00 00 00    	jne    ff505410 <startThread+0xf0>
ff505374:	8b 55 08             	mov    0x8(%ebp),%edx
ff505377:	a1 50 c0 50 ff       	mov    0xff50c050,%eax
ff50537c:	39 c2                	cmp    %eax,%edx
ff50537e:	75 24                	jne    ff5053a4 <startThread+0x84>
ff505380:	c7 44 24 0c 50 00 00 	movl   $0x50,0xc(%esp)
ff505387:	00 
ff505388:	c7 44 24 08 4d 75 50 	movl   $0xff50754d,0x8(%esp)
ff50538f:	ff 
ff505390:	c7 44 24 04 29 75 50 	movl   $0xff507529,0x4(%esp)
ff505397:	ff 
ff505398:	c7 04 24 68 75 50 ff 	movl   $0xff507568,(%esp)
ff50539f:	e8 6c b1 ff ff       	call   ff500510 <printAssertMsg>
ff5053a4:	8b 55 08             	mov    0x8(%ebp),%edx
ff5053a7:	0f b6 42 05          	movzbl 0x5(%edx),%eax
ff5053ab:	83 e0 f0             	and    $0xfffffff0,%eax
ff5053ae:	83 c8 03             	or     $0x3,%eax
ff5053b1:	88 42 05             	mov    %al,0x5(%edx)
ff5053b4:	8b 45 08             	mov    0x8(%ebp),%eax
ff5053b7:	0f b6 40 05          	movzbl 0x5(%eax),%eax
ff5053bb:	c0 e8 04             	shr    $0x4,%al
ff5053be:	83 e0 07             	and    $0x7,%eax
ff5053c1:	8d 50 01             	lea    0x1(%eax),%edx
ff5053c4:	8b 45 08             	mov    0x8(%ebp),%eax
ff5053c7:	88 50 04             	mov    %dl,0x4(%eax)
ff5053ca:	8b 45 08             	mov    0x8(%ebp),%eax
ff5053cd:	0f b6 40 05          	movzbl 0x5(%eax),%eax
ff5053d1:	83 e0 0f             	and    $0xf,%eax
ff5053d4:	84 c0                	test   %al,%al
ff5053d6:	75 24                	jne    ff5053fc <startThread+0xdc>
ff5053d8:	c7 44 24 0c 55 00 00 	movl   $0x55,0xc(%esp)
ff5053df:	00 
ff5053e0:	c7 44 24 08 4d 75 50 	movl   $0xff50754d,0x8(%esp)
ff5053e7:	ff 
ff5053e8:	c7 44 24 04 29 75 50 	movl   $0xff507529,0x4(%esp)
ff5053ef:	ff 
ff5053f0:	c7 04 24 80 75 50 ff 	movl   $0xff507580,(%esp)
ff5053f7:	e8 14 b1 ff ff       	call   ff500510 <printAssertMsg>
ff5053fc:	8b 45 08             	mov    0x8(%ebp),%eax
ff5053ff:	89 04 24             	mov    %eax,(%esp)
ff505402:	e8 29 f0 ff ff       	call   ff504430 <attachRunQueue>
ff505407:	c7 45 fc 00 00 00 00 	movl   $0x0,-0x4(%ebp)
ff50540e:	eb 07                	jmp    ff505417 <startThread+0xf7>
ff505410:	c7 45 fc 01 00 00 00 	movl   $0x1,-0x4(%ebp)
ff505417:	8b 45 fc             	mov    -0x4(%ebp),%eax
ff50541a:	c9                   	leave  
ff50541b:	c3                   	ret    
ff50541c:	8d 74 26 00          	lea    0x0(%esi,%eiz,1),%esi

ff505420 <sleepThread>:
ff505420:	55                   	push   %ebp
ff505421:	89 e5                	mov    %esp,%ebp
ff505423:	53                   	push   %ebx
ff505424:	83 ec 24             	sub    $0x24,%esp
ff505427:	83 7d 08 00          	cmpl   $0x0,0x8(%ebp)
ff50542b:	75 24                	jne    ff505451 <sleepThread+0x31>
ff50542d:	c7 44 24 0c 62 00 00 	movl   $0x62,0xc(%esp)
ff505434:	00 
ff505435:	c7 44 24 08 96 75 50 	movl   $0xff507596,0x8(%esp)
ff50543c:	ff 
ff50543d:	c7 44 24 04 29 75 50 	movl   $0xff507529,0x4(%esp)
ff505444:	ff 
ff505445:	c7 04 24 59 75 50 ff 	movl   $0xff507559,(%esp)
ff50544c:	e8 bf b0 ff ff       	call   ff500510 <printAssertMsg>
ff505451:	83 7d 0c 00          	cmpl   $0x0,0xc(%ebp)
ff505455:	7f 24                	jg     ff50547b <sleepThread+0x5b>
ff505457:	c7 44 24 0c 63 00 00 	movl   $0x63,0xc(%esp)
ff50545e:	00 
ff50545f:	c7 44 24 08 96 75 50 	movl   $0xff507596,0x8(%esp)
ff505466:	ff 
ff505467:	c7 44 24 04 29 75 50 	movl   $0xff507529,0x4(%esp)
ff50546e:	ff 
ff50546f:	c7 04 24 a2 75 50 ff 	movl   $0xff5075a2,(%esp)
ff505476:	e8 95 b0 ff ff       	call   ff500510 <printAssertMsg>
ff50547b:	8b 45 08             	mov    0x8(%ebp),%eax
ff50547e:	0f b6 40 05          	movzbl 0x5(%eax),%eax
ff505482:	83 e0 0f             	and    $0xf,%eax
ff505485:	3c 02                	cmp    $0x2,%al
ff505487:	75 40                	jne    ff5054c9 <sleepThread+0xa9>
ff505489:	c7 44 24 14 ac 75 50 	movl   $0xff5075ac,0x14(%esp)
ff505490:	ff 
ff505491:	c7 44 24 10 ff ff ff 	movl   $0xffffffff,0x10(%esp)
ff505498:	ff 
ff505499:	c7 44 24 0c 66 00 00 	movl   $0x66,0xc(%esp)
ff5054a0:	00 
ff5054a1:	c7 44 24 08 96 75 50 	movl   $0xff507596,0x8(%esp)
ff5054a8:	ff 
ff5054a9:	c7 44 24 04 29 75 50 	movl   $0xff507529,0x4(%esp)
ff5054b0:	ff 
ff5054b1:	c7 04 24 32 75 50 ff 	movl   $0xff507532,(%esp)
ff5054b8:	e8 93 b2 ff ff       	call   ff500750 <kprintf>
ff5054bd:	c7 45 f8 ff ff ff ff 	movl   $0xffffffff,-0x8(%ebp)
ff5054c4:	e9 80 01 00 00       	jmp    ff505649 <sleepThread+0x229>
ff5054c9:	8b 45 08             	mov    0x8(%ebp),%eax
ff5054cc:	0f b6 40 05          	movzbl 0x5(%eax),%eax
ff5054d0:	83 e0 0f             	and    $0xf,%eax
ff5054d3:	3c 03                	cmp    $0x3,%al
ff5054d5:	74 4a                	je     ff505521 <sleepThread+0x101>
ff5054d7:	8b 45 08             	mov    0x8(%ebp),%eax
ff5054da:	0f b6 40 05          	movzbl 0x5(%eax),%eax
ff5054de:	83 e0 0f             	and    $0xf,%eax
ff5054e1:	3c 04                	cmp    $0x4,%al
ff5054e3:	74 3c                	je     ff505521 <sleepThread+0x101>
ff5054e5:	c7 04 24 be 75 50 ff 	movl   $0xff5075be,(%esp)
ff5054ec:	e8 5f b2 ff ff       	call   ff500750 <kprintf>
ff5054f1:	c7 44 24 0c 6b 00 00 	movl   $0x6b,0xc(%esp)
ff5054f8:	00 
ff5054f9:	c7 44 24 08 96 75 50 	movl   $0xff507596,0x8(%esp)
ff505500:	ff 
ff505501:	c7 44 24 04 29 75 50 	movl   $0xff507529,0x4(%esp)
ff505508:	ff 
ff505509:	c7 04 24 d5 75 50 ff 	movl   $0xff5075d5,(%esp)
ff505510:	e8 fb af ff ff       	call   ff500510 <printAssertMsg>
ff505515:	c7 45 f8 ff ff ff ff 	movl   $0xffffffff,-0x8(%ebp)
ff50551c:	e9 28 01 00 00       	jmp    ff505649 <sleepThread+0x229>
ff505521:	8b 45 08             	mov    0x8(%ebp),%eax
ff505524:	0f b6 40 05          	movzbl 0x5(%eax),%eax
ff505528:	83 e0 0f             	and    $0xf,%eax
ff50552b:	3c 03                	cmp    $0x3,%al
ff50552d:	75 27                	jne    ff505556 <sleepThread+0x136>
ff50552f:	8b 55 08             	mov    0x8(%ebp),%edx
ff505532:	a1 3c c0 50 ff       	mov    0xff50c03c,%eax
ff505537:	89 d1                	mov    %edx,%ecx
ff505539:	29 c1                	sub    %eax,%ecx
ff50553b:	89 c8                	mov    %ecx,%eax
ff50553d:	c1 f8 03             	sar    $0x3,%eax
ff505540:	69 c0 a3 8b 2e ba    	imul   $0xba2e8ba3,%eax,%eax
ff505546:	66 85 c0             	test   %ax,%ax
ff505549:	74 0b                	je     ff505556 <sleepThread+0x136>
ff50554b:	8b 45 08             	mov    0x8(%ebp),%eax
ff50554e:	89 04 24             	mov    %eax,(%esp)
ff505551:	e8 8a f0 ff ff       	call   ff5045e0 <detachRunQueue>
ff505556:	8b 55 0c             	mov    0xc(%ebp),%edx
ff505559:	89 d0                	mov    %edx,%eax
ff50555b:	c1 e0 02             	shl    $0x2,%eax
ff50555e:	01 d0                	add    %edx,%eax
ff505560:	01 c0                	add    %eax,%eax
ff505562:	89 c1                	mov    %eax,%ecx
ff505564:	c7 45 f4 d3 4d 62 10 	movl   $0x10624dd3,-0xc(%ebp)
ff50556b:	8b 45 f4             	mov    -0xc(%ebp),%eax
ff50556e:	f7 e9                	imul   %ecx
ff505570:	c1 fa 06             	sar    $0x6,%edx
ff505573:	89 c8                	mov    %ecx,%eax
ff505575:	c1 f8 1f             	sar    $0x1f,%eax
ff505578:	89 d1                	mov    %edx,%ecx
ff50557a:	29 c1                	sub    %eax,%ecx
ff50557c:	89 c8                	mov    %ecx,%eax
ff50557e:	0f b7 c8             	movzwl %ax,%ecx
ff505581:	8b 55 08             	mov    0x8(%ebp),%edx
ff505584:	a1 3c c0 50 ff       	mov    0xff50c03c,%eax
ff505589:	89 d3                	mov    %edx,%ebx
ff50558b:	29 c3                	sub    %eax,%ebx
ff50558d:	89 d8                	mov    %ebx,%eax
ff50558f:	c1 f8 03             	sar    $0x3,%eax
ff505592:	69 c0 a3 8b 2e ba    	imul   $0xba2e8ba3,%eax,%eax
ff505598:	98                   	cwtl   
ff505599:	89 4c 24 08          	mov    %ecx,0x8(%esp)
ff50559d:	89 44 24 04          	mov    %eax,0x4(%esp)
ff5055a1:	c7 04 24 4c c0 50 ff 	movl   $0xff50c04c,(%esp)
ff5055a8:	e8 f3 e1 ff ff       	call   ff5037a0 <sleepEnqueue>
ff5055ad:	85 c0                	test   %eax,%eax
ff5055af:	74 2d                	je     ff5055de <sleepThread+0x1be>
ff5055b1:	c7 44 24 0c 74 00 00 	movl   $0x74,0xc(%esp)
ff5055b8:	00 
ff5055b9:	c7 44 24 08 96 75 50 	movl   $0xff507596,0x8(%esp)
ff5055c0:	ff 
ff5055c1:	c7 44 24 04 29 75 50 	movl   $0xff507529,0x4(%esp)
ff5055c8:	ff 
ff5055c9:	c7 04 24 d5 75 50 ff 	movl   $0xff5075d5,(%esp)
ff5055d0:	e8 3b af ff ff       	call   ff500510 <printAssertMsg>
ff5055d5:	c7 45 f8 ff ff ff ff 	movl   $0xffffffff,-0x8(%ebp)
ff5055dc:	eb 6b                	jmp    ff505649 <sleepThread+0x229>
ff5055de:	8b 0d 3c c0 50 ff    	mov    0xff50c03c,%ecx
ff5055e4:	8b 55 08             	mov    0x8(%ebp),%edx
ff5055e7:	a1 3c c0 50 ff       	mov    0xff50c03c,%eax
ff5055ec:	89 d3                	mov    %edx,%ebx
ff5055ee:	29 c3                	sub    %eax,%ebx
ff5055f0:	89 d8                	mov    %ebx,%eax
ff5055f2:	c1 f8 03             	sar    $0x3,%eax
ff5055f5:	69 c0 a3 8b 2e ba    	imul   $0xba2e8ba3,%eax,%eax
ff5055fb:	98                   	cwtl   
ff5055fc:	6b c0 58             	imul   $0x58,%eax,%eax
ff5055ff:	8d 04 01             	lea    (%ecx,%eax,1),%eax
ff505602:	3b 45 08             	cmp    0x8(%ebp),%eax
ff505605:	74 24                	je     ff50562b <sleepThread+0x20b>
ff505607:	c7 44 24 0c 79 00 00 	movl   $0x79,0xc(%esp)
ff50560e:	00 
ff50560f:	c7 44 24 08 96 75 50 	movl   $0xff507596,0x8(%esp)
ff505616:	ff 
ff505617:	c7 44 24 04 29 75 50 	movl   $0xff507529,0x4(%esp)
ff50561e:	ff 
ff50561f:	c7 04 24 dc 75 50 ff 	movl   $0xff5075dc,(%esp)
ff505626:	e8 e5 ae ff ff       	call   ff500510 <printAssertMsg>
ff50562b:	8b 45 08             	mov    0x8(%ebp),%eax
ff50562e:	c6 40 04 00          	movb   $0x0,0x4(%eax)
ff505632:	8b 55 08             	mov    0x8(%ebp),%edx
ff505635:	0f b6 42 05          	movzbl 0x5(%edx),%eax
ff505639:	83 e0 f0             	and    $0xfffffff0,%eax
ff50563c:	83 c8 02             	or     $0x2,%eax
ff50563f:	88 42 05             	mov    %al,0x5(%edx)
ff505642:	c7 45 f8 00 00 00 00 	movl   $0x0,-0x8(%ebp)
ff505649:	8b 45 f8             	mov    -0x8(%ebp),%eax
ff50564c:	83 c4 24             	add    $0x24,%esp
ff50564f:	5b                   	pop    %ebx
ff505650:	5d                   	pop    %ebp
ff505651:	c3                   	ret    
ff505652:	8d b4 26 00 00 00 00 	lea    0x0(%esi,%eiz,1),%esi
ff505659:	8d bc 27 00 00 00 00 	lea    0x0(%edi,%eiz,1),%edi

ff505660 <pauseThread>:
ff505660:	55                   	push   %ebp
ff505661:	89 e5                	mov    %esp,%ebp
ff505663:	83 ec 28             	sub    $0x28,%esp
ff505666:	83 7d 08 00          	cmpl   $0x0,0x8(%ebp)
ff50566a:	75 24                	jne    ff505690 <pauseThread+0x30>
ff50566c:	c7 44 24 0c 84 00 00 	movl   $0x84,0xc(%esp)
ff505673:	00 
ff505674:	c7 44 24 08 01 76 50 	movl   $0xff507601,0x8(%esp)
ff50567b:	ff 
ff50567c:	c7 44 24 04 29 75 50 	movl   $0xff507529,0x4(%esp)
ff505683:	ff 
ff505684:	c7 04 24 59 75 50 ff 	movl   $0xff507559,(%esp)
ff50568b:	e8 80 ae ff ff       	call   ff500510 <printAssertMsg>
ff505690:	83 7d 08 00          	cmpl   $0x0,0x8(%ebp)
ff505694:	75 40                	jne    ff5056d6 <pauseThread+0x76>
ff505696:	c7 44 24 14 0d 76 50 	movl   $0xff50760d,0x14(%esp)
ff50569d:	ff 
ff50569e:	c7 44 24 10 ff ff ff 	movl   $0xffffffff,0x10(%esp)
ff5056a5:	ff 
ff5056a6:	c7 44 24 0c 87 00 00 	movl   $0x87,0xc(%esp)
ff5056ad:	00 
ff5056ae:	c7 44 24 08 01 76 50 	movl   $0xff507601,0x8(%esp)
ff5056b5:	ff 
ff5056b6:	c7 44 24 04 29 75 50 	movl   $0xff507529,0x4(%esp)
ff5056bd:	ff 
ff5056be:	c7 04 24 32 75 50 ff 	movl   $0xff507532,(%esp)
ff5056c5:	e8 86 b0 ff ff       	call   ff500750 <kprintf>
ff5056ca:	c7 45 f8 ff ff ff ff 	movl   $0xffffffff,-0x8(%ebp)
ff5056d1:	e9 c0 00 00 00       	jmp    ff505796 <pauseThread+0x136>
ff5056d6:	8b 45 08             	mov    0x8(%ebp),%eax
ff5056d9:	0f b6 40 05          	movzbl 0x5(%eax),%eax
ff5056dd:	83 e0 0f             	and    $0xf,%eax
ff5056e0:	0f b6 c0             	movzbl %al,%eax
ff5056e3:	89 45 fc             	mov    %eax,-0x4(%ebp)
ff5056e6:	83 7d fc 03          	cmpl   $0x3,-0x4(%ebp)
ff5056ea:	74 0e                	je     ff5056fa <pauseThread+0x9a>
ff5056ec:	83 7d fc 04          	cmpl   $0x4,-0x4(%ebp)
ff5056f0:	74 13                	je     ff505705 <pauseThread+0xa5>
ff5056f2:	83 7d fc 01          	cmpl   $0x1,-0x4(%ebp)
ff5056f6:	74 26                	je     ff50571e <pauseThread+0xbe>
ff5056f8:	eb 61                	jmp    ff50575b <pauseThread+0xfb>
ff5056fa:	8b 45 08             	mov    0x8(%ebp),%eax
ff5056fd:	89 04 24             	mov    %eax,(%esp)
ff505700:	e8 db ee ff ff       	call   ff5045e0 <detachRunQueue>
ff505705:	8b 55 08             	mov    0x8(%ebp),%edx
ff505708:	0f b6 42 05          	movzbl 0x5(%edx),%eax
ff50570c:	83 e0 f0             	and    $0xfffffff0,%eax
ff50570f:	83 c8 01             	or     $0x1,%eax
ff505712:	88 42 05             	mov    %al,0x5(%edx)
ff505715:	c7 45 f8 00 00 00 00 	movl   $0x0,-0x8(%ebp)
ff50571c:	eb 78                	jmp    ff505796 <pauseThread+0x136>
ff50571e:	c7 44 24 14 16 76 50 	movl   $0xff507616,0x14(%esp)
ff505725:	ff 
ff505726:	c7 44 24 10 01 00 00 	movl   $0x1,0x10(%esp)
ff50572d:	00 
ff50572e:	c7 44 24 0c 92 00 00 	movl   $0x92,0xc(%esp)
ff505735:	00 
ff505736:	c7 44 24 08 01 76 50 	movl   $0xff507601,0x8(%esp)
ff50573d:	ff 
ff50573e:	c7 44 24 04 29 75 50 	movl   $0xff507529,0x4(%esp)
ff505745:	ff 
ff505746:	c7 04 24 32 75 50 ff 	movl   $0xff507532,(%esp)
ff50574d:	e8 fe af ff ff       	call   ff500750 <kprintf>
ff505752:	c7 45 f8 01 00 00 00 	movl   $0x1,-0x8(%ebp)
ff505759:	eb 3b                	jmp    ff505796 <pauseThread+0x136>
ff50575b:	c7 44 24 14 25 76 50 	movl   $0xff507625,0x14(%esp)
ff505762:	ff 
ff505763:	c7 44 24 10 ff ff ff 	movl   $0xffffffff,0x10(%esp)
ff50576a:	ff 
ff50576b:	c7 44 24 0c 94 00 00 	movl   $0x94,0xc(%esp)
ff505772:	00 
ff505773:	c7 44 24 08 01 76 50 	movl   $0xff507601,0x8(%esp)
ff50577a:	ff 
ff50577b:	c7 44 24 04 29 75 50 	movl   $0xff507529,0x4(%esp)
ff505782:	ff 
ff505783:	c7 04 24 32 75 50 ff 	movl   $0xff507532,(%esp)
ff50578a:	e8 c1 af ff ff       	call   ff500750 <kprintf>
ff50578f:	c7 45 f8 ff ff ff ff 	movl   $0xffffffff,-0x8(%ebp)
ff505796:	8b 45 f8             	mov    -0x8(%ebp),%eax
ff505799:	c9                   	leave  
ff50579a:	c3                   	ret    
ff50579b:	90                   	nop    
ff50579c:	8d 74 26 00          	lea    0x0(%esi,%eiz,1),%esi

ff5057a0 <createThread>:
ff5057a0:	55                   	push   %ebp
ff5057a1:	89 e5                	mov    %esp,%ebp
ff5057a3:	83 ec 38             	sub    $0x38,%esp
ff5057a6:	8b 45 14             	mov    0x14(%ebp),%eax
ff5057a9:	66 89 45 ec          	mov    %ax,-0x14(%ebp)
ff5057ad:	66 c7 45 fe ff ff    	movw   $0xffff,-0x2(%ebp)
ff5057b3:	83 7d 0c ff          	cmpl   $0xffffffff,0xc(%ebp)
ff5057b7:	75 24                	jne    ff5057dd <createThread+0x3d>
ff5057b9:	c7 44 24 0c a4 00 00 	movl   $0xa4,0xc(%esp)
ff5057c0:	00 
ff5057c1:	c7 44 24 08 3d 76 50 	movl   $0xff50763d,0x8(%esp)
ff5057c8:	ff 
ff5057c9:	c7 44 24 04 29 75 50 	movl   $0xff507529,0x4(%esp)
ff5057d0:	ff 
ff5057d1:	c7 04 24 4c 76 50 ff 	movl   $0xff50764c,(%esp)
ff5057d8:	e8 33 ad ff ff       	call   ff500510 <printAssertMsg>
ff5057dd:	83 7d 08 00          	cmpl   $0x0,0x8(%ebp)
ff5057e1:	75 24                	jne    ff505807 <createThread+0x67>
ff5057e3:	c7 44 24 0c a5 00 00 	movl   $0xa5,0xc(%esp)
ff5057ea:	00 
ff5057eb:	c7 44 24 08 3d 76 50 	movl   $0xff50763d,0x8(%esp)
ff5057f2:	ff 
ff5057f3:	c7 44 24 04 29 75 50 	movl   $0xff507529,0x4(%esp)
ff5057fa:	ff 
ff5057fb:	c7 04 24 6c 76 50 ff 	movl   $0xff50766c,(%esp)
ff505802:	e8 09 ad ff ff       	call   ff500510 <printAssertMsg>
ff505807:	66 83 7d ec ff       	cmpw   $0xffffffff,-0x14(%ebp)
ff50580c:	75 24                	jne    ff505832 <createThread+0x92>
ff50580e:	c7 44 24 0c a6 00 00 	movl   $0xa6,0xc(%esp)
ff505815:	00 
ff505816:	c7 44 24 08 3d 76 50 	movl   $0xff50763d,0x8(%esp)
ff50581d:	ff 
ff50581e:	c7 44 24 04 29 75 50 	movl   $0xff507529,0x4(%esp)
ff505825:	ff 
ff505826:	c7 04 24 7f 76 50 ff 	movl   $0xff50767f,(%esp)
ff50582d:	e8 de ac ff ff       	call   ff500510 <printAssertMsg>
ff505832:	83 7d 08 00          	cmpl   $0x0,0x8(%ebp)
ff505836:	75 40                	jne    ff505878 <createThread+0xd8>
ff505838:	c7 44 24 14 95 76 50 	movl   $0xff507695,0x14(%esp)
ff50583f:	ff 
ff505840:	c7 44 24 10 00 00 00 	movl   $0x0,0x10(%esp)
ff505847:	00 
ff505848:	c7 44 24 0c a9 00 00 	movl   $0xa9,0xc(%esp)
ff50584f:	00 
ff505850:	c7 44 24 08 3d 76 50 	movl   $0xff50763d,0x8(%esp)
ff505857:	ff 
ff505858:	c7 44 24 04 29 75 50 	movl   $0xff507529,0x4(%esp)
ff50585f:	ff 
ff505860:	c7 04 24 32 75 50 ff 	movl   $0xff507532,(%esp)
ff505867:	e8 e4 ae ff ff       	call   ff500750 <kprintf>
ff50586c:	c7 45 e8 00 00 00 00 	movl   $0x0,-0x18(%ebp)
ff505873:	e9 67 03 00 00       	jmp    ff505bdf <createThread+0x43f>
ff505878:	66 83 7d ec ff       	cmpw   $0xffffffff,-0x14(%ebp)
ff50587d:	75 40                	jne    ff5058bf <createThread+0x11f>
ff50587f:	c7 44 24 14 a6 76 50 	movl   $0xff5076a6,0x14(%esp)
ff505886:	ff 
ff505887:	c7 44 24 10 00 00 00 	movl   $0x0,0x10(%esp)
ff50588e:	00 
ff50588f:	c7 44 24 0c ab 00 00 	movl   $0xab,0xc(%esp)
ff505896:	00 
ff505897:	c7 44 24 08 3d 76 50 	movl   $0xff50763d,0x8(%esp)
ff50589e:	ff 
ff50589f:	c7 44 24 04 29 75 50 	movl   $0xff507529,0x4(%esp)
ff5058a6:	ff 
ff5058a7:	c7 04 24 32 75 50 ff 	movl   $0xff507532,(%esp)
ff5058ae:	e8 9d ae ff ff       	call   ff500750 <kprintf>
ff5058b3:	c7 45 e8 00 00 00 00 	movl   $0x0,-0x18(%ebp)
ff5058ba:	e9 20 03 00 00       	jmp    ff505bdf <createThread+0x43f>
ff5058bf:	83 7d 0c ff          	cmpl   $0xffffffff,0xc(%ebp)
ff5058c3:	75 40                	jne    ff505905 <createThread+0x165>
ff5058c5:	c7 44 24 14 b5 76 50 	movl   $0xff5076b5,0x14(%esp)
ff5058cc:	ff 
ff5058cd:	c7 44 24 10 00 00 00 	movl   $0x0,0x10(%esp)
ff5058d4:	00 
ff5058d5:	c7 44 24 0c ad 00 00 	movl   $0xad,0xc(%esp)
ff5058dc:	00 
ff5058dd:	c7 44 24 08 3d 76 50 	movl   $0xff50763d,0x8(%esp)
ff5058e4:	ff 
ff5058e5:	c7 44 24 04 29 75 50 	movl   $0xff507529,0x4(%esp)
ff5058ec:	ff 
ff5058ed:	c7 04 24 32 75 50 ff 	movl   $0xff507532,(%esp)
ff5058f4:	e8 57 ae ff ff       	call   ff500750 <kprintf>
ff5058f9:	c7 45 e8 00 00 00 00 	movl   $0x0,-0x18(%ebp)
ff505900:	e9 da 02 00 00       	jmp    ff505bdf <createThread+0x43f>
ff505905:	e8 d6 f8 ff ff       	call   ff5051e0 <getFreeTID>
ff50590a:	66 89 45 fe          	mov    %ax,-0x2(%ebp)
ff50590e:	66 83 7d fe ff       	cmpw   $0xffffffff,-0x2(%ebp)
ff505913:	75 40                	jne    ff505955 <createThread+0x1b5>
ff505915:	c7 44 24 14 c4 76 50 	movl   $0xff5076c4,0x14(%esp)
ff50591c:	ff 
ff50591d:	c7 44 24 10 00 00 00 	movl   $0x0,0x10(%esp)
ff505924:	00 
ff505925:	c7 44 24 0c b4 00 00 	movl   $0xb4,0xc(%esp)
ff50592c:	00 
ff50592d:	c7 44 24 08 3d 76 50 	movl   $0xff50763d,0x8(%esp)
ff505934:	ff 
ff505935:	c7 44 24 04 29 75 50 	movl   $0xff507529,0x4(%esp)
ff50593c:	ff 
ff50593d:	c7 04 24 32 75 50 ff 	movl   $0xff507532,(%esp)
ff505944:	e8 07 ae ff ff       	call   ff500750 <kprintf>
ff505949:	c7 45 e8 00 00 00 00 	movl   $0x0,-0x18(%ebp)
ff505950:	e9 8a 02 00 00       	jmp    ff505bdf <createThread+0x43f>
ff505955:	8b 15 3c c0 50 ff    	mov    0xff50c03c,%edx
ff50595b:	0f bf 45 fe          	movswl -0x2(%ebp),%eax
ff50595f:	6b c0 58             	imul   $0x58,%eax,%eax
ff505962:	8d 04 02             	lea    (%edx,%eax,1),%eax
ff505965:	89 45 f8             	mov    %eax,-0x8(%ebp)
ff505968:	0f bf 55 fe          	movswl -0x2(%ebp),%edx
ff50596c:	8b 45 f8             	mov    -0x8(%ebp),%eax
ff50596f:	89 44 24 08          	mov    %eax,0x8(%esp)
ff505973:	89 54 24 04          	mov    %edx,0x4(%esp)
ff505977:	c7 04 24 cd 76 50 ff 	movl   $0xff5076cd,(%esp)
ff50597e:	e8 cd ad ff ff       	call   ff500750 <kprintf>
ff505983:	8b 55 f8             	mov    -0x8(%ebp),%edx
ff505986:	0f b6 42 05          	movzbl 0x5(%edx),%eax
ff50598a:	83 e0 8f             	and    $0xffffff8f,%eax
ff50598d:	83 c8 40             	or     $0x40,%eax
ff505990:	88 42 05             	mov    %al,0x5(%edx)
ff505993:	8b 45 f8             	mov    -0x8(%ebp),%eax
ff505996:	c6 40 04 00          	movb   $0x0,0x4(%eax)
ff50599a:	8b 55 f8             	mov    -0x8(%ebp),%edx
ff50599d:	0f b6 42 05          	movzbl 0x5(%edx),%eax
ff5059a1:	83 e0 f0             	and    $0xfffffff0,%eax
ff5059a4:	83 c8 01             	or     $0x1,%eax
ff5059a7:	88 42 05             	mov    %al,0x5(%edx)
ff5059aa:	8b 55 f8             	mov    -0x8(%ebp),%edx
ff5059ad:	8b 45 0c             	mov    0xc(%ebp),%eax
ff5059b0:	89 02                	mov    %eax,(%edx)
ff5059b2:	8b 55 f8             	mov    -0x8(%ebp),%edx
ff5059b5:	0f b7 45 ec          	movzwl -0x14(%ebp),%eax
ff5059b9:	66 89 42 0a          	mov    %ax,0xa(%edx)
ff5059bd:	8b 45 f8             	mov    -0x8(%ebp),%eax
ff5059c0:	66 c7 40 0c ff ff    	movw   $0xffff,0xc(%eax)
ff5059c6:	8b 45 f8             	mov    -0x8(%ebp),%eax
ff5059c9:	66 c7 40 06 ff ff    	movw   $0xffff,0x6(%eax)
ff5059cf:	8b 45 f8             	mov    -0x8(%ebp),%eax
ff5059d2:	0f b7 50 06          	movzwl 0x6(%eax),%edx
ff5059d6:	8b 45 f8             	mov    -0x8(%ebp),%eax
ff5059d9:	66 89 50 08          	mov    %dx,0x8(%eax)
ff5059dd:	8b 45 f8             	mov    -0x8(%ebp),%eax
ff5059e0:	c7 40 0e 00 00 00 00 	movl   $0x0,0xe(%eax)
ff5059e7:	8b 45 f8             	mov    -0x8(%ebp),%eax
ff5059ea:	8b 08                	mov    (%eax),%ecx
ff5059ec:	8b 15 3c c0 50 ff    	mov    0xff50c03c,%edx
ff5059f2:	0f bf 45 fe          	movswl -0x2(%ebp),%eax
ff5059f6:	6b c0 58             	imul   $0x58,%eax,%eax
ff5059f9:	8d 04 02             	lea    (%edx,%eax,1),%eax
ff5059fc:	8b 00                	mov    (%eax),%eax
ff5059fe:	39 c1                	cmp    %eax,%ecx
ff505a00:	74 24                	je     ff505a26 <createThread+0x286>
ff505a02:	c7 44 24 0c c7 00 00 	movl   $0xc7,0xc(%esp)
ff505a09:	00 
ff505a0a:	c7 44 24 08 3d 76 50 	movl   $0xff50763d,0x8(%esp)
ff505a11:	ff 
ff505a12:	c7 44 24 04 29 75 50 	movl   $0xff507529,0x4(%esp)
ff505a19:	ff 
ff505a1a:	c7 04 24 e4 76 50 ff 	movl   $0xff5076e4,(%esp)
ff505a21:	e8 ea aa ff ff       	call   ff500510 <printAssertMsg>
ff505a26:	8b 45 0c             	mov    0xc(%ebp),%eax
ff505a29:	8b 55 0c             	mov    0xc(%ebp),%edx
ff505a2c:	81 e2 00 f0 ff ff    	and    $0xfffff000,%edx
ff505a32:	39 d0                	cmp    %edx,%eax
ff505a34:	74 24                	je     ff505a5a <createThread+0x2ba>
ff505a36:	c7 44 24 0c c8 00 00 	movl   $0xc8,0xc(%esp)
ff505a3d:	00 
ff505a3e:	c7 44 24 08 3d 76 50 	movl   $0xff50763d,0x8(%esp)
ff505a45:	ff 
ff505a46:	c7 44 24 04 29 75 50 	movl   $0xff507529,0x4(%esp)
ff505a4d:	ff 
ff505a4e:	c7 04 24 14 77 50 ff 	movl   $0xff507714,(%esp)
ff505a55:	e8 b6 aa ff ff       	call   ff500510 <printAssertMsg>
ff505a5a:	8d 55 f4             	lea    -0xc(%ebp),%edx
ff505a5d:	8b 45 0c             	mov    0xc(%ebp),%eax
ff505a60:	83 c8 03             	or     $0x3,%eax
ff505a63:	89 02                	mov    %eax,(%edx)
ff505a65:	8b 45 0c             	mov    0xc(%ebp),%eax
ff505a68:	89 44 24 08          	mov    %eax,0x8(%esp)
ff505a6c:	8d 45 f4             	lea    -0xc(%ebp),%eax
ff505a6f:	89 44 24 04          	mov    %eax,0x4(%esp)
ff505a73:	c7 04 24 00 00 c0 ff 	movl   $0xffc00000,(%esp)
ff505a7a:	e8 c1 c7 ff ff       	call   ff502240 <writePDE>
ff505a7f:	e8 d8 a6 ff ff       	call   ff50015c <getCR3>
ff505a84:	89 44 24 08          	mov    %eax,0x8(%esp)
ff505a88:	8d 45 f4             	lea    -0xc(%ebp),%eax
ff505a8b:	89 44 24 04          	mov    %eax,0x4(%esp)
ff505a8f:	c7 04 24 00 00 50 ff 	movl   $0xff500000,(%esp)
ff505a96:	e8 75 c9 ff ff       	call   ff502410 <readPDE>
ff505a9b:	8b 45 0c             	mov    0xc(%ebp),%eax
ff505a9e:	89 44 24 08          	mov    %eax,0x8(%esp)
ff505aa2:	8d 45 f4             	lea    -0xc(%ebp),%eax
ff505aa5:	89 44 24 04          	mov    %eax,0x4(%esp)
ff505aa9:	c7 04 24 00 00 50 ff 	movl   $0xff500000,(%esp)
ff505ab0:	e8 8b c7 ff ff       	call   ff502240 <writePDE>
ff505ab5:	e8 a2 a6 ff ff       	call   ff50015c <getCR3>
ff505aba:	89 44 24 08          	mov    %eax,0x8(%esp)
ff505abe:	8d 45 f4             	lea    -0xc(%ebp),%eax
ff505ac1:	89 44 24 04          	mov    %eax,0x4(%esp)
ff505ac5:	c7 04 24 00 00 40 ff 	movl   $0xff400000,(%esp)
ff505acc:	e8 3f c9 ff ff       	call   ff502410 <readPDE>
ff505ad1:	8b 45 0c             	mov    0xc(%ebp),%eax
ff505ad4:	89 44 24 08          	mov    %eax,0x8(%esp)
ff505ad8:	8d 45 f4             	lea    -0xc(%ebp),%eax
ff505adb:	89 44 24 04          	mov    %eax,0x4(%esp)
ff505adf:	c7 04 24 00 00 40 ff 	movl   $0xff400000,(%esp)
ff505ae6:	e8 55 c7 ff ff       	call   ff502240 <writePDE>
ff505aeb:	8b 55 08             	mov    0x8(%ebp),%edx
ff505aee:	b8 00 00 50 ff       	mov    $0xff500000,%eax
ff505af3:	21 c2                	and    %eax,%edx
ff505af5:	b8 00 00 50 ff       	mov    $0xff500000,%eax
ff505afa:	39 c2                	cmp    %eax,%edx
ff505afc:	74 36                	je     ff505b34 <createThread+0x394>
ff505afe:	8b 45 f8             	mov    -0x8(%ebp),%eax
ff505b01:	c7 40 48 1b 00 00 00 	movl   $0x1b,0x48(%eax)
ff505b08:	8b 45 f8             	mov    -0x8(%ebp),%eax
ff505b0b:	c7 40 54 23 00 00 00 	movl   $0x23,0x54(%eax)
ff505b12:	8b 45 f8             	mov    -0x8(%ebp),%eax
ff505b15:	66 c7 40 38 23 00    	movw   $0x23,0x38(%eax)
ff505b1b:	8b 45 f8             	mov    -0x8(%ebp),%eax
ff505b1e:	0f b7 50 38          	movzwl 0x38(%eax),%edx
ff505b22:	8b 45 f8             	mov    -0x8(%ebp),%eax
ff505b25:	66 89 50 3a          	mov    %dx,0x3a(%eax)
ff505b29:	8b 55 10             	mov    0x10(%ebp),%edx
ff505b2c:	8b 45 f8             	mov    -0x8(%ebp),%eax
ff505b2f:	89 50 20             	mov    %edx,0x20(%eax)
ff505b32:	eb 64                	jmp    ff505b98 <createThread+0x3f8>
ff505b34:	66 83 7d fe 00       	cmpw   $0x0,-0x2(%ebp)
ff505b39:	75 39                	jne    ff505b74 <createThread+0x3d4>
ff505b3b:	8b 45 f8             	mov    -0x8(%ebp),%eax
ff505b3e:	c7 40 48 08 00 00 00 	movl   $0x8,0x48(%eax)
ff505b45:	8b 45 f8             	mov    -0x8(%ebp),%eax
ff505b48:	66 c7 40 38 10 00    	movw   $0x10,0x38(%eax)
ff505b4e:	8b 45 f8             	mov    -0x8(%ebp),%eax
ff505b51:	0f b7 50 38          	movzwl 0x38(%eax),%edx
ff505b55:	8b 45 f8             	mov    -0x8(%ebp),%eax
ff505b58:	66 89 50 3a          	mov    %dx,0x3a(%eax)
ff505b5c:	8b 45 f8             	mov    -0x8(%ebp),%eax
ff505b5f:	c7 40 20 00 60 40 ff 	movl   $0xff406000,0x20(%eax)
ff505b66:	8b 45 f8             	mov    -0x8(%ebp),%eax
ff505b69:	8b 50 20             	mov    0x20(%eax),%edx
ff505b6c:	8b 45 f8             	mov    -0x8(%ebp),%eax
ff505b6f:	89 50 24             	mov    %edx,0x24(%eax)
ff505b72:	eb 24                	jmp    ff505b98 <createThread+0x3f8>
ff505b74:	c7 44 24 0c e3 00 00 	movl   $0xe3,0xc(%esp)
ff505b7b:	00 
ff505b7c:	c7 44 24 08 3d 76 50 	movl   $0xff50763d,0x8(%esp)
ff505b83:	ff 
ff505b84:	c7 44 24 04 29 75 50 	movl   $0xff507529,0x4(%esp)
ff505b8b:	ff 
ff505b8c:	c7 04 24 d5 75 50 ff 	movl   $0xff5075d5,(%esp)
ff505b93:	e8 78 a9 ff ff       	call   ff500510 <printAssertMsg>
ff505b98:	8b 55 10             	mov    0x10(%ebp),%edx
ff505b9b:	8b 45 f8             	mov    -0x8(%ebp),%eax
ff505b9e:	89 50 50             	mov    %edx,0x50(%eax)
ff505ba1:	8b 45 f8             	mov    -0x8(%ebp),%eax
ff505ba4:	c7 40 4c 01 32 00 00 	movl   $0x3201,0x4c(%eax)
ff505bab:	8b 55 08             	mov    0x8(%ebp),%edx
ff505bae:	8b 45 f8             	mov    -0x8(%ebp),%eax
ff505bb1:	89 50 44             	mov    %edx,0x44(%eax)
ff505bb4:	66 83 7d fe 00       	cmpw   $0x0,-0x2(%ebp)
ff505bb9:	75 1e                	jne    ff505bd9 <createThread+0x439>
ff505bbb:	8b 45 f8             	mov    -0x8(%ebp),%eax
ff505bbe:	83 c0 18             	add    $0x18,%eax
ff505bc1:	c7 44 24 08 40 00 00 	movl   $0x40,0x8(%esp)
ff505bc8:	00 
ff505bc9:	89 44 24 04          	mov    %eax,0x4(%esp)
ff505bcd:	c7 04 24 c0 5f 40 ff 	movl   $0xff405fc0,(%esp)
ff505bd4:	e8 47 ba ff ff       	call   ff501620 <memcpy>
ff505bd9:	8b 45 f8             	mov    -0x8(%ebp),%eax
ff505bdc:	89 45 e8             	mov    %eax,-0x18(%ebp)
ff505bdf:	8b 45 e8             	mov    -0x18(%ebp),%eax
ff505be2:	c9                   	leave  
ff505be3:	c3                   	ret    
ff505be4:	8d b6 00 00 00 00    	lea    0x0(%esi),%esi
ff505bea:	8d bf 00 00 00 00    	lea    0x0(%edi),%edi

ff505bf0 <releaseThread>:
ff505bf0:	55                   	push   %ebp
ff505bf1:	89 e5                	mov    %esp,%ebp
ff505bf3:	83 ec 18             	sub    $0x18,%esp
ff505bf6:	8b 45 0c             	mov    0xc(%ebp),%eax
ff505bf9:	66 89 45 fc          	mov    %ax,-0x4(%ebp)
ff505bfd:	83 7d 08 00          	cmpl   $0x0,0x8(%ebp)
ff505c01:	75 24                	jne    ff505c27 <releaseThread+0x37>
ff505c03:	c7 44 24 0c f6 00 00 	movl   $0xf6,0xc(%esp)
ff505c0a:	00 
ff505c0b:	c7 44 24 08 40 77 50 	movl   $0xff507740,0x8(%esp)
ff505c12:	ff 
ff505c13:	c7 44 24 04 29 75 50 	movl   $0xff507529,0x4(%esp)
ff505c1a:	ff 
ff505c1b:	c7 04 24 4e 77 50 ff 	movl   $0xff50774e,(%esp)
ff505c22:	e8 e9 a8 ff ff       	call   ff500510 <printAssertMsg>
ff505c27:	66 83 7d fc ff       	cmpw   $0xffffffff,-0x4(%ebp)
ff505c2c:	75 24                	jne    ff505c52 <releaseThread+0x62>
ff505c2e:	c7 44 24 0c f7 00 00 	movl   $0xf7,0xc(%esp)
ff505c35:	00 
ff505c36:	c7 44 24 08 40 77 50 	movl   $0xff507740,0x8(%esp)
ff505c3d:	ff 
ff505c3e:	c7 44 24 04 29 75 50 	movl   $0xff507529,0x4(%esp)
ff505c45:	ff 
ff505c46:	c7 04 24 61 77 50 ff 	movl   $0xff507761,(%esp)
ff505c4d:	e8 be a8 ff ff       	call   ff500510 <printAssertMsg>
ff505c52:	83 7d 08 00          	cmpl   $0x0,0x8(%ebp)
ff505c56:	74 07                	je     ff505c5f <releaseThread+0x6f>
ff505c58:	66 83 7d fc ff       	cmpw   $0xffffffff,-0x4(%ebp)
ff505c5d:	75 09                	jne    ff505c68 <releaseThread+0x78>
ff505c5f:	c7 45 f8 ff ff ff ff 	movl   $0xffffffff,-0x8(%ebp)
ff505c66:	eb 20                	jmp    ff505c88 <releaseThread+0x98>
ff505c68:	8b 15 3c c0 50 ff    	mov    0xff50c03c,%edx
ff505c6e:	0f bf 45 fc          	movswl -0x4(%ebp),%eax
ff505c72:	6b c0 58             	imul   $0x58,%eax,%eax
ff505c75:	01 c2                	add    %eax,%edx
ff505c77:	0f b6 42 05          	movzbl 0x5(%edx),%eax
ff505c7b:	83 e0 f0             	and    $0xfffffff0,%eax
ff505c7e:	88 42 05             	mov    %al,0x5(%edx)
ff505c81:	c7 45 f8 00 00 00 00 	movl   $0x0,-0x8(%ebp)
ff505c88:	8b 45 f8             	mov    -0x8(%ebp),%eax
ff505c8b:	c9                   	leave  
ff505c8c:	c3                   	ret    
ff505c8d:	00 00                	add    %al,(%eax)
	...

ff505c90 <sysUnmap>:
ff505c90:	55                   	push   %ebp
ff505c91:	89 e5                	mov    %esp,%ebp
ff505c93:	83 ec 18             	sub    $0x18,%esp
ff505c96:	83 7d 08 00          	cmpl   $0x0,0x8(%ebp)
ff505c9a:	75 24                	jne    ff505cc0 <sysUnmap+0x30>
ff505c9c:	c7 44 24 0c 12 00 00 	movl   $0x12,0xc(%esp)
ff505ca3:	00 
ff505ca4:	c7 44 24 08 71 77 50 	movl   $0xff507771,0x8(%esp)
ff505cab:	ff 
ff505cac:	c7 44 24 04 7a 77 50 	movl   $0xff50777a,0x4(%esp)
ff505cb3:	ff 
ff505cb4:	c7 04 24 80 77 50 ff 	movl   $0xff507780,(%esp)
ff505cbb:	e8 50 a8 ff ff       	call   ff500510 <printAssertMsg>
ff505cc0:	8b 45 08             	mov    0x8(%ebp),%eax
ff505cc3:	8b 00                	mov    (%eax),%eax
ff505cc5:	89 44 24 04          	mov    %eax,0x4(%esp)
ff505cc9:	8b 45 0c             	mov    0xc(%ebp),%eax
ff505ccc:	89 04 24             	mov    %eax,(%esp)
ff505ccf:	e8 5c d4 ff ff       	call   ff503130 <unmapPage>
ff505cd4:	c9                   	leave  
ff505cd5:	c3                   	ret    
ff505cd6:	8d 76 00             	lea    0x0(%esi),%esi
ff505cd9:	8d bc 27 00 00 00 00 	lea    0x0(%edi,%eiz,1),%edi

ff505ce0 <sysUnmapPageTable>:
ff505ce0:	55                   	push   %ebp
ff505ce1:	89 e5                	mov    %esp,%ebp
ff505ce3:	83 ec 18             	sub    $0x18,%esp
ff505ce6:	83 7d 08 00          	cmpl   $0x0,0x8(%ebp)
ff505cea:	75 24                	jne    ff505d10 <sysUnmapPageTable+0x30>
ff505cec:	c7 44 24 0c 19 00 00 	movl   $0x19,0xc(%esp)
ff505cf3:	00 
ff505cf4:	c7 44 24 08 8c 77 50 	movl   $0xff50778c,0x8(%esp)
ff505cfb:	ff 
ff505cfc:	c7 44 24 04 7a 77 50 	movl   $0xff50777a,0x4(%esp)
ff505d03:	ff 
ff505d04:	c7 04 24 80 77 50 ff 	movl   $0xff507780,(%esp)
ff505d0b:	e8 00 a8 ff ff       	call   ff500510 <printAssertMsg>
ff505d10:	8b 45 08             	mov    0x8(%ebp),%eax
ff505d13:	8b 00                	mov    (%eax),%eax
ff505d15:	89 44 24 04          	mov    %eax,0x4(%esp)
ff505d19:	8b 45 0c             	mov    0xc(%ebp),%eax
ff505d1c:	89 04 24             	mov    %eax,(%esp)
ff505d1f:	e8 5c d6 ff ff       	call   ff503380 <unmapPageTable>
ff505d24:	c9                   	leave  
ff505d25:	c3                   	ret    
ff505d26:	8d 76 00             	lea    0x0(%esi),%esi
ff505d29:	8d bc 27 00 00 00 00 	lea    0x0(%edi,%eiz,1),%edi

ff505d30 <sysMap>:
ff505d30:	55                   	push   %ebp
ff505d31:	89 e5                	mov    %esp,%ebp
ff505d33:	83 ec 28             	sub    $0x28,%esp
ff505d36:	83 7d 08 00          	cmpl   $0x0,0x8(%ebp)
ff505d3a:	75 24                	jne    ff505d60 <sysMap+0x30>
ff505d3c:	c7 44 24 0c 26 00 00 	movl   $0x26,0xc(%esp)
ff505d43:	00 
ff505d44:	c7 44 24 08 9e 77 50 	movl   $0xff50779e,0x8(%esp)
ff505d4b:	ff 
ff505d4c:	c7 44 24 04 7a 77 50 	movl   $0xff50777a,0x4(%esp)
ff505d53:	ff 
ff505d54:	c7 04 24 80 77 50 ff 	movl   $0xff507780,(%esp)
ff505d5b:	e8 b0 a7 ff ff       	call   ff500510 <printAssertMsg>
ff505d60:	83 7d 10 ff          	cmpl   $0xffffffff,0x10(%ebp)
ff505d64:	75 24                	jne    ff505d8a <sysMap+0x5a>
ff505d66:	c7 44 24 0c 27 00 00 	movl   $0x27,0xc(%esp)
ff505d6d:	00 
ff505d6e:	c7 44 24 08 9e 77 50 	movl   $0xff50779e,0x8(%esp)
ff505d75:	ff 
ff505d76:	c7 44 24 04 7a 77 50 	movl   $0xff50777a,0x4(%esp)
ff505d7d:	ff 
ff505d7e:	c7 04 24 a5 77 50 ff 	movl   $0xff5077a5,(%esp)
ff505d85:	e8 86 a7 ff ff       	call   ff500510 <printAssertMsg>
ff505d8a:	83 7d 10 ff          	cmpl   $0xffffffff,0x10(%ebp)
ff505d8e:	74 06                	je     ff505d96 <sysMap+0x66>
ff505d90:	83 7d 08 00          	cmpl   $0x0,0x8(%ebp)
ff505d94:	75 6b                	jne    ff505e01 <sysMap+0xd1>
ff505d96:	c7 45 ec ff ff ff ff 	movl   $0xffffffff,-0x14(%ebp)
ff505d9d:	eb 6f                	jmp    ff505e0e <sysMap+0xde>
ff505d9f:	8b 45 08             	mov    0x8(%ebp),%eax
ff505da2:	8b 00                	mov    (%eax),%eax
ff505da4:	89 44 24 0c          	mov    %eax,0xc(%esp)
ff505da8:	c7 44 24 08 06 00 00 	movl   $0x6,0x8(%esp)
ff505daf:	00 
ff505db0:	8b 45 10             	mov    0x10(%ebp),%eax
ff505db3:	89 44 24 04          	mov    %eax,0x4(%esp)
ff505db7:	8b 45 0c             	mov    0xc(%ebp),%eax
ff505dba:	89 04 24             	mov    %eax,(%esp)
ff505dbd:	e8 2e d0 ff ff       	call   ff502df0 <mapPage>
ff505dc2:	89 45 fc             	mov    %eax,-0x4(%ebp)
ff505dc5:	83 7d fc 00          	cmpl   $0x0,-0x4(%ebp)
ff505dc9:	74 24                	je     ff505def <sysMap+0xbf>
ff505dcb:	c7 44 24 0c 3c 00 00 	movl   $0x3c,0xc(%esp)
ff505dd2:	00 
ff505dd3:	c7 44 24 08 9e 77 50 	movl   $0xff50779e,0x8(%esp)
ff505dda:	ff 
ff505ddb:	c7 44 24 04 7a 77 50 	movl   $0xff50777a,0x4(%esp)
ff505de2:	ff 
ff505de3:	c7 04 24 c0 77 50 ff 	movl   $0xff5077c0,(%esp)
ff505dea:	e8 21 a7 ff ff       	call   ff500510 <printAssertMsg>
ff505def:	83 6d 14 01          	subl   $0x1,0x14(%ebp)
ff505df3:	81 45 0c 00 10 00 00 	addl   $0x1000,0xc(%ebp)
ff505dfa:	81 45 10 00 10 00 00 	addl   $0x1000,0x10(%ebp)
ff505e01:	83 7d 14 00          	cmpl   $0x0,0x14(%ebp)
ff505e05:	75 98                	jne    ff505d9f <sysMap+0x6f>
ff505e07:	c7 45 ec 00 00 00 00 	movl   $0x0,-0x14(%ebp)
ff505e0e:	8b 45 ec             	mov    -0x14(%ebp),%eax
ff505e11:	c9                   	leave  
ff505e12:	c3                   	ret    
ff505e13:	8d b6 00 00 00 00    	lea    0x0(%esi),%esi
ff505e19:	8d bc 27 00 00 00 00 	lea    0x0(%edi,%eiz,1),%edi

ff505e20 <sysMapPageTable>:
ff505e20:	55                   	push   %ebp
ff505e21:	89 e5                	mov    %esp,%ebp
ff505e23:	83 ec 28             	sub    $0x28,%esp
ff505e26:	83 7d 08 00          	cmpl   $0x0,0x8(%ebp)
ff505e2a:	75 24                	jne    ff505e50 <sysMapPageTable+0x30>
ff505e2c:	c7 44 24 0c 47 00 00 	movl   $0x47,0xc(%esp)
ff505e33:	00 
ff505e34:	c7 44 24 08 cc 77 50 	movl   $0xff5077cc,0x8(%esp)
ff505e3b:	ff 
ff505e3c:	c7 44 24 04 7a 77 50 	movl   $0xff50777a,0x4(%esp)
ff505e43:	ff 
ff505e44:	c7 04 24 80 77 50 ff 	movl   $0xff507780,(%esp)
ff505e4b:	e8 c0 a6 ff ff       	call   ff500510 <printAssertMsg>
ff505e50:	83 7d 10 ff          	cmpl   $0xffffffff,0x10(%ebp)
ff505e54:	75 24                	jne    ff505e7a <sysMapPageTable+0x5a>
ff505e56:	c7 44 24 0c 48 00 00 	movl   $0x48,0xc(%esp)
ff505e5d:	00 
ff505e5e:	c7 44 24 08 cc 77 50 	movl   $0xff5077cc,0x8(%esp)
ff505e65:	ff 
ff505e66:	c7 44 24 04 7a 77 50 	movl   $0xff50777a,0x4(%esp)
ff505e6d:	ff 
ff505e6e:	c7 04 24 a5 77 50 ff 	movl   $0xff5077a5,(%esp)
ff505e75:	e8 96 a6 ff ff       	call   ff500510 <printAssertMsg>
ff505e7a:	83 7d 10 ff          	cmpl   $0xffffffff,0x10(%ebp)
ff505e7e:	74 06                	je     ff505e86 <sysMapPageTable+0x66>
ff505e80:	83 7d 08 00          	cmpl   $0x0,0x8(%ebp)
ff505e84:	75 09                	jne    ff505e8f <sysMapPageTable+0x6f>
ff505e86:	c7 45 ec ff ff ff ff 	movl   $0xffffffff,-0x14(%ebp)
ff505e8d:	eb 56                	jmp    ff505ee5 <sysMapPageTable+0xc5>
ff505e8f:	8b 45 08             	mov    0x8(%ebp),%eax
ff505e92:	8b 00                	mov    (%eax),%eax
ff505e94:	89 44 24 0c          	mov    %eax,0xc(%esp)
ff505e98:	c7 44 24 08 06 00 00 	movl   $0x6,0x8(%esp)
ff505e9f:	00 
ff505ea0:	8b 45 10             	mov    0x10(%ebp),%eax
ff505ea3:	89 44 24 04          	mov    %eax,0x4(%esp)
ff505ea7:	8b 45 0c             	mov    0xc(%ebp),%eax
ff505eaa:	89 04 24             	mov    %eax,(%esp)
ff505ead:	e8 2e cc ff ff       	call   ff502ae0 <mapPageTable>
ff505eb2:	89 45 fc             	mov    %eax,-0x4(%ebp)
ff505eb5:	83 7d fc 00          	cmpl   $0x0,-0x4(%ebp)
ff505eb9:	74 24                	je     ff505edf <sysMapPageTable+0xbf>
ff505ebb:	c7 44 24 0c 5b 00 00 	movl   $0x5b,0xc(%esp)
ff505ec2:	00 
ff505ec3:	c7 44 24 08 cc 77 50 	movl   $0xff5077cc,0x8(%esp)
ff505eca:	ff 
ff505ecb:	c7 44 24 04 7a 77 50 	movl   $0xff50777a,0x4(%esp)
ff505ed2:	ff 
ff505ed3:	c7 04 24 c0 77 50 ff 	movl   $0xff5077c0,(%esp)
ff505eda:	e8 31 a6 ff ff       	call   ff500510 <printAssertMsg>
ff505edf:	8b 45 fc             	mov    -0x4(%ebp),%eax
ff505ee2:	89 45 ec             	mov    %eax,-0x14(%ebp)
ff505ee5:	8b 45 ec             	mov    -0x14(%ebp),%eax
ff505ee8:	c9                   	leave  
ff505ee9:	c3                   	ret    
ff505eea:	8d b6 00 00 00 00    	lea    0x0(%esi),%esi

ff505ef0 <sysGrant>:
ff505ef0:	55                   	push   %ebp
ff505ef1:	89 e5                	mov    %esp,%ebp
ff505ef3:	83 ec 28             	sub    $0x28,%esp
ff505ef6:	83 7d 08 00          	cmpl   $0x0,0x8(%ebp)
ff505efa:	75 24                	jne    ff505f20 <sysGrant+0x30>
ff505efc:	c7 44 24 0c 69 00 00 	movl   $0x69,0xc(%esp)
ff505f03:	00 
ff505f04:	c7 44 24 08 dc 77 50 	movl   $0xff5077dc,0x8(%esp)
ff505f0b:	ff 
ff505f0c:	c7 44 24 04 7a 77 50 	movl   $0xff50777a,0x4(%esp)
ff505f13:	ff 
ff505f14:	c7 04 24 80 77 50 ff 	movl   $0xff507780,(%esp)
ff505f1b:	e8 f0 a5 ff ff       	call   ff500510 <printAssertMsg>
ff505f20:	83 7d 14 ff          	cmpl   $0xffffffff,0x14(%ebp)
ff505f24:	75 24                	jne    ff505f4a <sysGrant+0x5a>
ff505f26:	c7 44 24 0c 6a 00 00 	movl   $0x6a,0xc(%esp)
ff505f2d:	00 
ff505f2e:	c7 44 24 08 dc 77 50 	movl   $0xff5077dc,0x8(%esp)
ff505f35:	ff 
ff505f36:	c7 44 24 04 7a 77 50 	movl   $0xff50777a,0x4(%esp)
ff505f3d:	ff 
ff505f3e:	c7 04 24 e5 77 50 ff 	movl   $0xff5077e5,(%esp)
ff505f45:	e8 c6 a5 ff ff       	call   ff500510 <printAssertMsg>
ff505f4a:	83 7d 08 00          	cmpl   $0x0,0x8(%ebp)
ff505f4e:	74 0a                	je     ff505f5a <sysGrant+0x6a>
ff505f50:	83 7d 14 ff          	cmpl   $0xffffffff,0x14(%ebp)
ff505f54:	0f 85 83 00 00 00    	jne    ff505fdd <sysGrant+0xed>
ff505f5a:	c7 45 ec ff ff ff ff 	movl   $0xffffffff,-0x14(%ebp)
ff505f61:	e9 84 00 00 00       	jmp    ff505fea <sysGrant+0xfa>
ff505f66:	8b 45 08             	mov    0x8(%ebp),%eax
ff505f69:	8b 00                	mov    (%eax),%eax
ff505f6b:	89 44 24 04          	mov    %eax,0x4(%esp)
ff505f6f:	8b 45 0c             	mov    0xc(%ebp),%eax
ff505f72:	89 04 24             	mov    %eax,(%esp)
ff505f75:	e8 b6 d1 ff ff       	call   ff503130 <unmapPage>
ff505f7a:	89 45 fc             	mov    %eax,-0x4(%ebp)
ff505f7d:	8b 45 14             	mov    0x14(%ebp),%eax
ff505f80:	89 44 24 0c          	mov    %eax,0xc(%esp)
ff505f84:	c7 44 24 08 06 00 00 	movl   $0x6,0x8(%esp)
ff505f8b:	00 
ff505f8c:	8b 45 fc             	mov    -0x4(%ebp),%eax
ff505f8f:	89 44 24 04          	mov    %eax,0x4(%esp)
ff505f93:	8b 45 10             	mov    0x10(%ebp),%eax
ff505f96:	89 04 24             	mov    %eax,(%esp)
ff505f99:	e8 52 ce ff ff       	call   ff502df0 <mapPage>
ff505f9e:	89 45 f8             	mov    %eax,-0x8(%ebp)
ff505fa1:	83 7d f8 00          	cmpl   $0x0,-0x8(%ebp)
ff505fa5:	74 24                	je     ff505fcb <sysGrant+0xdb>
ff505fa7:	c7 44 24 0c 7a 00 00 	movl   $0x7a,0xc(%esp)
ff505fae:	00 
ff505faf:	c7 44 24 08 dc 77 50 	movl   $0xff5077dc,0x8(%esp)
ff505fb6:	ff 
ff505fb7:	c7 44 24 04 7a 77 50 	movl   $0xff50777a,0x4(%esp)
ff505fbe:	ff 
ff505fbf:	c7 04 24 c0 77 50 ff 	movl   $0xff5077c0,(%esp)
ff505fc6:	e8 45 a5 ff ff       	call   ff500510 <printAssertMsg>
ff505fcb:	83 6d 18 01          	subl   $0x1,0x18(%ebp)
ff505fcf:	81 45 0c 00 10 00 00 	addl   $0x1000,0xc(%ebp)
ff505fd6:	81 45 10 00 10 00 00 	addl   $0x1000,0x10(%ebp)
ff505fdd:	83 7d 18 00          	cmpl   $0x0,0x18(%ebp)
ff505fe1:	75 83                	jne    ff505f66 <sysGrant+0x76>
ff505fe3:	c7 45 ec 00 00 00 00 	movl   $0x0,-0x14(%ebp)
ff505fea:	8b 45 ec             	mov    -0x14(%ebp),%eax
ff505fed:	c9                   	leave  
ff505fee:	c3                   	ret    
ff505fef:	90                   	nop    

ff505ff0 <sysGrantPageTable>:
ff505ff0:	55                   	push   %ebp
ff505ff1:	89 e5                	mov    %esp,%ebp
ff505ff3:	83 ec 28             	sub    $0x28,%esp
ff505ff6:	83 7d 08 00          	cmpl   $0x0,0x8(%ebp)
ff505ffa:	75 24                	jne    ff506020 <sysGrantPageTable+0x30>
ff505ffc:	c7 44 24 0c 89 00 00 	movl   $0x89,0xc(%esp)
ff506003:	00 
ff506004:	c7 44 24 08 fd 77 50 	movl   $0xff5077fd,0x8(%esp)
ff50600b:	ff 
ff50600c:	c7 44 24 04 7a 77 50 	movl   $0xff50777a,0x4(%esp)
ff506013:	ff 
ff506014:	c7 04 24 80 77 50 ff 	movl   $0xff507780,(%esp)
ff50601b:	e8 f0 a4 ff ff       	call   ff500510 <printAssertMsg>
ff506020:	83 7d 14 ff          	cmpl   $0xffffffff,0x14(%ebp)
ff506024:	75 24                	jne    ff50604a <sysGrantPageTable+0x5a>
ff506026:	c7 44 24 0c 8a 00 00 	movl   $0x8a,0xc(%esp)
ff50602d:	00 
ff50602e:	c7 44 24 08 fd 77 50 	movl   $0xff5077fd,0x8(%esp)
ff506035:	ff 
ff506036:	c7 44 24 04 7a 77 50 	movl   $0xff50777a,0x4(%esp)
ff50603d:	ff 
ff50603e:	c7 04 24 e5 77 50 ff 	movl   $0xff5077e5,(%esp)
ff506045:	e8 c6 a4 ff ff       	call   ff500510 <printAssertMsg>
ff50604a:	83 7d 08 00          	cmpl   $0x0,0x8(%ebp)
ff50604e:	74 0a                	je     ff50605a <sysGrantPageTable+0x6a>
ff506050:	83 7d 14 ff          	cmpl   $0xffffffff,0x14(%ebp)
ff506054:	0f 85 83 00 00 00    	jne    ff5060dd <sysGrantPageTable+0xed>
ff50605a:	c7 45 ec ff ff ff ff 	movl   $0xffffffff,-0x14(%ebp)
ff506061:	e9 84 00 00 00       	jmp    ff5060ea <sysGrantPageTable+0xfa>
ff506066:	8b 45 08             	mov    0x8(%ebp),%eax
ff506069:	8b 00                	mov    (%eax),%eax
ff50606b:	89 44 24 04          	mov    %eax,0x4(%esp)
ff50606f:	8b 45 0c             	mov    0xc(%ebp),%eax
ff506072:	89 04 24             	mov    %eax,(%esp)
ff506075:	e8 06 d3 ff ff       	call   ff503380 <unmapPageTable>
ff50607a:	89 45 fc             	mov    %eax,-0x4(%ebp)
ff50607d:	8b 45 14             	mov    0x14(%ebp),%eax
ff506080:	89 44 24 0c          	mov    %eax,0xc(%esp)
ff506084:	c7 44 24 08 06 00 00 	movl   $0x6,0x8(%esp)
ff50608b:	00 
ff50608c:	8b 45 fc             	mov    -0x4(%ebp),%eax
ff50608f:	89 44 24 04          	mov    %eax,0x4(%esp)
ff506093:	8b 45 10             	mov    0x10(%ebp),%eax
ff506096:	89 04 24             	mov    %eax,(%esp)
ff506099:	e8 42 ca ff ff       	call   ff502ae0 <mapPageTable>
ff50609e:	89 45 f8             	mov    %eax,-0x8(%ebp)
ff5060a1:	83 7d f8 00          	cmpl   $0x0,-0x8(%ebp)
ff5060a5:	74 24                	je     ff5060cb <sysGrantPageTable+0xdb>
ff5060a7:	c7 44 24 0c 9c 00 00 	movl   $0x9c,0xc(%esp)
ff5060ae:	00 
ff5060af:	c7 44 24 08 fd 77 50 	movl   $0xff5077fd,0x8(%esp)
ff5060b6:	ff 
ff5060b7:	c7 44 24 04 7a 77 50 	movl   $0xff50777a,0x4(%esp)
ff5060be:	ff 
ff5060bf:	c7 04 24 c0 77 50 ff 	movl   $0xff5077c0,(%esp)
ff5060c6:	e8 45 a4 ff ff       	call   ff500510 <printAssertMsg>
ff5060cb:	83 6d 18 01          	subl   $0x1,0x18(%ebp)
ff5060cf:	81 45 0c 00 00 40 00 	addl   $0x400000,0xc(%ebp)
ff5060d6:	81 45 10 00 00 40 00 	addl   $0x400000,0x10(%ebp)
ff5060dd:	83 7d 18 00          	cmpl   $0x0,0x18(%ebp)
ff5060e1:	75 83                	jne    ff506066 <sysGrantPageTable+0x76>
ff5060e3:	c7 45 ec 00 00 00 00 	movl   $0x0,-0x14(%ebp)
ff5060ea:	8b 45 ec             	mov    -0x14(%ebp),%eax
ff5060ed:	c9                   	leave  
ff5060ee:	c3                   	ret    
ff5060ef:	42                   	inc    %edx
ff5060f0:	61                   	popa   
ff5060f1:	73 65                	jae    ff506158 <sysGrantPageTable+0x168>
ff5060f3:	20 70 72             	and    %dh,0x72(%eax)
ff5060f6:	6f                   	outsl  %ds:(%esi),(%dx)
ff5060f7:	63 65 73             	arpl   %sp,0x73(%ebp)
ff5060fa:	73 6f                	jae    ff50616b <__func__.1610+0x9>
ff5060fc:	72 0a                	jb     ff506108 <sysGrantPageTable+0x118>
ff5060fe:	00 41 50             	add    %al,0x50(%ecx)
ff506101:	49                   	dec    %ecx
ff506102:	43                   	inc    %ebx
ff506103:	20 65 6e             	and    %ah,0x6e(%ebp)
ff506106:	61                   	popa   
ff506107:	62 6c 65 64          	bound  %ebp,0x64(%ebp,%eiz,2)
ff50610b:	0a 00                	or     (%eax),%al
ff50610d:	41                   	inc    %ecx
ff50610e:	50                   	push   %eax
ff50610f:	49                   	dec    %ecx
ff506110:	43                   	inc    %ebx
ff506111:	20 64 69 73          	and    %ah,0x73(%ecx,%ebp,2)
ff506115:	61                   	popa   
ff506116:	62 6c 65 64          	bound  %ebp,0x64(%ebp,%eiz,2)
ff50611a:	0a 00                	or     (%eax),%al
ff50611c:	41                   	inc    %ecx
ff50611d:	50                   	push   %eax
ff50611e:	49                   	dec    %ecx
ff50611f:	43                   	inc    %ebx
ff506120:	20 42 61             	and    %al,0x61(%edx)
ff506123:	73 65                	jae    ff50618a <__func__.1610+0x28>
ff506125:	3a 20                	cmp    (%eax),%ah
ff506127:	30 78 25             	xor    %bh,0x25(%eax)
ff50612a:	78 0a                	js     ff506136 <sysGrantPageTable+0x146>
ff50612c:	00 00                	add    %al,(%eax)
ff50612e:	00 00                	add    %al,(%eax)
ff506130:	0a 3c 27             	or     (%edi,%eiz,1),%bh
ff506133:	25 73 27 20 25       	and    $0x25202773,%eax
ff506138:	73 3a                	jae    ff506174 <__func__.1610+0x12>
ff50613a:	20 25 64 3e 20 61    	and    %ah,0x61203e64
ff506140:	73 73                	jae    ff5061b5 <__func__.1610+0x53>
ff506142:	65                   	gs
ff506143:	72 74                	jb     ff5061b9 <__func__.1610+0x57>
ff506145:	28 25 73 29 20 66    	sub    %ah,0x66202973
ff50614b:	61                   	popa   
ff50614c:	69 6c 65 64 0a 00 0a 	imul   $0x530a000a,0x64(%ebp,%eiz,2),%ebp
ff506153:	53 
ff506154:	79 73                	jns    ff5061c9 <__func__.1610+0x67>
ff506156:	74 65                	je     ff5061bd <__func__.1610+0x5b>
ff506158:	6d                   	insl   (%dx),%es:(%edi)
ff506159:	20 68 61             	and    %ch,0x61(%eax)
ff50615c:	6c                   	insb   (%dx),%es:(%edi)
ff50615d:	74 65                	je     ff5061c4 <__func__.1610+0x62>
ff50615f:	64 2e 00 69 6e       	add    %ch,%cs:%fs:0x6e(%ecx)

ff506162 <__func__.1610>:
ff506162:	69 6e 63 53 63 68 65 	imul   $0x65686353,0x63(%esi),%ebp
ff506169:	64                   	fs
ff50616a:	43                   	inc    %ebx
ff50616b:	6f                   	outsl  %ds:(%esi),(%dx)
ff50616c:	75 6e                	jne    ff5061dc <__func__.1610+0x7a>
ff50616e:	74 00                	je     ff506170 <__func__.1610+0xe>
ff506170:	64 65 62 75 67       	bound  %esi,%fs:%gs:0x67(%ebp)
ff506175:	2e 63 00             	arpl   %ax,%cs:(%eax)
ff506178:	63 75 72             	arpl   %si,0x72(%ebp)
ff50617b:	72 65                	jb     ff5061e2 <__func__.1610+0x80>
ff50617d:	6e                   	outsb  %ds:(%esi),(%dx)
ff50617e:	74 54                	je     ff5061d4 <__func__.1610+0x72>
ff506180:	68 72 65 61 64       	push   $0x64616572
ff506185:	20 21                	and    %ah,(%ecx)
ff506187:	3d 20 4e 55 4c       	cmp    $0x4c554e20,%eax
ff50618c:	4c                   	dec    %esp
ff50618d:	00 20                	add    %ah,(%eax)
ff50618f:	20 20                	and    %ah,(%eax)
ff506191:	20 20                	and    %ah,(%eax)
ff506193:	00 20                	add    %ah,(%eax)
ff506195:	20 20                	and    %ah,(%eax)
ff506197:	20 20                	and    %ah,(%eax)
ff506199:	20 20                	and    %ah,(%eax)
ff50619b:	20 00                	and    %al,(%eax)
ff50619d:	00 00                	add    %al,(%eax)
ff50619f:	00 97 07 50 ff 34    	add    %dl,0x34ff5007(%edi)
ff5061a5:	08 50 ff             	or     %dl,-0x1(%eax)
ff5061a8:	34 08                	xor    $0x8,%al
ff5061aa:	50                   	push   %eax
ff5061ab:	ff 34 08             	pushl  (%eax,%ecx,1)
ff5061ae:	50                   	push   %eax
ff5061af:	ff 34 08             	pushl  (%eax,%ecx,1)
ff5061b2:	50                   	push   %eax
ff5061b3:	ff 34 08             	pushl  (%eax,%ecx,1)
ff5061b6:	50                   	push   %eax
ff5061b7:	ff 34 08             	pushl  (%eax,%ecx,1)
ff5061ba:	50                   	push   %eax
ff5061bb:	ff 34 08             	pushl  (%eax,%ecx,1)
ff5061be:	50                   	push   %eax
ff5061bf:	ff 34 08             	pushl  (%eax,%ecx,1)
ff5061c2:	50                   	push   %eax
ff5061c3:	ff 34 08             	pushl  (%eax,%ecx,1)
ff5061c6:	50                   	push   %eax
ff5061c7:	ff 34 08             	pushl  (%eax,%ecx,1)
ff5061ca:	50                   	push   %eax
ff5061cb:	ff 34 08             	pushl  (%eax,%ecx,1)
ff5061ce:	50                   	push   %eax
ff5061cf:	ff 34 08             	pushl  (%eax,%ecx,1)
ff5061d2:	50                   	push   %eax
ff5061d3:	ff 34 08             	pushl  (%eax,%ecx,1)
ff5061d6:	50                   	push   %eax
ff5061d7:	ff 34 08             	pushl  (%eax,%ecx,1)
ff5061da:	50                   	push   %eax
ff5061db:	ff 34 08             	pushl  (%eax,%ecx,1)
ff5061de:	50                   	push   %eax
ff5061df:	ff 34 08             	pushl  (%eax,%ecx,1)
ff5061e2:	50                   	push   %eax
ff5061e3:	ff 34 08             	pushl  (%eax,%ecx,1)
ff5061e6:	50                   	push   %eax
ff5061e7:	ff 34 08             	pushl  (%eax,%ecx,1)
ff5061ea:	50                   	push   %eax
ff5061eb:	ff 34 08             	pushl  (%eax,%ecx,1)
ff5061ee:	50                   	push   %eax
ff5061ef:	ff 34 08             	pushl  (%eax,%ecx,1)
ff5061f2:	50                   	push   %eax
ff5061f3:	ff 34 08             	pushl  (%eax,%ecx,1)
ff5061f6:	50                   	push   %eax
ff5061f7:	ff 34 08             	pushl  (%eax,%ecx,1)
ff5061fa:	50                   	push   %eax
ff5061fb:	ff 34 08             	pushl  (%eax,%ecx,1)
ff5061fe:	50                   	push   %eax
ff5061ff:	ff 34 08             	pushl  (%eax,%ecx,1)
ff506202:	50                   	push   %eax
ff506203:	ff 34 08             	pushl  (%eax,%ecx,1)
ff506206:	50                   	push   %eax
ff506207:	ff 34 08             	pushl  (%eax,%ecx,1)
ff50620a:	50                   	push   %eax
ff50620b:	ff 34 08             	pushl  (%eax,%ecx,1)
ff50620e:	50                   	push   %eax
ff50620f:	ff 34 08             	pushl  (%eax,%ecx,1)
ff506212:	50                   	push   %eax
ff506213:	ff 34 08             	pushl  (%eax,%ecx,1)
ff506216:	50                   	push   %eax
ff506217:	ff 34 08             	pushl  (%eax,%ecx,1)
ff50621a:	50                   	push   %eax
ff50621b:	ff 34 08             	pushl  (%eax,%ecx,1)
ff50621e:	50                   	push   %eax
ff50621f:	ff 34 08             	pushl  (%eax,%ecx,1)
ff506222:	50                   	push   %eax
ff506223:	ff 34 08             	pushl  (%eax,%ecx,1)
ff506226:	50                   	push   %eax
ff506227:	ff 34 08             	pushl  (%eax,%ecx,1)
ff50622a:	50                   	push   %eax
ff50622b:	ff 34 08             	pushl  (%eax,%ecx,1)
ff50622e:	50                   	push   %eax
ff50622f:	ff 34 08             	pushl  (%eax,%ecx,1)
ff506232:	50                   	push   %eax
ff506233:	ff 34 08             	pushl  (%eax,%ecx,1)
ff506236:	50                   	push   %eax
ff506237:	ff 34 08             	pushl  (%eax,%ecx,1)
ff50623a:	50                   	push   %eax
ff50623b:	ff 34 08             	pushl  (%eax,%ecx,1)
ff50623e:	50                   	push   %eax
ff50623f:	ff 34 08             	pushl  (%eax,%ecx,1)
ff506242:	50                   	push   %eax
ff506243:	ff 34 08             	pushl  (%eax,%ecx,1)
ff506246:	50                   	push   %eax
ff506247:	ff 34 08             	pushl  (%eax,%ecx,1)
ff50624a:	50                   	push   %eax
ff50624b:	ff 34 08             	pushl  (%eax,%ecx,1)
ff50624e:	50                   	push   %eax
ff50624f:	ff 34 08             	pushl  (%eax,%ecx,1)
ff506252:	50                   	push   %eax
ff506253:	ff 34 08             	pushl  (%eax,%ecx,1)
ff506256:	50                   	push   %eax
ff506257:	ff 34 08             	pushl  (%eax,%ecx,1)
ff50625a:	50                   	push   %eax
ff50625b:	ff 34 08             	pushl  (%eax,%ecx,1)
ff50625e:	50                   	push   %eax
ff50625f:	ff 34 08             	pushl  (%eax,%ecx,1)
ff506262:	50                   	push   %eax
ff506263:	ff 34 08             	pushl  (%eax,%ecx,1)
ff506266:	50                   	push   %eax
ff506267:	ff 34 08             	pushl  (%eax,%ecx,1)
ff50626a:	50                   	push   %eax
ff50626b:	ff c2                	inc    %edx
ff50626d:	07                   	pop    %es
ff50626e:	50                   	push   %eax
ff50626f:	ff 34 08             	pushl  (%eax,%ecx,1)
ff506272:	50                   	push   %eax
ff506273:	ff 34 08             	pushl  (%eax,%ecx,1)
ff506276:	50                   	push   %eax
ff506277:	ff 34 08             	pushl  (%eax,%ecx,1)
ff50627a:	50                   	push   %eax
ff50627b:	ff 34 08             	pushl  (%eax,%ecx,1)
ff50627e:	50                   	push   %eax
ff50627f:	ff 34 08             	pushl  (%eax,%ecx,1)
ff506282:	50                   	push   %eax
ff506283:	ff 34 08             	pushl  (%eax,%ecx,1)
ff506286:	50                   	push   %eax
ff506287:	ff 34 08             	pushl  (%eax,%ecx,1)
ff50628a:	50                   	push   %eax
ff50628b:	ff 34 08             	pushl  (%eax,%ecx,1)
ff50628e:	50                   	push   %eax
ff50628f:	ff 34 08             	pushl  (%eax,%ecx,1)
ff506292:	50                   	push   %eax
ff506293:	ff 34 08             	pushl  (%eax,%ecx,1)
ff506296:	50                   	push   %eax
ff506297:	ff a8 07 50 ff 07    	ljmp   *0x7ff5007(%eax)
ff50629d:	08 50 ff             	or     %dl,-0x1(%eax)
ff5062a0:	34 08                	xor    $0x8,%al
ff5062a2:	50                   	push   %eax
ff5062a3:	ff 34 08             	pushl  (%eax,%ecx,1)
ff5062a6:	50                   	push   %eax
ff5062a7:	ff 34 08             	pushl  (%eax,%ecx,1)
ff5062aa:	50                   	push   %eax
ff5062ab:	ff 34 08             	pushl  (%eax,%ecx,1)
ff5062ae:	50                   	push   %eax
ff5062af:	ff 07                	incl   (%edi)
ff5062b1:	08 50 ff             	or     %dl,-0x1(%eax)
ff5062b4:	34 08                	xor    $0x8,%al
ff5062b6:	50                   	push   %eax
ff5062b7:	ff 34 08             	pushl  (%eax,%ecx,1)
ff5062ba:	50                   	push   %eax
ff5062bb:	ff 34 08             	pushl  (%eax,%ecx,1)
ff5062be:	50                   	push   %eax
ff5062bf:	ff 34 08             	pushl  (%eax,%ecx,1)
ff5062c2:	50                   	push   %eax
ff5062c3:	ff 34 08             	pushl  (%eax,%ecx,1)
ff5062c6:	50                   	push   %eax
ff5062c7:	ff 34 08             	pushl  (%eax,%ecx,1)
ff5062ca:	50                   	push   %eax
ff5062cb:	ff c2                	inc    %edx
ff5062cd:	07                   	pop    %es
ff5062ce:	50                   	push   %eax
ff5062cf:	ff 34 08             	pushl  (%eax,%ecx,1)
ff5062d2:	50                   	push   %eax
ff5062d3:	ff 34 08             	pushl  (%eax,%ecx,1)
ff5062d6:	50                   	push   %eax
ff5062d7:	ff f1                	push   %ecx
ff5062d9:	07                   	pop    %es
ff5062da:	50                   	push   %eax
ff5062db:	ff 34 08             	pushl  (%eax,%ecx,1)
ff5062de:	50                   	push   %eax
ff5062df:	ff 07                	incl   (%edi)
ff5062e1:	08 50 ff             	or     %dl,-0x1(%eax)
ff5062e4:	34 08                	xor    $0x8,%al
ff5062e6:	50                   	push   %eax
ff5062e7:	ff 34 08             	pushl  (%eax,%ecx,1)
ff5062ea:	50                   	push   %eax
ff5062eb:	ff c2                	inc    %edx
ff5062ed:	07                   	pop    %es
ff5062ee:	50                   	push   %eax
ff5062ef:	ff 73 79             	pushl  0x79(%ebx)

ff5062f0 <__func__.1443>:
ff5062f0:	73 79                	jae    ff50636b <__func__.1471+0x21>
ff5062f2:	73 45                	jae    ff506339 <__func__.1443+0x49>
ff5062f4:	6e                   	outsb  %ds:(%esi),(%dx)
ff5062f5:	64                   	fs
ff5062f6:	49                   	dec    %ecx
ff5062f7:	52                   	push   %edx
ff5062f8:	51                   	push   %ecx
ff5062f9:	00 65 78             	add    %ah,0x78(%ebp)
ff5062fc:	63 65 70             	arpl   %sp,0x70(%ebp)
ff5062ff:	74 69                	je     ff50636a <__func__.1471+0x20>
ff506301:	6f                   	outsl  %ds:(%esi),(%dx)
ff506302:	6e                   	outsb  %ds:(%esi),(%dx)
ff506303:	73 2e                	jae    ff506333 <__func__.1443+0x43>
ff506305:	63 00                	arpl   %ax,(%eax)
ff506307:	74 68                	je     ff506371 <__func__.1471+0x27>
ff506309:	72 65                	jb     ff506370 <__func__.1471+0x26>
ff50630b:	61                   	popa   
ff50630c:	64 20 21             	and    %ah,%fs:(%ecx)
ff50630f:	3d 20 4e 55 4c       	cmp    $0x4c554e20,%eax
ff506314:	4c                   	dec    %esp
ff506315:	00 73 79             	add    %dh,0x79(%ebx)
ff506318:	73 45                	jae    ff50635f <__func__.1471+0x15>
ff50631a:	6e                   	outsb  %ds:(%esi),(%dx)
ff50631b:	64                   	fs
ff50631c:	49                   	dec    %ecx
ff50631d:	52                   	push   %edx
ff50631e:	51                   	push   %ecx
ff50631f:	28 29                	sub    %ch,(%ecx)
ff506321:	3a 20                	cmp    (%eax),%ah
ff506323:	25 64 0a 00 00       	and    $0xa64,%eax
ff506328:	69 72 71 4e 75 6d 20 	imul   $0x206d754e,0x71(%edx),%esi
ff50632f:	3e                   	ds
ff506330:	3d 20 49 52 51       	cmp    $0x51524920,%eax
ff506335:	30 20                	xor    %ah,(%eax)
ff506337:	26 26 20 69 72       	and    %ch,%es:0x72(%ecx)
ff50633c:	71 4e                	jno    ff50638c <__func__.1471+0x42>
ff50633e:	75 6d                	jne    ff5063ad <__func__.1501+0x18>
ff506340:	20 3c 3d 20 49 52 51 	and    %bh,0x51524920(,%edi,1)
ff506347:	31 35 00 73 79 73    	xor    %esi,0x73797300

ff50634a <__func__.1471>:
ff50634a:	73 79                	jae    ff5063c5 <__func__.1501+0x30>
ff50634c:	73 52                	jae    ff5063a0 <__func__.1501+0xb>
ff50634e:	65 67 69 73 74 65 72 	addr16 imul $0x6e497265,%gs:0x74(%bp,%di),%esi
ff506355:	49 6e 
ff506357:	74 00                	je     ff506359 <__func__.1471+0xf>
ff506359:	00 00                	add    %al,(%eax)
ff50635b:	00 69 6e             	add    %ch,0x6e(%ecx)
ff50635e:	74 4e                	je     ff5063ae <__func__.1501+0x19>
ff506360:	75 6d                	jne    ff5063cf <__func__.1501+0x3a>
ff506362:	20 3e                	and    %bh,(%esi)
ff506364:	3d 20 49 52 51       	cmp    $0x51524920,%eax
ff506369:	30 20                	xor    %ah,(%eax)
ff50636b:	26 26 20 69 6e       	and    %ch,%es:0x6e(%ecx)
ff506370:	74 4e                	je     ff5063c0 <__func__.1501+0x2b>
ff506372:	75 6d                	jne    ff5063e1 <__func__.1501+0x4c>
ff506374:	20 3c 3d 20 49 52 51 	and    %bh,0x51524920(,%edi,1)
ff50637b:	31 35 00 52 65 67    	xor    %esi,0x67655200
ff506381:	69 73 74 65 72 69 6e 	imul   $0x6e697265,0x74(%ebx),%esi
ff506388:	67 20 49 52          	addr16 and %cl,0x52(%bx,%di)
ff50638c:	51                   	push   %ecx
ff50638d:	3a 20                	cmp    (%eax),%ah
ff50638f:	30 78 25             	xor    %bh,0x25(%eax)
ff506392:	78 0a                	js     ff50639e <__func__.1501+0x9>
	...

ff506395 <__func__.1501>:
ff506395:	73 79                	jae    ff506410 <__func__.1586+0x24>
ff506397:	73 45                	jae    ff5063de <__func__.1501+0x49>
ff506399:	6e                   	outsb  %ds:(%esi),(%dx)
ff50639a:	64                   	fs
ff50639b:	50                   	push   %eax
ff50639c:	61                   	popa   
ff50639d:	67                   	addr16
ff50639e:	65                   	gs
ff50639f:	46                   	inc    %esi
ff5063a0:	61                   	popa   
ff5063a1:	75 6c                	jne    ff50640f <__func__.1586+0x23>
ff5063a3:	74 00                	je     ff5063a5 <__func__.1501+0x10>
ff5063a5:	63 75 72             	arpl   %si,0x72(%ebp)
ff5063a8:	72 54                	jb     ff5063fe <__func__.1586+0x12>
ff5063aa:	68 72 65 61 64       	push   $0x64616572
ff5063af:	20 21                	and    %ah,(%ecx)
ff5063b1:	3d 20 4e 55 4c       	cmp    $0x4c554e20,%eax
ff5063b6:	4c                   	dec    %esp
ff5063b7:	00 74 69 64          	add    %dh,0x64(%ecx,%ebp,2)
ff5063bb:	20 21                	and    %ah,(%ecx)
ff5063bd:	3d 20 4e 55 4c       	cmp    $0x4c554e20,%eax
ff5063c2:	4c                   	dec    %esp
ff5063c3:	5f                   	pop    %edi
ff5063c4:	54                   	push   %esp
ff5063c5:	49                   	dec    %ecx
ff5063c6:	44                   	inc    %esp
ff5063c7:	00 74 63 62          	add    %dh,0x62(%ebx,%eiz,2)
ff5063cb:	54                   	push   %esp
ff5063cc:	61                   	popa   
ff5063cd:	62 6c 65 5b          	bound  %ebp,0x5b(%ebp,%eiz,2)
ff5063d1:	74 69                	je     ff50643c <__func__.1604+0x1>
ff5063d3:	64                   	fs
ff5063d4:	5d                   	pop    %ebp
ff5063d5:	2e                   	cs
ff5063d6:	65                   	gs
ff5063d7:	78 48                	js     ff506421 <__func__.1586+0x35>
ff5063d9:	61                   	popa   
ff5063da:	6e                   	outsb  %ds:(%esi),(%dx)
ff5063db:	64                   	fs
ff5063dc:	6c                   	insb   (%dx),%es:(%edi)
ff5063dd:	65                   	gs
ff5063de:	72 20                	jb     ff506400 <__func__.1586+0x14>
ff5063e0:	21 3d 20 4e 55 4c    	and    %edi,0x4c554e20
ff5063e6:	4c                   	dec    %esp
ff5063e7:	5f                   	pop    %edi
ff5063e8:	54                   	push   %esp
ff5063e9:	49                   	dec    %ecx
ff5063ea:	44                   	inc    %esp
	...

ff5063ec <__func__.1586>:
ff5063ec:	72 65                	jb     ff506453 <__func__.1604+0x18>
ff5063ee:	67 69 73 74 65 72 49 	addr16 imul $0x52497265,0x74(%bp,%di),%esi
ff5063f5:	52 
ff5063f6:	51                   	push   %ecx
ff5063f7:	00 69 72             	add    %ch,0x72(%ecx)
ff5063fa:	71 20                	jno    ff50641c <__func__.1586+0x30>
ff5063fc:	3e                   	ds
ff5063fd:	3d 20 49 52 51       	cmp    $0x51524920,%eax
ff506402:	30 20                	xor    %ah,(%eax)
ff506404:	26 26 20 69 72       	and    %ch,%es:0x72(%ecx)
ff506409:	71 20                	jno    ff50642b <__func__.1586+0x3f>
ff50640b:	3c 3d                	cmp    $0x3d,%al
ff50640d:	20 49 52             	and    %cl,0x52(%ecx)
ff506410:	51                   	push   %ecx
ff506411:	31 35 00 49 6e 76    	xor    %esi,0x766e4900
ff506417:	61                   	popa   
ff506418:	6c                   	insb   (%dx),%es:(%edi)
ff506419:	69 64 20 49 52 51 00 	imul   $0x3c005152,0x49(%eax,%eiz,1),%esp
ff506420:	3c 
ff506421:	27                   	daa    
ff506422:	25 73 27 20 25       	and    $0x25202773,%eax
ff506427:	73 3a                	jae    ff506463 <__func__.1604+0x28>
ff506429:	20 25 64 3e 20 52    	and    %ah,0x52203e64
ff50642f:	65                   	gs
ff506430:	74 3a                	je     ff50646c <__func__.1604+0x31>
ff506432:	20 25 64 2e 20 25    	and    %ah,0x25202e64
ff506438:	73 0a                	jae    ff506444 <__func__.1604+0x9>
	...

ff50643b <__func__.1604>:
ff50643b:	72 65                	jb     ff5064a2 <__func__.1604+0x67>
ff50643d:	6c                   	insb   (%dx),%es:(%edi)
ff50643e:	65                   	gs
ff50643f:	61                   	popa   
ff506440:	73 65                	jae    ff5064a7 <__func__.1604+0x6c>
ff506442:	49                   	dec    %ecx
ff506443:	52                   	push   %edx
ff506444:	51                   	push   %ecx
ff506445:	00 0a                	add    %cl,(%edx)
ff506447:	45                   	inc    %ebp
ff506448:	78 63                	js     ff5064ad <__func__.1604+0x72>
ff50644a:	65                   	gs
ff50644b:	70 74                	jo     ff5064c1 <__func__.1604+0x86>
ff50644d:	69 6f 6e 3a 20 25 64 	imul   $0x6425203a,0x6e(%edi),%ebp
ff506454:	20 40 20             	and    %al,0x20(%eax)
ff506457:	45                   	inc    %ebp
ff506458:	49                   	dec    %ecx
ff506459:	50                   	push   %eax
ff50645a:	3a 20                	cmp    (%eax),%ah
ff50645c:	30 78 25             	xor    %bh,0x25(%eax)
ff50645f:	78 00                	js     ff506461 <__func__.1604+0x26>
ff506461:	20 54 49 44          	and    %dl,0x44(%ecx,%ecx,2)
ff506465:	3a 20                	cmp    (%eax),%ah
ff506467:	25 64 00 00 00       	and    $0x64,%eax
ff50646c:	0a 45 41             	or     0x41(%ebp),%al
ff50646f:	58                   	pop    %eax
ff506470:	3a 20                	cmp    (%eax),%ah
ff506472:	30 78 25             	xor    %bh,0x25(%eax)
ff506475:	78 20                	js     ff506497 <__func__.1604+0x5c>
ff506477:	45                   	inc    %ebp
ff506478:	42                   	inc    %edx
ff506479:	58                   	pop    %eax
ff50647a:	3a 20                	cmp    (%eax),%ah
ff50647c:	30 78 25             	xor    %bh,0x25(%eax)
ff50647f:	78 20                	js     ff5064a1 <__func__.1604+0x66>
ff506481:	45                   	inc    %ebp
ff506482:	43                   	inc    %ebx
ff506483:	58                   	pop    %eax
ff506484:	3a 20                	cmp    (%eax),%ah
ff506486:	30 78 25             	xor    %bh,0x25(%eax)
ff506489:	78 20                	js     ff5064ab <__func__.1604+0x70>
ff50648b:	45                   	inc    %ebp
ff50648c:	44                   	inc    %esp
ff50648d:	58                   	pop    %eax
ff50648e:	3a 20                	cmp    (%eax),%ah
ff506490:	30 78 25             	xor    %bh,0x25(%eax)
ff506493:	78 00                	js     ff506495 <__func__.1604+0x5a>
ff506495:	00 00                	add    %al,(%eax)
ff506497:	00 0a                	add    %cl,(%edx)
ff506499:	45                   	inc    %ebp
ff50649a:	53                   	push   %ebx
ff50649b:	49                   	dec    %ecx
ff50649c:	3a 20                	cmp    (%eax),%ah
ff50649e:	30 78 25             	xor    %bh,0x25(%eax)
ff5064a1:	78 20                	js     ff5064c3 <__func__.1604+0x88>
ff5064a3:	45                   	inc    %ebp
ff5064a4:	44                   	inc    %esp
ff5064a5:	49                   	dec    %ecx
ff5064a6:	3a 20                	cmp    (%eax),%ah
ff5064a8:	30 78 25             	xor    %bh,0x25(%eax)
ff5064ab:	78 20                	js     ff5064cd <__func__.1604+0x92>
ff5064ad:	45                   	inc    %ebp
ff5064ae:	53                   	push   %ebx
ff5064af:	50                   	push   %eax
ff5064b0:	3a 20                	cmp    (%eax),%ah
ff5064b2:	30 78 25             	xor    %bh,0x25(%eax)
ff5064b5:	78 20                	js     ff5064d7 <__func__.1604+0x9c>
ff5064b7:	45                   	inc    %ebp
ff5064b8:	42                   	inc    %edx
ff5064b9:	50                   	push   %eax
ff5064ba:	3a 20                	cmp    (%eax),%ah
ff5064bc:	30 78 25             	xor    %bh,0x25(%eax)
ff5064bf:	78 00                	js     ff5064c1 <__func__.1604+0x86>
ff5064c1:	0a 43 53             	or     0x53(%ebx),%al
ff5064c4:	3a 20                	cmp    (%eax),%ah
ff5064c6:	30 78 25             	xor    %bh,0x25(%eax)
ff5064c9:	78 20                	js     ff5064eb <__func__.1604+0xb0>
ff5064cb:	44                   	inc    %esp
ff5064cc:	53                   	push   %ebx
ff5064cd:	3a 20                	cmp    (%eax),%ah
ff5064cf:	30 78 25             	xor    %bh,0x25(%eax)
ff5064d2:	78 20                	js     ff5064f4 <__func__.1604+0xb9>
ff5064d4:	45                   	inc    %ebp
ff5064d5:	53                   	push   %ebx
ff5064d6:	3a 20                	cmp    (%eax),%ah
ff5064d8:	30 78 25             	xor    %bh,0x25(%eax)
ff5064db:	78 00                	js     ff5064dd <__func__.1604+0xa2>
ff5064dd:	20 43 52             	and    %al,0x52(%ebx)
ff5064e0:	32 3a                	xor    (%edx),%bh
ff5064e2:	20 30                	and    %dh,(%eax)
ff5064e4:	78 25                	js     ff50650b <__func__.1604+0xd0>
ff5064e6:	78 00                	js     ff5064e8 <__func__.1604+0xad>
ff5064e8:	20 65 72             	and    %ah,0x72(%ebp)
ff5064eb:	72 6f                	jb     ff50655c <__func__.1604+0x121>
ff5064ed:	72 20                	jb     ff50650f <__func__.1604+0xd4>
ff5064ef:	63 6f 64             	arpl   %bp,0x64(%edi)
ff5064f2:	65 3a 20             	cmp    %gs:(%eax),%ah
ff5064f5:	30 78 25             	xor    %bh,0x25(%eax)
ff5064f8:	78 0a                	js     ff506504 <__func__.1604+0xc9>
ff5064fa:	00 43 52             	add    %al,0x52(%ebx)
ff5064fd:	33 3a                	xor    (%edx),%edi
ff5064ff:	20 30                	and    %dh,(%eax)
ff506501:	78 25                	js     ff506528 <__func__.1604+0xed>
ff506503:	78 20                	js     ff506525 <__func__.1604+0xea>
ff506505:	61                   	popa   
ff506506:	63 74 75 61          	arpl   %si,0x61(%ebp,%esi,2)
ff50650a:	6c                   	insb   (%dx),%es:(%edi)
ff50650b:	20 43 52             	and    %al,0x52(%ebx)
ff50650e:	33 3a                	xor    (%edx),%edi
ff506510:	20 30                	and    %dh,(%eax)
ff506512:	78 25                	js     ff506539 <__func__.1604+0xfe>
ff506514:	78 00                	js     ff506516 <__func__.1604+0xdb>
ff506516:	45                   	inc    %ebp
ff506517:	46                   	inc    %esi
ff506518:	4c                   	dec    %esp
ff506519:	41                   	inc    %ecx
ff50651a:	47                   	inc    %edi
ff50651b:	53                   	push   %ebx
ff50651c:	3a 20                	cmp    (%eax),%ah
ff50651e:	30 78 25             	xor    %bh,0x25(%eax)
ff506521:	78 20                	js     ff506543 <__func__.1604+0x108>
ff506523:	00 55 73             	add    %dl,0x73(%ebp)
ff506526:	65                   	gs
ff506527:	72 20                	jb     ff506549 <__func__.1604+0x10e>
ff506529:	45                   	inc    %ebp
ff50652a:	53                   	push   %ebx
ff50652b:	50                   	push   %eax
ff50652c:	3a 20                	cmp    (%eax),%ah
ff50652e:	30 78 25             	xor    %bh,0x25(%eax)
ff506531:	78 20                	js     ff506553 <__func__.1604+0x118>
ff506533:	55                   	push   %ebp
ff506534:	73 65                	jae    ff50659b <__func__.1604+0x160>
ff506536:	72 20                	jb     ff506558 <__func__.1604+0x11d>
ff506538:	53                   	push   %ebx
ff506539:	53                   	push   %ebx
ff50653a:	3a 20                	cmp    (%eax),%ah
ff50653c:	30 78 25             	xor    %bh,0x25(%eax)
ff50653f:	78 00                	js     ff506541 <__func__.1604+0x106>
ff506541:	0a 00                	or     (%eax),%al
ff506543:	47                   	inc    %edi
ff506544:	50                   	push   %eax
ff506545:	46                   	inc    %esi
ff506546:	20 64 75 65          	and    %ah,0x65(%ebp,%esi,2)
ff50654a:	20 74 6f 20          	and    %dh,0x20(%edi,%ebp,2)
ff50654e:	49                   	dec    %ecx
ff50654f:	4f                   	dec    %edi
ff506550:	20 62 69             	and    %ah,0x69(%edx)
ff506553:	74 6d                	je     ff5065c2 <__func__.1604+0x187>
ff506555:	61                   	popa   
ff506556:	70 0a                	jo     ff506562 <__func__.1604+0x127>
ff506558:	00 00                	add    %al,(%eax)
ff50655a:	00 00                	add    %al,(%eax)
ff50655c:	49                   	dec    %ecx
ff50655d:	64                   	fs
ff50655e:	6c                   	insb   (%dx),%es:(%edi)
ff50655f:	65 20 74 68 72       	and    %dh,%gs:0x72(%eax,%ebp,2)
ff506564:	65                   	gs
ff506565:	61                   	popa   
ff506566:	64 20 64 69 65       	and    %ah,%fs:0x65(%ecx,%ebp,2)
ff50656b:	64 2e 20 53 79       	and    %dl,%cs:%fs:0x79(%ebx)
ff506570:	73 74                	jae    ff5065e6 <__func__.1604+0x1ab>
ff506572:	65                   	gs
ff506573:	6d                   	insl   (%dx),%es:(%edi)
ff506574:	20 68 61             	and    %ch,0x61(%eax)
ff506577:	6c                   	insb   (%dx),%es:(%edi)
ff506578:	74 65                	je     ff5065df <__func__.1604+0x1a4>
ff50657a:	64 2e 0a 00          	or     %cs:%fs:(%eax),%al
ff50657e:	00 00                	add    %al,(%eax)
ff506580:	55                   	push   %ebp
ff506581:	6e                   	outsb  %ds:(%esi),(%dx)
ff506582:	61                   	popa   
ff506583:	62 6c 65 20          	bound  %ebp,0x20(%ebp,%eiz,2)
ff506587:	74 6f                	je     ff5065f8 <__func__.1691+0x4>
ff506589:	20 68 61             	and    %ch,0x61(%eax)
ff50658c:	6e                   	outsb  %ds:(%esi),(%dx)
ff50658d:	64                   	fs
ff50658e:	6c                   	insb   (%dx),%es:(%edi)
ff50658f:	65 20 65 78          	and    %ah,%gs:0x78(%ebp)
ff506593:	63 65 70             	arpl   %sp,0x70(%ebp)
ff506596:	74 69                	je     ff506601 <__func__.1691+0xd>
ff506598:	6f                   	outsl  %ds:(%esi),(%dx)
ff506599:	6e                   	outsb  %ds:(%esi),(%dx)
ff50659a:	2e 20 53 79          	and    %dl,%cs:0x79(%ebx)
ff50659e:	73 74                	jae    ff506614 <__func__.1691+0x20>
ff5065a0:	65                   	gs
ff5065a1:	6d                   	insl   (%dx),%es:(%edi)
ff5065a2:	20 48 61             	and    %cl,0x61(%eax)
ff5065a5:	6c                   	insb   (%dx),%es:(%edi)
ff5065a6:	74 65                	je     ff50660d <__func__.1691+0x19>
ff5065a8:	64 2e 0a 00          	or     %cs:%fs:(%eax),%al
ff5065ac:	49                   	dec    %ecx
ff5065ad:	6e                   	outsb  %ds:(%esi),(%dx)
ff5065ae:	76 61                	jbe    ff506611 <__func__.1691+0x1d>
ff5065b0:	6c                   	insb   (%dx),%es:(%edi)
ff5065b1:	69 64 20 65 78 63 65 	imul   $0x70656378,0x65(%eax,%eiz,1),%esp
ff5065b8:	70 
ff5065b9:	74 69                	je     ff506624 <__func__.1691+0x30>
ff5065bb:	6f                   	outsl  %ds:(%esi),(%dx)
ff5065bc:	6e                   	outsb  %ds:(%esi),(%dx)
ff5065bd:	20 68 61             	and    %ch,0x61(%eax)
ff5065c0:	6e                   	outsb  %ds:(%esi),(%dx)
ff5065c1:	64                   	fs
ff5065c2:	6c                   	insb   (%dx),%es:(%edi)
ff5065c3:	65                   	gs
ff5065c4:	72 0a                	jb     ff5065d0 <__func__.1604+0x195>
ff5065c6:	00 00                	add    %al,(%eax)
ff5065c8:	45                   	inc    %ebp
ff5065c9:	78 63                	js     ff50662e <__func__.1691+0x3a>
ff5065cb:	65                   	gs
ff5065cc:	70 74                	jo     ff506642 <__func__.1691+0x4e>
ff5065ce:	69 6f 6e 20 68 61 6e 	imul   $0x6e616820,0x6e(%edi),%ebp
ff5065d5:	64                   	fs
ff5065d6:	6c                   	insb   (%dx),%es:(%edi)
ff5065d7:	65                   	gs
ff5065d8:	72 20                	jb     ff5065fa <__func__.1691+0x6>
ff5065da:	6e                   	outsb  %ds:(%esi),(%dx)
ff5065db:	6f                   	outsl  %ds:(%esi),(%dx)
ff5065dc:	74 20                	je     ff5065fe <__func__.1691+0xa>
ff5065de:	61                   	popa   
ff5065df:	63 63 65             	arpl   %sp,0x65(%ebx)
ff5065e2:	70 74                	jo     ff506658 <__func__.1691+0x64>
ff5065e4:	69 6e 67 20 65 78 63 	imul   $0x63786520,0x67(%esi),%ebp
ff5065eb:	65                   	gs
ff5065ec:	70 74                	jo     ff506662 <__func__.1691+0x6e>
ff5065ee:	69 6f 6e 0a 00 00 63 	imul   $0x6300000a,0x6e(%edi),%ebp

ff5065f4 <__func__.1691>:
ff5065f4:	63 6c 65 61          	arpl   %bp,0x61(%ebp,%eiz,2)
ff5065f8:	72 50                	jb     ff50664a <__func__.1691+0x56>
ff5065fa:	68 79 73 50 61       	push   $0x61507379
ff5065ff:	67 65 00 69 6e       	addr16 add %ch,%gs:0x6e(%bx,%di)
ff506604:	69 74 2e 63 00 70 68 	imul   $0x79687000,0x63(%esi,%ebp,1),%esi
ff50660b:	79 
ff50660c:	73 20                	jae    ff50662e <__func__.1691+0x3a>
ff50660e:	21 3d 20 28 76 6f    	and    %edi,0x6f762820
ff506614:	69 64 20 2a 29 4e 55 	imul   $0x4c554e29,0x2a(%eax,%eiz,1),%esp
ff50661b:	4c 
ff50661c:	4c                   	dec    %esp
ff50661d:	5f                   	pop    %edi
ff50661e:	50                   	push   %eax
ff50661f:	41                   	inc    %ecx
ff506620:	44                   	inc    %esp
ff506621:	44                   	inc    %esp
ff506622:	52                   	push   %edx
ff506623:	00 45 6e             	add    %al,0x6e(%ebp)
ff506626:	61                   	popa   
ff506627:	62 6c 69 6e          	bound  %ebp,0x6e(%ecx,%ebp,2)
ff50662b:	67 20 49 52          	addr16 and %cl,0x52(%bx,%di)
ff50662f:	51                   	push   %ecx
ff506630:	20 32                	and    %dh,(%edx)
ff506632:	0a 00                	or     (%eax),%al
ff506634:	47                   	inc    %edi
ff506635:	44                   	inc    %esp
ff506636:	54                   	push   %esp
ff506637:	3a 20                	cmp    (%eax),%ah
ff506639:	53                   	push   %ebx
ff50663a:	65                   	gs
ff50663b:	6c                   	insb   (%dx),%es:(%edi)
ff50663c:	2d 20 30 78 25       	sub    $0x25783020,%eax
ff506641:	78 20                	js     ff506663 <__func__.1691+0x6f>
ff506643:	42                   	inc    %edx
ff506644:	61                   	popa   
ff506645:	73 65                	jae    ff5066ac <__func__.1691+0xb8>
ff506647:	3a 20                	cmp    (%eax),%ah
ff506649:	30 78 25             	xor    %bh,0x25(%eax)
ff50664c:	78 20                	js     ff50666e <__func__.1691+0x7a>
ff50664e:	4c                   	dec    %esp
ff50664f:	69 6d 69 74 3a 20 30 	imul   $0x30203a74,0x69(%ebp),%ebp
ff506656:	78 25                	js     ff50667d <__func__.1691+0x89>
ff506658:	78 20                	js     ff50667a <__func__.1691+0x86>
ff50665a:	46                   	inc    %esi
ff50665b:	6c                   	insb   (%dx),%es:(%edi)
ff50665c:	61                   	popa   
ff50665d:	67 73 3a             	addr16 jae ff50669a <__func__.1691+0xa6>
ff506660:	20 30                	and    %dh,(%eax)
ff506662:	78 25                	js     ff506689 <__func__.1691+0x95>
ff506664:	78 0a                	js     ff506670 <__func__.1691+0x7c>
ff506666:	00 00                	add    %al,(%eax)
ff506668:	49                   	dec    %ecx
ff506669:	6e                   	outsb  %ds:(%esi),(%dx)
ff50666a:	69 74 20 66 61 69 6c 	imul   $0x656c6961,0x66(%eax,%eiz,1),%esi
ff506671:	65 
ff506672:	64 3a 20             	cmp    %fs:(%eax),%ah
ff506675:	25 73 0a 53 79       	and    $0x79530a73,%eax
ff50667a:	73 74                	jae    ff5066f0 <__func__.1691+0xfc>
ff50667c:	65                   	gs
ff50667d:	6d                   	insl   (%dx),%es:(%edi)
ff50667e:	20 68 61             	and    %ch,0x61(%eax)
ff506681:	6c                   	insb   (%dx),%es:(%edi)
ff506682:	74 65                	je     ff5066e9 <__func__.1691+0xf5>
ff506684:	64 2e 00 00          	add    %al,%cs:%fs:(%eax)
ff506688:	54                   	push   %esp
ff506689:	6f                   	outsl  %ds:(%esi),(%dx)
ff50668a:	74 61                	je     ff5066ed <__func__.1691+0xf9>
ff50668c:	6c                   	insb   (%dx),%es:(%edi)
ff50668d:	20 4d 65             	and    %cl,0x65(%ebp)
ff506690:	6d                   	insl   (%dx),%es:(%edi)
ff506691:	6f                   	outsl  %ds:(%esi),(%dx)
ff506692:	72 79                	jb     ff50670d <__func__.1691+0x119>
ff506694:	3a 20                	cmp    (%eax),%ah
ff506696:	30 78 25             	xor    %bh,0x25(%eax)
ff506699:	78 2e                	js     ff5066c9 <__func__.1691+0xd5>
ff50669b:	20 25 64 20 70 61    	and    %ah,0x61702064
ff5066a1:	67                   	addr16
ff5066a2:	65                   	gs
ff5066a3:	73 2e                	jae    ff5066d3 <__func__.1691+0xdf>
ff5066a5:	20 00                	and    %al,(%eax)
ff5066a7:	4e                   	dec    %esi
ff5066a8:	6f                   	outsl  %ds:(%esi),(%dx)
ff5066a9:	74 20                	je     ff5066cb <__func__.1691+0xd7>
ff5066ab:	65 6e                	outsb  %gs:(%esi),(%dx)
ff5066ad:	6f                   	outsl  %ds:(%esi),(%dx)
ff5066ae:	75 67                	jne    ff506717 <__func__.1691+0x123>
ff5066b0:	68 20 6d 65 6d       	push   $0x6d656d20
ff5066b5:	6f                   	outsl  %ds:(%esi),(%dx)
ff5066b6:	72 79                	jb     ff506731 <__func__.1691+0x13d>
ff5066b8:	21 00                	and    %eax,(%eax)
ff5066ba:	4b                   	dec    %ebx
ff5066bb:	65                   	gs
ff5066bc:	72 6e                	jb     ff50672c <__func__.1691+0x138>
ff5066be:	65                   	gs
ff5066bf:	6c                   	insb   (%dx),%es:(%edi)
ff5066c0:	20 41 64             	and    %al,0x64(%ecx)
ff5066c3:	64                   	fs
ff5066c4:	72 53                	jb     ff506719 <__func__.1691+0x125>
ff5066c6:	70 61                	jo     ff506729 <__func__.1691+0x135>
ff5066c8:	63 65 3a             	arpl   %sp,0x3a(%ebp)
ff5066cb:	20 30                	and    %dh,(%eax)
ff5066cd:	78 25                	js     ff5066f4 <__func__.1691+0x100>
ff5066cf:	78 0a                	js     ff5066db <__func__.1691+0xe7>
ff5066d1:	00 00                	add    %al,(%eax)
ff5066d3:	00 4b 65             	add    %cl,0x65(%ebx)
ff5066d6:	72 6e                	jb     ff506746 <__func__.1691+0x152>
ff5066d8:	65                   	gs
ff5066d9:	6c                   	insb   (%dx),%es:(%edi)
ff5066da:	20 69 73             	and    %ch,0x73(%ecx)
ff5066dd:	20 74 6f 6f          	and    %dh,0x6f(%edi,%ebp,2)
ff5066e1:	20 6c 61 72          	and    %ch,0x72(%ecx,%eiz,2)
ff5066e5:	67 65 21 28          	addr16 and %ebp,%gs:(%bx,%si)
ff5066e9:	3e 20 34 31          	and    %dh,%ds:(%ecx,%esi,1)
ff5066ed:	39 34 33             	cmp    %esi,(%ebx,%esi,1)
ff5066f0:	30 34 20             	xor    %dh,(%eax,%eiz,1)
ff5066f3:	62 79 74             	bound  %edi,0x74(%ecx)
ff5066f6:	65                   	gs
ff5066f7:	73 29                	jae    ff506722 <__func__.1691+0x12e>
ff5066f9:	00 54 6f 74          	add    %dl,0x74(%edi,%ebp,2)
ff5066fd:	61                   	popa   
ff5066fe:	6c                   	insb   (%dx),%es:(%edi)
ff5066ff:	20 4b 65             	and    %cl,0x65(%ebx)
ff506702:	72 6e                	jb     ff506772 <__func__.1691+0x17e>
ff506704:	65                   	gs
ff506705:	6c                   	insb   (%dx),%es:(%edi)
ff506706:	20 53 69             	and    %dl,0x69(%ebx)
ff506709:	7a 65                	jp     ff506770 <__func__.1691+0x17c>
ff50670b:	3a 20                	cmp    (%eax),%ah
ff50670d:	30 78 25             	xor    %bh,0x25(%eax)
ff506710:	78 0a                	js     ff50671c <__func__.1691+0x128>
ff506712:	00 00                	add    %al,(%eax)
ff506714:	55                   	push   %ebp
ff506715:	6e                   	outsb  %ds:(%esi),(%dx)
ff506716:	61                   	popa   
ff506717:	62 6c 65 20          	bound  %ebp,0x20(%ebp,%eiz,2)
ff50671b:	74 6f                	je     ff50678c <__func__.1691+0x198>
ff50671d:	20 69 6e             	and    %ch,0x6e(%ecx)
ff506720:	69 74 69 61 6c 69 7a 	imul   $0x657a696c,0x61(%ecx,%ebp,2),%esi
ff506727:	65 
ff506728:	20 6b 65             	and    %ch,0x65(%ebx)
ff50672b:	72 6e                	jb     ff50679b <__func__.1691+0x1a7>
ff50672d:	65                   	gs
ff50672e:	6c                   	insb   (%dx),%es:(%edi)
ff50672f:	20 64 61 74          	and    %ah,0x74(%ecx,%eiz,2)
ff506733:	61                   	popa   
ff506734:	20 73 74             	and    %dh,0x74(%ebx)
ff506737:	72 75                	jb     ff5067ae <__func__.1691+0x1ba>
ff506739:	63 74 75 72          	arpl   %si,0x72(%ebp,%esi,2)
ff50673d:	65 20 74 61 62       	and    %dh,%gs:0x62(%ecx,%eiz,2)
ff506742:	6c                   	insb   (%dx),%es:(%edi)
ff506743:	65                   	gs
ff506744:	73 2e                	jae    ff506774 <__func__.1691+0x180>
ff506746:	0a 00                	or     (%eax),%al
ff506748:	4b                   	dec    %ebx
ff506749:	65                   	gs
ff50674a:	72 6e                	jb     ff5067ba <__func__.1691+0x1c6>
ff50674c:	65                   	gs
ff50674d:	6c                   	insb   (%dx),%es:(%edi)
ff50674e:	20 45 6e             	and    %al,0x6e(%ebp)
ff506751:	64 3a 20             	cmp    %fs:(%eax),%ah
ff506754:	30 78 25             	xor    %bh,0x25(%eax)
ff506757:	78 0a                	js     ff506763 <__func__.1691+0x16f>
ff506759:	00 55 6e             	add    %dl,0x6e(%ebp)
ff50675c:	6d                   	insl   (%dx),%es:(%edi)
ff50675d:	61                   	popa   
ff50675e:	70 70                	jo     ff5067d0 <__func__.1691+0x1dc>
ff506760:	69 6e 67 20 66 69 72 	imul   $0x72696620,0x67(%esi),%ebp
ff506767:	73 74                	jae    ff5067dd <__func__.1691+0x1e9>
ff506769:	20 70 61             	and    %dh,0x61(%eax)
ff50676c:	67 65 20 74 61       	addr16 and %dh,%gs:0x61(%si)
ff506771:	62 6c 65 0a          	bound  %ebp,0xa(%ebp,%eiz,2)
ff506775:	00 45 6e             	add    %al,0x6e(%ebp)
ff506778:	61                   	popa   
ff506779:	62 6c 69 6e          	bound  %ebp,0x6e(%ecx,%ebp,2)
ff50677d:	67 20 49 52          	addr16 and %cl,0x52(%bx,%di)
ff506781:	51                   	push   %ecx
ff506782:	20 30                	and    %dh,(%eax)
ff506784:	0a 00                	or     (%eax),%al
ff506786:	4b                   	dec    %ebx
ff506787:	65                   	gs
ff506788:	72 6e                	jb     ff5067f8 <__func__.1691+0x204>
ff50678a:	65                   	gs
ff50678b:	6c                   	insb   (%dx),%es:(%edi)
ff50678c:	20 54 61 62          	and    %dl,0x62(%ecx,%eiz,2)
ff506790:	6c                   	insb   (%dx),%es:(%edi)
ff506791:	65                   	gs
ff506792:	73 3a                	jae    ff5067ce <__func__.1691+0x1da>
ff506794:	20 53 74             	and    %dl,0x74(%ebx)
ff506797:	61                   	popa   
ff506798:	72 74                	jb     ff50680e <__func__.1691+0x21a>
ff50679a:	20 2d 20 30 78 25    	and    %ch,0x25783020
ff5067a0:	78 20                	js     ff5067c2 <__func__.1691+0x1ce>
ff5067a2:	00 54 43 42          	add    %dl,0x42(%ebx,%eax,2)
ff5067a6:	20 54 61 62          	and    %dl,0x62(%ecx,%eiz,2)
ff5067aa:	6c                   	insb   (%dx),%es:(%edi)
ff5067ab:	65 3a 20             	cmp    %gs:(%eax),%ah
ff5067ae:	30 78 25             	xor    %bh,0x25(%eax)
ff5067b1:	78 0a                	js     ff5067bd <__func__.1691+0x1c9>
ff5067b3:	00 52 75             	add    %dl,0x75(%edx)
ff5067b6:	6e                   	outsb  %ds:(%esi),(%dx)
ff5067b7:	20 51 75             	and    %dl,0x75(%ecx)
ff5067ba:	65                   	gs
ff5067bb:	75 65                	jne    ff506822 <__func__.1691+0x22e>
ff5067bd:	73 3a                	jae    ff5067f9 <__func__.1691+0x205>
ff5067bf:	20 30                	and    %dh,(%eax)
ff5067c1:	78 25                	js     ff5067e8 <__func__.1691+0x1f4>
ff5067c3:	78 0a                	js     ff5067cf <__func__.1691+0x1db>
ff5067c5:	00 54 43 42          	add    %dl,0x42(%ebx,%eax,2)
ff5067c9:	20 4e 6f             	and    %cl,0x6f(%esi)
ff5067cc:	64                   	fs
ff5067cd:	65                   	gs
ff5067ce:	73 3a                	jae    ff50680a <__func__.1691+0x216>
ff5067d0:	20 30                	and    %dh,(%eax)
ff5067d2:	78 25                	js     ff5067f9 <__func__.1691+0x205>
ff5067d4:	78 20                	js     ff5067f6 <__func__.1691+0x202>
ff5067d6:	00 7f 45             	add    %bh,0x45(%edi)
ff5067d9:	4c                   	dec    %esp
ff5067da:	46                   	inc    %esi
ff5067db:	00 4e 6f             	add    %cl,0x6f(%esi)
ff5067de:	74 20                	je     ff506800 <__func__.1691+0x20c>
ff5067e0:	61                   	popa   
ff5067e1:	20 76 61             	and    %dh,0x61(%esi)
ff5067e4:	6c                   	insb   (%dx),%es:(%edi)
ff5067e5:	69 64 20 45 4c 46 20 	imul   $0x6520464c,0x45(%eax,%eiz,1),%esp
ff5067ec:	65 
ff5067ed:	78 65                	js     ff506854 <__func__.1691+0x260>
ff5067ef:	63 75 74             	arpl   %si,0x74(%ebp)
ff5067f2:	61                   	popa   
ff5067f3:	62 6c 65 2e          	bound  %ebp,0x2e(%ebp,%eiz,2)
ff5067f7:	0a 00                	or     (%eax),%al
ff5067f9:	00 00                	add    %al,(%eax)
ff5067fb:	00 6c 6f 61          	add    %ch,0x61(%edi,%ebp,2)
ff5067ff:	64                   	fs
ff506800:	5f                   	pop    %edi
ff506801:	65                   	gs
ff506802:	6c                   	insb   (%dx),%es:(%edi)
ff506803:	66 5f                	pop    %di
ff506805:	65                   	gs
ff506806:	78 65                	js     ff50686d <__func__.1691+0x279>
ff506808:	63 28                	arpl   %bp,(%eax)
ff50680a:	29 3a                	sub    %edi,(%edx)
ff50680c:	20 43 6f             	and    %al,0x6f(%ebx)
ff50680f:	75 6c                	jne    ff50687d <__func__.1691+0x289>
ff506811:	64 6e                	outsb  %fs:(%esi),(%dx)
ff506813:	27                   	daa    
ff506814:	74 20                	je     ff506836 <__func__.1691+0x242>
ff506816:	63 72 65             	arpl   %si,0x65(%edx)
ff506819:	61                   	popa   
ff50681a:	74 65                	je     ff506881 <__func__.1691+0x28d>
ff50681c:	20 74 68 72          	and    %dh,0x72(%eax,%ebp,2)
ff506820:	65                   	gs
ff506821:	61                   	popa   
ff506822:	64 2e 0a 00          	or     %cs:%fs:(%eax),%al
ff506826:	00 00                	add    %al,(%eax)
ff506828:	56                   	push   %esi
ff506829:	61                   	popa   
ff50682a:	64                   	fs
ff50682b:	64                   	fs
ff50682c:	72 3a                	jb     ff506868 <__func__.1691+0x274>
ff50682e:	20 30                	and    %dh,(%eax)
ff506830:	78 25                	js     ff506857 <__func__.1691+0x263>
ff506832:	78 20                	js     ff506854 <__func__.1691+0x260>
ff506834:	4f                   	dec    %edi
ff506835:	66                   	data16
ff506836:	66                   	data16
ff506837:	73 65                	jae    ff50689e <__func__.2149+0x9>
ff506839:	74 3a                	je     ff506875 <__func__.1691+0x281>
ff50683b:	20 30                	and    %dh,(%eax)
ff50683d:	78 25                	js     ff506864 <__func__.1691+0x270>
ff50683f:	78 20                	js     ff506861 <__func__.1691+0x26d>
ff506841:	4d                   	dec    %ebp
ff506842:	65                   	gs
ff506843:	6d                   	insl   (%dx),%es:(%edi)
ff506844:	53                   	push   %ebx
ff506845:	69 7a 65 3a 20 30 78 	imul   $0x7830203a,0x65(%edx),%edi
ff50684c:	25 78 0a 00 42       	and    $0x42000a78,%eax
ff506851:	61                   	popa   
ff506852:	73 65                	jae    ff5068b9 <__func__.2149+0x24>
ff506854:	3a 20                	cmp    (%eax),%ah
ff506856:	30 78 25             	xor    %bh,0x25(%eax)
ff506859:	78 20                	js     ff50687b <__func__.1691+0x287>
ff50685b:	4c                   	dec    %esp
ff50685c:	65 6e                	outsb  %gs:(%esi),(%dx)
ff50685e:	67 74 68             	addr16 je ff5068c9 <__func__.2149+0x34>
ff506861:	3a 20                	cmp    (%eax),%ah
ff506863:	25 64 20 70 61       	and    $0x61702064,%eax
ff506868:	67                   	addr16
ff506869:	65                   	gs
ff50686a:	73 0a                	jae    ff506876 <__func__.1691+0x282>
ff50686c:	00 00                	add    %al,(%eax)
ff50686e:	00 00                	add    %al,(%eax)
ff506870:	4e                   	dec    %esi
ff506871:	6f                   	outsl  %ds:(%esi),(%dx)
ff506872:	74 20                	je     ff506894 <__func__.1691+0x2a0>
ff506874:	65 6e                	outsb  %gs:(%esi),(%dx)
ff506876:	6f                   	outsl  %ds:(%esi),(%dx)
ff506877:	75 67                	jne    ff5068e0 <__func__.2149+0x4b>
ff506879:	68 20 6d 65 6d       	push   $0x6d656d20
ff50687e:	6f                   	outsl  %ds:(%esi),(%dx)
ff50687f:	72 79                	jb     ff5068fa <__func__.2149+0x65>
ff506881:	20 66 6f             	and    %ah,0x6f(%esi)
ff506884:	72 20                	jb     ff5068a6 <__func__.2149+0x11>
ff506886:	42                   	inc    %edx
ff506887:	53                   	push   %ebx
ff506888:	53                   	push   %ebx
ff506889:	20 61 6c             	and    %ah,0x6c(%ecx)
ff50688c:	6c                   	insb   (%dx),%es:(%edi)
ff50688d:	6f                   	outsl  %ds:(%esi),(%dx)
ff50688e:	63 61 74             	arpl   %sp,0x74(%ecx)
ff506891:	69 6f 6e 00 69 6e 69 	imul   $0x696e6900,0x6e(%edi),%ebp

ff506895 <__func__.2149>:
ff506895:	69 6e 69 74 32 00 74 	imul   $0x74003274,0x69(%esi),%ebp
ff50689c:	63 62 54             	arpl   %sp,0x54(%edx)
ff50689f:	61                   	popa   
ff5068a0:	62 6c 65 2d          	bound  %ebp,0x2d(%ebp,%eiz,2)
ff5068a4:	3e 73 74             	jae,pt ff50691b <__func__.2149+0x86>
ff5068a7:	61                   	popa   
ff5068a8:	74 65                	je     ff50690f <__func__.2149+0x7a>
ff5068aa:	20 21                	and    %ah,(%ecx)
ff5068ac:	3d 20 44 45 41       	cmp    $0x41454420,%eax
ff5068b1:	44                   	inc    %esp
ff5068b2:	00 00                	add    %al,(%eax)
ff5068b4:	0a 30                	or     (%eax),%dh
ff5068b6:	78 25                	js     ff5068dd <__func__.2149+0x48>
ff5068b8:	78 20                	js     ff5068da <__func__.2149+0x45>
ff5068ba:	62 79 74             	bound  %edi,0x74(%ecx)
ff5068bd:	65                   	gs
ff5068be:	73 20                	jae    ff5068e0 <__func__.2149+0x4b>
ff5068c0:	6f                   	outsl  %ds:(%esi),(%dx)
ff5068c1:	66                   	data16
ff5068c2:	20 64 69 73          	and    %ah,0x73(%ecx,%ebp,2)
ff5068c6:	63 61 72             	arpl   %sp,0x72(%ecx)
ff5068c9:	64                   	fs
ff5068ca:	61                   	popa   
ff5068cb:	62 6c 65 20          	bound  %ebp,0x20(%ebp,%eiz,2)
ff5068cf:	63 6f 64             	arpl   %bp,0x64(%edi)
ff5068d2:	65 2e 00 00          	add    %al,%cs:%gs:(%eax)
ff5068d6:	00 00                	add    %al,(%eax)
ff5068d8:	20 30                	and    %dh,(%eax)
ff5068da:	78 25                	js     ff506901 <__func__.2149+0x6c>
ff5068dc:	78 20                	js     ff5068fe <__func__.2149+0x69>
ff5068de:	62 79 74             	bound  %edi,0x74(%ecx)
ff5068e1:	65                   	gs
ff5068e2:	73 20                	jae    ff506904 <__func__.2149+0x6f>
ff5068e4:	6f                   	outsl  %ds:(%esi),(%dx)
ff5068e5:	66                   	data16
ff5068e6:	20 64 69 73          	and    %ah,0x73(%ecx,%ebp,2)
ff5068ea:	63 61 72             	arpl   %sp,0x72(%ecx)
ff5068ed:	64                   	fs
ff5068ee:	61                   	popa   
ff5068ef:	62 6c 65 20          	bound  %ebp,0x20(%ebp,%eiz,2)
ff5068f3:	64                   	fs
ff5068f4:	61                   	popa   
ff5068f5:	74 61                	je     ff506958 <__func__.2149+0xc3>
ff5068f7:	2e 0a 00             	or     %cs:(%eax),%al
ff5068fa:	00 00                	add    %al,(%eax)
ff5068fc:	4e                   	dec    %esi
ff5068fd:	6f                   	outsl  %ds:(%esi),(%dx)
ff5068fe:	20 62 6f             	and    %ah,0x6f(%edx)
ff506901:	6f                   	outsl  %ds:(%esi),(%dx)
ff506902:	74 20                	je     ff506924 <__func__.2149+0x8f>
ff506904:	6d                   	insl   (%dx),%es:(%edi)
ff506905:	6f                   	outsl  %ds:(%esi),(%dx)
ff506906:	64                   	fs
ff506907:	75 6c                	jne    ff506975 <__func__.2149+0xe0>
ff506909:	65                   	gs
ff50690a:	73 20                	jae    ff50692c <__func__.2149+0x97>
ff50690c:	66 6f                	outsw  %ds:(%esi),(%dx)
ff50690e:	75 6e                	jne    ff50697e <__func__.2149+0xe9>
ff506910:	64 2e 0a 4e 6f       	or     %cs:%fs:0x6f(%esi),%cl
ff506915:	20 69 6e             	and    %ch,0x6e(%ecx)
ff506918:	69 74 69 61 6c 20 73 	imul   $0x6573206c,0x61(%ecx,%ebp,2),%esi
ff50691f:	65 
ff506920:	72 76                	jb     ff506998 <__func__.2149+0x103>
ff506922:	65                   	gs
ff506923:	72 20                	jb     ff506945 <__func__.2149+0xb0>
ff506925:	74 6f                	je     ff506996 <__func__.2149+0x101>
ff506927:	20 73 74             	and    %dh,0x74(%ebx)
ff50692a:	61                   	popa   
ff50692b:	72 74                	jb     ff5069a1 <__func__.2149+0x10c>
ff50692d:	2e 0a 00             	or     %cs:(%eax),%al
ff506930:	44                   	inc    %esp
ff506931:	69 73 63 61 72 64 69 	imul   $0x69647261,0x63(%ebx),%esi
ff506938:	6e                   	outsb  %ds:(%esi),(%dx)
ff506939:	67 3a 20             	addr16 cmp (%bx,%si),%ah
ff50693c:	25 64 20 62 79       	and    $0x79622064,%eax
ff506941:	74 65                	je     ff5069a8 <__func__.2149+0x113>
ff506943:	73 20                	jae    ff506965 <__func__.2149+0xd0>
ff506945:	6f                   	outsl  %ds:(%esi),(%dx)
ff506946:	66                   	data16
ff506947:	20 6b 65             	and    %ch,0x65(%ebx)
ff50694a:	72 6e                	jb     ff5069ba <__func__.2149+0x125>
ff50694c:	65                   	gs
ff50694d:	6c                   	insb   (%dx),%es:(%edi)
ff50694e:	20 63 6f             	and    %ah,0x6f(%ebx)
ff506951:	64                   	fs
ff506952:	65                   	gs
ff506953:	2f                   	das    
ff506954:	64                   	fs
ff506955:	61                   	popa   
ff506956:	74 61                	je     ff5069b9 <__func__.2149+0x124>
ff506958:	0a 00                	or     (%eax),%al
ff50695a:	00 00                	add    %al,(%eax)
ff50695c:	46                   	inc    %esi
ff50695d:	61                   	popa   
ff50695e:	69 6c 65 64 20 74 6f 	imul   $0x206f7420,0x64(%ebp,%eiz,2),%ebp
ff506965:	20 
ff506966:	69 6e 69 74 69 61 6c 	imul   $0x6c616974,0x69(%esi),%ebp
ff50696d:	69 7a 65 20 69 6e 69 	imul   $0x696e6920,0x65(%edx),%edi
ff506974:	74 69                	je     ff5069df <__func__.2149+0x14a>
ff506976:	61                   	popa   
ff506977:	6c                   	insb   (%dx),%es:(%edi)
ff506978:	20 73 65             	and    %dh,0x65(%ebx)
ff50697b:	72 76                	jb     ff5069f3 <__func__.2149+0x15e>
ff50697d:	65                   	gs
ff50697e:	72 2e                	jb     ff5069ae <__func__.2149+0x119>
ff506980:	0a 00                	or     (%eax),%al
ff506982:	69 6e 69 74 73 72 76 	imul   $0x76727374,0x69(%esi),%ebp
ff506989:	00 00                	add    %al,(%eax)
ff50698b:	00 55 6e             	add    %dl,0x6e(%ebp)
ff50698e:	61                   	popa   
ff50698f:	62 6c 65 20          	bound  %ebp,0x20(%ebp,%eiz,2)
ff506993:	74 6f                	je     ff506a04 <__func__.2149+0x16f>
ff506995:	20 6c 6f 61          	and    %ch,0x61(%edi,%ebp,2)
ff506999:	64 20 69 6e          	and    %ch,%fs:0x6e(%ecx)
ff50699d:	69 74 69 61 6c 20 73 	imul   $0x6573206c,0x61(%ecx,%ebp,2),%esi
ff5069a4:	65 
ff5069a5:	72 76                	jb     ff506a1d <__func__.2149+0x188>
ff5069a7:	65                   	gs
ff5069a8:	72 2e                	jb     ff5069d8 <__func__.2149+0x143>
ff5069aa:	0a 00                	or     (%eax),%al
ff5069ac:	4d                   	dec    %ebp
ff5069ad:	65                   	gs
ff5069ae:	6d                   	insl   (%dx),%es:(%edi)
ff5069af:	20 75 70             	and    %dh,0x70(%ebp)
ff5069b2:	70 65                	jo     ff506a19 <__func__.2149+0x184>
ff5069b4:	72 2f                	jb     ff5069e5 <__func__.2149+0x150>
ff5069b6:	6c                   	insb   (%dx),%es:(%edi)
ff5069b7:	6f                   	outsl  %ds:(%esi),(%dx)
ff5069b8:	77 65                	ja     ff506a1f <__func__.2149+0x18a>
ff5069ba:	72 20                	jb     ff5069dc <__func__.2149+0x147>
ff5069bc:	73 75                	jae    ff506a33 <__func__.2149+0x19e>
ff5069be:	70 70                	jo     ff506a30 <__func__.2149+0x19b>
ff5069c0:	6f                   	outsl  %ds:(%esi),(%dx)
ff5069c1:	72 74                	jb     ff506a37 <__func__.2149+0x1a2>
ff5069c3:	65 64 2e 0a 00       	or     %cs:%fs:%gs:(%eax),%al
ff5069c8:	42                   	inc    %edx
ff5069c9:	6f                   	outsl  %ds:(%esi),(%dx)
ff5069ca:	6f                   	outsl  %ds:(%esi),(%dx)
ff5069cb:	74 20                	je     ff5069ed <__func__.2149+0x158>
ff5069cd:	64                   	fs
ff5069ce:	65                   	gs
ff5069cf:	76 69                	jbe    ff506a3a <__func__.2149+0x1a5>
ff5069d1:	63 65 20             	arpl   %sp,0x20(%ebp)
ff5069d4:	73 75                	jae    ff506a4b <__func__.2149+0x1b6>
ff5069d6:	70 70                	jo     ff506a48 <__func__.2149+0x1b3>
ff5069d8:	6f                   	outsl  %ds:(%esi),(%dx)
ff5069d9:	72 74                	jb     ff506a4f <__func__.2149+0x1ba>
ff5069db:	65 64 2e 0a 00       	or     %cs:%fs:%gs:(%eax),%al
ff5069e0:	43                   	inc    %ebx
ff5069e1:	6f                   	outsl  %ds:(%esi),(%dx)
ff5069e2:	6d                   	insl   (%dx),%es:(%edi)
ff5069e3:	6d                   	insl   (%dx),%es:(%edi)
ff5069e4:	61                   	popa   
ff5069e5:	6e                   	outsb  %ds:(%esi),(%dx)
ff5069e6:	64 20 6c 69 6e       	and    %ch,%fs:0x6e(%ecx,%ebp,2)
ff5069eb:	65 20 73 75          	and    %dh,%gs:0x75(%ebx)
ff5069ef:	70 70                	jo     ff506a61 <__func__.2149+0x1cc>
ff5069f1:	6f                   	outsl  %ds:(%esi),(%dx)
ff5069f2:	72 74                	jb     ff506a68 <__func__.2149+0x1d3>
ff5069f4:	65 64 2e 0a 00       	or     %cs:%fs:%gs:(%eax),%al
ff5069f9:	4d                   	dec    %ebp
ff5069fa:	6f                   	outsl  %ds:(%esi),(%dx)
ff5069fb:	64                   	fs
ff5069fc:	75 6c                	jne    ff506a6a <__func__.2149+0x1d5>
ff5069fe:	65                   	gs
ff5069ff:	73 20                	jae    ff506a21 <__func__.2149+0x18c>
ff506a01:	73 75                	jae    ff506a78 <__func__.2149+0x1e3>
ff506a03:	70 70                	jo     ff506a75 <__func__.2149+0x1e0>
ff506a05:	6f                   	outsl  %ds:(%esi),(%dx)
ff506a06:	72 74                	jb     ff506a7c <__func__.2149+0x1e7>
ff506a08:	65 64 2e 0a 00       	or     %cs:%fs:%gs:(%eax),%al
ff506a0d:	53                   	push   %ebx
ff506a0e:	79 6d                	jns    ff506a7d <__func__.2149+0x1e8>
ff506a10:	62 6f 6c             	bound  %ebp,0x6c(%edi)
ff506a13:	20 74 61 62          	and    %dh,0x62(%ecx,%eiz,2)
ff506a17:	6c                   	insb   (%dx),%es:(%edi)
ff506a18:	65 20 73 75          	and    %dh,%gs:0x75(%ebx)
ff506a1c:	70 70                	jo     ff506a8e <__func__.2149+0x1f9>
ff506a1e:	6f                   	outsl  %ds:(%esi),(%dx)
ff506a1f:	72 74                	jb     ff506a95 <__func__.2149+0x200>
ff506a21:	65 64 2e 0a 00       	or     %cs:%fs:%gs:(%eax),%al
ff506a26:	4d                   	dec    %ebp
ff506a27:	65                   	gs
ff506a28:	6d                   	insl   (%dx),%es:(%edi)
ff506a29:	6f                   	outsl  %ds:(%esi),(%dx)
ff506a2a:	72 79                	jb     ff506aa5 <__func__.2149+0x210>
ff506a2c:	20 6d 61             	and    %ch,0x61(%ebp)
ff506a2f:	70 20                	jo     ff506a51 <__func__.2149+0x1bc>
ff506a31:	73 75                	jae    ff506aa8 <__func__.2149+0x213>
ff506a33:	70 70                	jo     ff506aa5 <__func__.2149+0x210>
ff506a35:	6f                   	outsl  %ds:(%esi),(%dx)
ff506a36:	72 74                	jb     ff506aac <__func__.2149+0x217>
ff506a38:	65 64 2e 0a 00       	or     %cs:%fs:%gs:(%eax),%al
ff506a3d:	44                   	inc    %esp
ff506a3e:	72 69                	jb     ff506aa9 <__func__.2149+0x214>
ff506a40:	76 65                	jbe    ff506aa7 <__func__.2149+0x212>
ff506a42:	20 69 6e             	and    %ch,0x6e(%ecx)
ff506a45:	66 6f                	outsw  %ds:(%esi),(%dx)
ff506a47:	20 73 75             	and    %dh,0x75(%ebx)
ff506a4a:	70 70                	jo     ff506abc <__func__.2149+0x227>
ff506a4c:	6f                   	outsl  %ds:(%esi),(%dx)
ff506a4d:	72 74                	jb     ff506ac3 <__func__.2149+0x22e>
ff506a4f:	65 64 2e 0a 00       	or     %cs:%fs:%gs:(%eax),%al
ff506a54:	43                   	inc    %ebx
ff506a55:	6f                   	outsl  %ds:(%esi),(%dx)
ff506a56:	6e                   	outsb  %ds:(%esi),(%dx)
ff506a57:	66 69 67 20 74 61    	imul   $0x6174,0x20(%edi),%sp
ff506a5d:	62 6c 65 20          	bound  %ebp,0x20(%ebp,%eiz,2)
ff506a61:	73 75                	jae    ff506ad8 <__func__.2149+0x243>
ff506a63:	70 70                	jo     ff506ad5 <__func__.2149+0x240>
ff506a65:	6f                   	outsl  %ds:(%esi),(%dx)
ff506a66:	72 74                	jb     ff506adc <__func__.2149+0x247>
ff506a68:	65 64 2e 0a 00       	or     %cs:%fs:%gs:(%eax),%al
ff506a6d:	42                   	inc    %edx
ff506a6e:	6f                   	outsl  %ds:(%esi),(%dx)
ff506a6f:	6f                   	outsl  %ds:(%esi),(%dx)
ff506a70:	74 20                	je     ff506a92 <__func__.2149+0x1fd>
ff506a72:	6c                   	insb   (%dx),%es:(%edi)
ff506a73:	6f                   	outsl  %ds:(%esi),(%dx)
ff506a74:	61                   	popa   
ff506a75:	64                   	fs
ff506a76:	65                   	gs
ff506a77:	72 20                	jb     ff506a99 <__func__.2149+0x204>
ff506a79:	6e                   	outsb  %ds:(%esi),(%dx)
ff506a7a:	61                   	popa   
ff506a7b:	6d                   	insl   (%dx),%es:(%edi)
ff506a7c:	65 20 73 75          	and    %dh,%gs:0x75(%ebx)
ff506a80:	70 70                	jo     ff506af2 <__func__.2382+0x3>
ff506a82:	6f                   	outsl  %ds:(%esi),(%dx)
ff506a83:	72 74                	jb     ff506af9 <__func__.2382+0xa>
ff506a85:	65 64 2e 0a 00       	or     %cs:%fs:%gs:(%eax),%al
ff506a8a:	41                   	inc    %ecx
ff506a8b:	50                   	push   %eax
ff506a8c:	4d                   	dec    %ebp
ff506a8d:	20 74 61 62          	and    %dh,0x62(%ecx,%eiz,2)
ff506a91:	6c                   	insb   (%dx),%es:(%edi)
ff506a92:	65 20 73 75          	and    %dh,%gs:0x75(%ebx)
ff506a96:	70 70                	jo     ff506b08 <__func__.2382+0x19>
ff506a98:	6f                   	outsl  %ds:(%esi),(%dx)
ff506a99:	72 74                	jb     ff506b0f <__func__.2382+0x20>
ff506a9b:	65 64 2e 0a 00       	or     %cs:%fs:%gs:(%eax),%al
ff506aa0:	56                   	push   %esi
ff506aa1:	42                   	inc    %edx
ff506aa2:	45                   	inc    %ebp
ff506aa3:	20 73 75             	and    %dh,0x75(%ebx)
ff506aa6:	70 70                	jo     ff506b18 <__func__.2382+0x29>
ff506aa8:	6f                   	outsl  %ds:(%esi),(%dx)
ff506aa9:	72 74                	jb     ff506b1f <__func__.2382+0x30>
ff506aab:	65 64 2e 0a 00       	or     %cs:%fs:%gs:(%eax),%al
ff506ab0:	49                   	dec    %ecx
ff506ab1:	41                   	inc    %ecx
ff506ab2:	2d 36 34 0a 00       	sub    $0xa3436,%eax
ff506ab7:	4d                   	dec    %ebp
ff506ab8:	4d                   	dec    %ebp
ff506ab9:	58                   	pop    %eax
ff506aba:	0a 00                	or     (%eax),%al
ff506abc:	50                   	push   %eax
ff506abd:	53                   	push   %ebx
ff506abe:	45                   	inc    %ebp
ff506abf:	33 36                	xor    (%esi),%esi
ff506ac1:	0a 00                	or     (%eax),%al
ff506ac3:	50                   	push   %eax
ff506ac4:	47                   	inc    %edi
ff506ac5:	45                   	inc    %ebp
ff506ac6:	0a 00                	or     (%eax),%al
ff506ac8:	53                   	push   %ebx
ff506ac9:	53                   	push   %ebx
ff506aca:	45                   	inc    %ebp
ff506acb:	0a 00                	or     (%eax),%al
ff506acd:	53                   	push   %ebx
ff506ace:	53                   	push   %ebx
ff506acf:	45                   	inc    %ebp
ff506ad0:	32 0a                	xor    (%edx),%cl
ff506ad2:	00 73 79             	add    %dh,0x79(%ebx)
ff506ad5:	73 65                	jae    ff506b3c <__func__.2382+0x4d>
ff506ad7:	6e                   	outsb  %ds:(%esi),(%dx)
ff506ad8:	74 65                	je     ff506b3f <__func__.2382+0x50>
ff506ada:	72 2f                	jb     ff506b0b <__func__.2382+0x1c>
ff506adc:	73 79                	jae    ff506b57 <__func__.2382+0x68>
ff506ade:	73 65                	jae    ff506b45 <__func__.2382+0x56>
ff506ae0:	78 69                	js     ff506b4b <__func__.2382+0x5c>
ff506ae2:	74 0a                	je     ff506aee <__func__.2149+0x259>
ff506ae4:	00 4d 53             	add    %cl,0x53(%ebp)
ff506ae7:	52                   	push   %edx
ff506ae8:	0a 00                	or     (%eax),%al
ff506aea:	50                   	push   %eax
ff506aeb:	53                   	push   %ebx
ff506aec:	45                   	inc    %ebp
ff506aed:	0a 00                	or     (%eax),%al

ff506aef <__func__.2382>:
ff506aef:	69 6e 69 74 00 42 6f 	imul   $0x6f420074,0x69(%esi),%ebp
ff506af6:	6f                   	outsl  %ds:(%esi),(%dx)
ff506af7:	74 20                	je     ff506b19 <__func__.2382+0x2a>
ff506af9:	69 6e 66 6f 20 73 74 	imul   $0x7473206f,0x66(%esi),%ebp
ff506b00:	72 75                	jb     ff506b77 <__func__.2382+0x88>
ff506b02:	63 74 3a 20          	arpl   %si,0x20(%edx,%edi,1)
ff506b06:	30 78 25             	xor    %bh,0x25(%eax)
ff506b09:	78 0a                	js     ff506b15 <__func__.2382+0x26>
ff506b0b:	4d                   	dec    %ebp
ff506b0c:	6f                   	outsl  %ds:(%esi),(%dx)
ff506b0d:	64                   	fs
ff506b0e:	75 6c                	jne    ff506b7c <__func__.2382+0x8d>
ff506b10:	65                   	gs
ff506b11:	73 20                	jae    ff506b33 <__func__.2382+0x44>
ff506b13:	6c                   	insb   (%dx),%es:(%edi)
ff506b14:	6f                   	outsl  %ds:(%esi),(%dx)
ff506b15:	63 61 74             	arpl   %sp,0x74(%ecx)
ff506b18:	65 64 20 61 74       	and    %ah,%fs:%gs:0x74(%ecx)
ff506b1d:	20 30                	and    %dh,(%eax)
ff506b1f:	78 25                	js     ff506b46 <__func__.2382+0x57>
ff506b21:	78 2e                	js     ff506b51 <__func__.2382+0x62>
ff506b23:	20 25 64 20 6d 6f    	and    %ah,0x6f6d2064
ff506b29:	64                   	fs
ff506b2a:	75 6c                	jne    ff506b98 <__func__.2382+0xa9>
ff506b2c:	65                   	gs
ff506b2d:	73 0a                	jae    ff506b39 <__func__.2382+0x4a>
ff506b2f:	00 54 6f 6f          	add    %dl,0x6f(%edi,%ebp,2)
ff506b33:	20 6d 61             	and    %ch,0x61(%ebp)
ff506b36:	6e                   	outsb  %ds:(%esi),(%dx)
ff506b37:	79 20                	jns    ff506b59 <__func__.2382+0x6a>
ff506b39:	6d                   	insl   (%dx),%es:(%edi)
ff506b3a:	6f                   	outsl  %ds:(%esi),(%dx)
ff506b3b:	64                   	fs
ff506b3c:	75 6c                	jne    ff506baa <__func__.2382+0xbb>
ff506b3e:	65                   	gs
ff506b3f:	73 2e                	jae    ff506b6f <__func__.2382+0x80>
ff506b41:	0a 00                	or     (%eax),%al
ff506b43:	00 4d 61             	add    %cl,0x61(%ebp)
ff506b46:	78 20                	js     ff506b68 <__func__.2382+0x79>
ff506b48:	76 61                	jbe    ff506bab <__func__.2382+0xbc>
ff506b4a:	6c                   	insb   (%dx),%es:(%edi)
ff506b4b:	75 65                	jne    ff506bb2 <__func__.2382+0xc3>
ff506b4d:	73 3a                	jae    ff506b89 <__func__.2382+0x9a>
ff506b4f:	20 25 64 20 74 68    	and    %ah,0x68742064
ff506b55:	72 65                	jb     ff506bbc <__func__.2382+0xcd>
ff506b57:	61                   	popa   
ff506b58:	64                   	fs
ff506b59:	73 2e                	jae    ff506b89 <__func__.2382+0x9a>
ff506b5b:	20 25 64 20 72 75    	and    %ah,0x75722064
ff506b61:	6e                   	outsb  %ds:(%esi),(%dx)
ff506b62:	20 71 75             	and    %dh,0x75(%ecx)
ff506b65:	65                   	gs
ff506b66:	75 65                	jne    ff506bcd <__func__.2382+0xde>
ff506b68:	73 2e                	jae    ff506b98 <__func__.2382+0xa9>
ff506b6a:	0a 00                	or     (%eax),%al
ff506b6c:	4e                   	dec    %esi
ff506b6d:	6f                   	outsl  %ds:(%esi),(%dx)
ff506b6e:	74 20                	je     ff506b90 <__func__.2382+0xa1>
ff506b70:	65 6e                	outsb  %gs:(%esi),(%dx)
ff506b72:	6f                   	outsl  %ds:(%esi),(%dx)
ff506b73:	75 67                	jne    ff506bdc <__func__.2382+0xed>
ff506b75:	68 20 6d 65 6d       	push   $0x6d656d20
ff506b7a:	6f                   	outsl  %ds:(%esi),(%dx)
ff506b7b:	72 79                	jb     ff506bf6 <__func__.2382+0x107>
ff506b7d:	21 20                	and    %esp,(%eax)
ff506b7f:	41                   	inc    %ecx
ff506b80:	74 20                	je     ff506ba2 <__func__.2382+0xb3>
ff506b82:	6c                   	insb   (%dx),%es:(%edi)
ff506b83:	65                   	gs
ff506b84:	61                   	popa   
ff506b85:	73 74                	jae    ff506bfb <__func__.2382+0x10c>
ff506b87:	20 38                	and    %bh,(%eax)
ff506b89:	20 4d 69             	and    %cl,0x69(%ebp)
ff506b8c:	42                   	inc    %edx
ff506b8d:	20 69 73             	and    %ch,0x73(%ecx)
ff506b90:	20 6e 65             	and    %ch,0x65(%esi)
ff506b93:	65 64 65 64 00 42 61 	add    %al,%fs:%gs:0x61(%edx)
ff506b9a:	73 65                	jae    ff506c01 <__func__.2382+0x112>
ff506b9c:	20 6c 6f 77          	and    %ch,0x77(%edi,%ebp,2)
ff506ba0:	3a 20                	cmp    (%eax),%ah
ff506ba2:	30 78 25             	xor    %bh,0x25(%eax)
ff506ba5:	78 2e                	js     ff506bd5 <__func__.2382+0xe6>
ff506ba7:	20 4c 65 6e          	and    %cl,0x6e(%ebp,%eiz,2)
ff506bab:	67 74 68             	addr16 je ff506c16 <__func__.1540+0x5>
ff506bae:	3a 20                	cmp    (%eax),%ah
ff506bb0:	25 64 20 70 61       	and    $0x61702064,%eax
ff506bb5:	67                   	addr16
ff506bb6:	65                   	gs
ff506bb7:	73 0a                	jae    ff506bc3 <__func__.2382+0xd4>
ff506bb9:	00 00                	add    %al,(%eax)
ff506bbb:	00 46 61             	add    %al,0x61(%esi)
ff506bbe:	69 6c 65 64 20 74 6f 	imul   $0x206f7420,0x64(%ebp,%eiz,2),%ebp
ff506bc5:	20 
ff506bc6:	69 6e 69 74 69 61 6c 	imul   $0x6c616974,0x69(%esi),%ebp
ff506bcd:	69 7a 65 20 74 68 65 	imul   $0x65687420,0x65(%edx),%edi
ff506bd4:	20 69 64             	and    %ch,0x64(%ecx)
ff506bd7:	6c                   	insb   (%dx),%es:(%edi)
ff506bd8:	65 20 74 68 72       	and    %dh,%gs:0x72(%eax,%ebp,2)
ff506bdd:	65                   	gs
ff506bde:	61                   	popa   
ff506bdf:	64 00 53 74          	add    %dl,%fs:0x74(%ebx)
ff506be3:	61                   	popa   
ff506be4:	63 6b 3a             	arpl   %bp,0x3a(%ebx)
ff506be7:	20 30                	and    %dh,(%eax)
ff506be9:	78 25                	js     ff506c10 <__func__.2382+0x121>
ff506beb:	78 0a                	js     ff506bf7 <__func__.2382+0x108>
ff506bed:	00 00                	add    %al,(%eax)
ff506bef:	00 55 6e             	add    %dl,0x6e(%ebp)
ff506bf2:	61                   	popa   
ff506bf3:	62 6c 65 20          	bound  %ebp,0x20(%ebp,%eiz,2)
ff506bf7:	74 6f                	je     ff506c68 <__func__.1540+0x57>
ff506bf9:	20 73 74             	and    %dh,0x74(%ebx)
ff506bfc:	61                   	popa   
ff506bfd:	72 74                	jb     ff506c73 <__func__.1540+0x62>
ff506bff:	20 6f 70             	and    %ch,0x70(%edi)
ff506c02:	65                   	gs
ff506c03:	72 61                	jb     ff506c66 <__func__.1540+0x55>
ff506c05:	74 69                	je     ff506c70 <__func__.1540+0x5f>
ff506c07:	6e                   	outsb  %ds:(%esi),(%dx)
ff506c08:	67 20 73 79          	addr16 and %dh,0x79(%bp,%di)
ff506c0c:	73 74                	jae    ff506c82 <__func__.1540+0x71>
ff506c0e:	65                   	gs
ff506c0f:	6d                   	insl   (%dx),%es:(%edi)
	...

ff506c11 <__func__.1540>:
ff506c11:	73 65                	jae    ff506c78 <__func__.1540+0x67>
ff506c13:	6e                   	outsb  %ds:(%esi),(%dx)
ff506c14:	64                   	fs
ff506c15:	4d                   	dec    %ebp
ff506c16:	65                   	gs
ff506c17:	73 73                	jae    ff506c8c <__func__.1540+0x7b>
ff506c19:	61                   	popa   
ff506c1a:	67 65 00 6d 65       	addr16 add %ch,%gs:0x65(%di)
ff506c1f:	73 73                	jae    ff506c94 <__func__.1540+0x83>
ff506c21:	61                   	popa   
ff506c22:	67 65 2e 63 00       	addr16 arpl %ax,%cs:%gs:(%bx,%si)
ff506c27:	74 63                	je     ff506c8c <__func__.1540+0x7b>
ff506c29:	62 20                	bound  %esp,(%eax)
ff506c2b:	21 3d 20 4e 55 4c    	and    %edi,0x4c554e20
ff506c31:	4c                   	dec    %esp
ff506c32:	00 74 63 62          	add    %dh,0x62(%ebx,%eiz,2)
ff506c36:	2d 3e 73 74 61       	sub    $0x6174733e,%eax
ff506c3b:	74 65                	je     ff506ca2 <__func__.1540+0x91>
ff506c3d:	20 3d 3d 20 52 55    	and    %bh,0x5552203d
ff506c43:	4e                   	dec    %esi
ff506c44:	4e                   	dec    %esi
ff506c45:	49                   	dec    %ecx
ff506c46:	4e                   	dec    %esi
ff506c47:	47                   	inc    %edi
ff506c48:	00 72 65             	add    %dh,0x65(%edx)
ff506c4b:	63 69 70             	arpl   %bp,0x70(%ecx)
ff506c4e:	69 65 6e 74 20 21 3d 	imul   $0x3d212074,0x6e(%ebp),%esp
ff506c55:	20 4e 55             	and    %cl,0x55(%esi)
ff506c58:	4c                   	dec    %esp
ff506c59:	4c                   	dec    %esp
ff506c5a:	5f                   	pop    %edi
ff506c5b:	54                   	push   %esp
ff506c5c:	49                   	dec    %ecx
ff506c5d:	44                   	inc    %esp
ff506c5e:	00 47 45             	add    %al,0x45(%edi)
ff506c61:	54                   	push   %esp
ff506c62:	5f                   	pop    %edi
ff506c63:	54                   	push   %esp
ff506c64:	49                   	dec    %ecx
ff506c65:	44                   	inc    %esp
ff506c66:	28 74 63 62          	sub    %dh,0x62(%ebx,%eiz,2)
ff506c6a:	29 20                	sub    %esp,(%eax)
ff506c6c:	21 3d 20 4e 55 4c    	and    %edi,0x4c554e20
ff506c72:	4c                   	dec    %esp
ff506c73:	5f                   	pop    %edi
ff506c74:	54                   	push   %esp
ff506c75:	49                   	dec    %ecx
ff506c76:	44                   	inc    %esp
ff506c77:	00 6d 73             	add    %ch,0x73(%ebp)
ff506c7a:	67 20 21             	addr16 and %ah,(%bx,%di)
ff506c7d:	3d 20 4e 55 4c       	cmp    $0x4c554e20,%eax
ff506c82:	4c                   	dec    %esp
ff506c83:	00 4e 55             	add    %cl,0x55(%esi)
ff506c86:	4c                   	dec    %esp
ff506c87:	4c                   	dec    %esp
ff506c88:	20 72 65             	and    %dh,0x65(%edx)
ff506c8b:	63 69 70             	arpl   %bp,0x70(%ecx)
ff506c8e:	69 65 6e 74 20 6f 66 	imul   $0x666f2074,0x6e(%ebp),%esp
ff506c95:	20 6d 65             	and    %ch,0x65(%ebp)
ff506c98:	73 73                	jae    ff506d0d <__func__.1472+0x29>
ff506c9a:	61                   	popa   
ff506c9b:	67 65 0a 00          	addr16 or %gs:(%bx,%si),%al
ff506c9f:	46                   	inc    %esi
ff506ca0:	61                   	popa   
ff506ca1:	69 6c 65 64 20 74 6f 	imul   $0x206f7420,0x64(%ebp,%eiz,2),%ebp
ff506ca8:	20 
ff506ca9:	70 6f                	jo     ff506d1a <__func__.1472+0x36>
ff506cab:	6b 65 0a 00          	imul   $0x0,0xa(%ebp),%esp

ff506caf <__func__.1649>:
ff506caf:	72 65                	jb     ff506d16 <__func__.1472+0x32>
ff506cb1:	63 65 69             	arpl   %sp,0x69(%ebp)
ff506cb4:	76 65                	jbe    ff506d1b <__func__.1472+0x37>
ff506cb6:	4d                   	dec    %ebp
ff506cb7:	65                   	gs
ff506cb8:	73 73                	jae    ff506d2d <__func__.1472+0x49>
ff506cba:	61                   	popa   
ff506cbb:	67 65 00 46 61       	addr16 add %al,%gs:0x61(%bp)
ff506cc0:	69 6c 65 64 20 74 6f 	imul   $0x206f7420,0x64(%ebp,%eiz,2),%ebp
ff506cc7:	20 
ff506cc8:	70 65                	jo     ff506d2f <__func__.1472+0x4b>
ff506cca:	65 6b 0a 00          	imul   $0x0,%gs:(%edx),%ecx
ff506cce:	53                   	push   %ebx
ff506ccf:	6f                   	outsl  %ds:(%esi),(%dx)
ff506cd0:	6d                   	insl   (%dx),%es:(%edi)
ff506cd1:	65                   	gs
ff506cd2:	74 68                	je     ff506d3c <__func__.1504+0x2>
ff506cd4:	69 6e 67 20 77 65 6e 	imul   $0x6e657720,0x67(%esi),%ebp
ff506cdb:	74 20                	je     ff506cfd <__func__.1472+0x19>
ff506cdd:	77 72                	ja     ff506d51 <__func__.1504+0x17>
ff506cdf:	6f                   	outsl  %ds:(%esi),(%dx)
ff506ce0:	6e                   	outsb  %ds:(%esi),(%dx)
ff506ce1:	67 0a 00             	addr16 or (%bx,%si),%al

ff506ce4 <__func__.1472>:
ff506ce4:	5f                   	pop    %edi
ff506ce5:	77 72                	ja     ff506d59 <__func__.1504+0x1f>
ff506ce7:	69 74 65 50 44 45 00 	imul   $0x70004544,0x50(%ebp,%eiz,2),%esi
ff506cee:	70 
ff506cef:	61                   	popa   
ff506cf0:	67 69 6e 67 2e 63 00 	addr16 imul $0x6500632e,0x67(%bp),%ebp
ff506cf7:	65 
ff506cf8:	6e                   	outsb  %ds:(%esi),(%dx)
ff506cf9:	74 72                	je     ff506d6d <__func__.1555+0x3>
ff506cfb:	79 4e                	jns    ff506d4b <__func__.1504+0x11>
ff506cfd:	75 6d                	jne    ff506d6c <__func__.1555+0x2>
ff506cff:	20 3c 20             	and    %bh,(%eax,%eiz,1)
ff506d02:	31 30                	xor    %esi,(%eax)
ff506d04:	32 34 00             	xor    (%eax,%eax,1),%dh
ff506d07:	70 64                	jo     ff506d6d <__func__.1555+0x3>
ff506d09:	65 20 21             	and    %ah,%gs:(%ecx)
ff506d0c:	3d 20 4e 55 4c       	cmp    $0x4c554e20,%eax
ff506d11:	4c                   	dec    %esp
ff506d12:	00 00                	add    %al,(%eax)
ff506d14:	61                   	popa   
ff506d15:	64                   	fs
ff506d16:	64                   	fs
ff506d17:	72 53                	jb     ff506d6c <__func__.1555+0x2>
ff506d19:	70 61                	jo     ff506d7c <__func__.1555+0x12>
ff506d1b:	63 65 20             	arpl   %sp,0x20(%ebp)
ff506d1e:	21 3d 20 28 76 6f    	and    %edi,0x6f762820
ff506d24:	69 64 20 2a 29 4e 55 	imul   $0x4c554e29,0x2a(%eax,%eiz,1),%esp
ff506d2b:	4c 
ff506d2c:	4c                   	dec    %esp
ff506d2d:	5f                   	pop    %edi
ff506d2e:	50                   	push   %eax
ff506d2f:	41                   	inc    %ecx
ff506d30:	44                   	inc    %esp
ff506d31:	44                   	inc    %esp
ff506d32:	52                   	push   %edx
ff506d33:	00 66 61             	add    %ah,0x61(%esi)
ff506d36:	6c                   	insb   (%dx),%es:(%edi)
ff506d37:	73 65                	jae    ff506d9e <__func__.1580+0x16>
	...

ff506d3a <__func__.1504>:
ff506d3a:	77 72                	ja     ff506dae <__func__.1580+0x26>
ff506d3c:	69 74 65 50 44 45 00 	imul   $0x76004544,0x50(%ebp,%eiz,2),%esi
ff506d43:	76 
ff506d44:	69 72 74 20 21 3d 20 	imul   $0x203d2120,0x74(%edx),%esi
ff506d4b:	28 76 6f             	sub    %dh,0x6f(%esi)
ff506d4e:	69 64 20 2a 29 49 4e 	imul   $0x564e4929,0x2a(%eax,%eiz,1),%esp
ff506d55:	56 
ff506d56:	41                   	inc    %ecx
ff506d57:	4c                   	dec    %esp
ff506d58:	49                   	dec    %ecx
ff506d59:	44                   	inc    %esp
ff506d5a:	5f                   	pop    %edi
ff506d5b:	56                   	push   %esi
ff506d5c:	41                   	inc    %ecx
ff506d5d:	44                   	inc    %esp
ff506d5e:	44                   	inc    %esp
ff506d5f:	52                   	push   %edx
	...

ff506d61 <__func__.1523>:
ff506d61:	5f                   	pop    %edi
ff506d62:	72 65                	jb     ff506dc9 <__func__.1580+0x41>
ff506d64:	61                   	popa   
ff506d65:	64                   	fs
ff506d66:	50                   	push   %eax
ff506d67:	44                   	inc    %esp
ff506d68:	45                   	inc    %ebp
	...

ff506d6a <__func__.1555>:
ff506d6a:	72 65                	jb     ff506dd1 <__func__.1580+0x49>
ff506d6c:	61                   	popa   
ff506d6d:	64                   	fs
ff506d6e:	50                   	push   %eax
ff506d6f:	44                   	inc    %esp
ff506d70:	45                   	inc    %ebp
ff506d71:	00 67 65             	add    %ah,0x65(%edi)
ff506d74:	74 50                	je     ff506dc6 <__func__.1580+0x3e>
ff506d76:	44                   	inc    %esp
ff506d77:	45                   	inc    %ebp
ff506d78:	28 29                	sub    %ch,(%ecx)
ff506d7a:	3a 20                	cmp    (%eax),%ah
ff506d7c:	76 69                	jbe    ff506de7 <__func__.1625>
ff506d7e:	72 74                	jb     ff506df4 <__func__.1625+0xd>
ff506d80:	20 65 72             	and    %ah,0x72(%ebp)
ff506d83:	72 6f                	jb     ff506df4 <__func__.1625+0xd>
ff506d85:	72 20                	jb     ff506da7 <__func__.1580+0x1f>
	...

ff506d88 <__func__.1580>:
ff506d88:	72 65                	jb     ff506def <__func__.1625+0x8>
ff506d8a:	61                   	popa   
ff506d8b:	64                   	fs
ff506d8c:	50                   	push   %eax
ff506d8d:	54                   	push   %esp
ff506d8e:	45                   	inc    %ebp
ff506d8f:	00 76 69             	add    %dh,0x69(%esi)
ff506d92:	72 74                	jb     ff506e08 <__func__.1625+0x21>
ff506d94:	20 21                	and    %ah,(%ecx)
ff506d96:	3d 20 49 4e 56       	cmp    $0x564e4920,%eax
ff506d9b:	41                   	inc    %ecx
ff506d9c:	4c                   	dec    %esp
ff506d9d:	49                   	dec    %ecx
ff506d9e:	44                   	inc    %esp
ff506d9f:	5f                   	pop    %edi
ff506da0:	56                   	push   %esi
ff506da1:	41                   	inc    %ecx
ff506da2:	44                   	inc    %esp
ff506da3:	44                   	inc    %esp
ff506da4:	52                   	push   %edx
ff506da5:	00 70 74             	add    %dh,0x74(%eax)
ff506da8:	65 20 21             	and    %ah,%gs:(%ecx)
ff506dab:	3d 20 49 4e 56       	cmp    $0x564e4920,%eax
ff506db0:	41                   	inc    %ecx
ff506db1:	4c                   	dec    %esp
ff506db2:	49                   	dec    %ecx
ff506db3:	44                   	inc    %esp
ff506db4:	5f                   	pop    %edi
ff506db5:	56                   	push   %esi
ff506db6:	41                   	inc    %ecx
ff506db7:	44                   	inc    %esp
ff506db8:	44                   	inc    %esp
ff506db9:	52                   	push   %edx
ff506dba:	00 5f 72             	add    %bl,0x72(%edi)
ff506dbd:	65                   	gs
ff506dbe:	61                   	popa   
ff506dbf:	64                   	fs
ff506dc0:	50                   	push   %eax
ff506dc1:	44                   	inc    %esp
ff506dc2:	45                   	inc    %ebp
ff506dc3:	28 29                	sub    %ch,(%ecx)
ff506dc5:	20 66 61             	and    %ah,0x61(%esi)
ff506dc8:	69 6c 65 64 0a 00 45 	imul   $0x7245000a,0x64(%ebp,%eiz,2),%ebp
ff506dcf:	72 
ff506dd0:	72 6f                	jb     ff506e41 <__func__.1672+0x2b>
ff506dd2:	72 21                	jb     ff506df5 <__func__.1625+0xe>
ff506dd4:	20 2d 20 30 78 25    	and    %ch,0x25783020
ff506dda:	78 20                	js     ff506dfc <__func__.1625+0x15>
ff506ddc:	30 78 25             	xor    %bh,0x25(%eax)
ff506ddf:	78 20                	js     ff506e01 <__func__.1625+0x1a>
ff506de1:	30 78 25             	xor    %bh,0x25(%eax)
ff506de4:	78 0a                	js     ff506df0 <__func__.1625+0x9>
	...

ff506de7 <__func__.1625>:
ff506de7:	77 72                	ja     ff506e5b <__func__.1740+0x14>
ff506de9:	69 74 65 50 54 45 00 	imul   $0x56004554,0x50(%ebp,%eiz,2),%esi
ff506df0:	56 
ff506df1:	69 72 74 3a 20 30 78 	imul   $0x7830203a,0x74(%edx),%esi
ff506df8:	25 78 20 50 54       	and    $0x54502078,%eax
ff506dfd:	45                   	inc    %ebp
ff506dfe:	3a 20                	cmp    (%eax),%ah
ff506e00:	30 78 25             	xor    %bh,0x25(%eax)
ff506e03:	78 20                	js     ff506e25 <__func__.1672+0xf>
ff506e05:	41                   	inc    %ecx
ff506e06:	64                   	fs
ff506e07:	64                   	fs
ff506e08:	72 53                	jb     ff506e5d <__func__.1740+0x16>
ff506e0a:	70 61                	jo     ff506e6d <__func__.1740+0x26>
ff506e0c:	63 65 3a             	arpl   %sp,0x3a(%ebp)
ff506e0f:	20 30                	and    %dh,(%eax)
ff506e11:	78 25                	js     ff506e38 <__func__.1672+0x22>
ff506e13:	78 0a                	js     ff506e1f <__func__.1672+0x9>
	...

ff506e16 <__func__.1672>:
ff506e16:	61                   	popa   
ff506e17:	63 63 65             	arpl   %sp,0x65(%ebx)
ff506e1a:	73 73                	jae    ff506e8f <__func__.1740+0x48>
ff506e1c:	4d                   	dec    %ebp
ff506e1d:	65                   	gs
ff506e1e:	6d                   	insl   (%dx),%es:(%edi)
ff506e1f:	00 61 64             	add    %ah,0x64(%ecx)
ff506e22:	64                   	fs
ff506e23:	72 53                	jb     ff506e78 <__func__.1740+0x31>
ff506e25:	70 61                	jo     ff506e88 <__func__.1740+0x41>
ff506e27:	63 65 20             	arpl   %sp,0x20(%ebp)
ff506e2a:	21 3d 20 4e 55 4c    	and    %edi,0x4c554e20
ff506e30:	4c                   	dec    %esp
ff506e31:	5f                   	pop    %edi
ff506e32:	50                   	push   %eax
ff506e33:	41                   	inc    %ecx
ff506e34:	44                   	inc    %esp
ff506e35:	44                   	inc    %esp
ff506e36:	52                   	push   %edx
ff506e37:	00 62 75             	add    %ah,0x75(%edx)
ff506e3a:	66                   	data16
ff506e3b:	66                   	data16
ff506e3c:	65                   	gs
ff506e3d:	72 20                	jb     ff506e5f <__func__.1740+0x18>
ff506e3f:	21 3d 20 4e 55 4c    	and    %edi,0x4c554e20
ff506e45:	4c                   	dec    %esp
	...

ff506e47 <__func__.1740>:
ff506e47:	6d                   	insl   (%dx),%es:(%edi)
ff506e48:	61                   	popa   
ff506e49:	70 50                	jo     ff506e9b <__func__.1740+0x54>
ff506e4b:	61                   	popa   
ff506e4c:	67                   	addr16
ff506e4d:	65                   	gs
ff506e4e:	54                   	push   %esp
ff506e4f:	61                   	popa   
ff506e50:	62 6c 65 00          	bound  %ebp,0x0(%ebp,%eiz,2)
ff506e54:	70 68                	jo     ff506ebe <__func__.1779>
ff506e56:	79 73                	jns    ff506ecb <__func__.1779+0xd>
ff506e58:	20 21                	and    %ah,(%ecx)
ff506e5a:	3d 20 28 76 6f       	cmp    $0x6f762820,%eax
ff506e5f:	69 64 20 2a 29 4e 55 	imul   $0x4c554e29,0x2a(%eax,%eiz,1),%esp
ff506e66:	4c 
ff506e67:	4c                   	dec    %esp
ff506e68:	5f                   	pop    %edi
ff506e69:	50                   	push   %eax
ff506e6a:	41                   	inc    %ecx
ff506e6b:	44                   	inc    %esp
ff506e6c:	44                   	inc    %esp
ff506e6d:	52                   	push   %edx
ff506e6e:	00 4e 55             	add    %cl,0x55(%esi)
ff506e71:	4c                   	dec    %esp
ff506e72:	4c                   	dec    %esp
ff506e73:	20 70 74             	and    %dh,0x74(%eax)
ff506e76:	72 00                	jb     ff506e78 <__func__.1740+0x31>
ff506e78:	3c 27                	cmp    $0x27,%al
ff506e7a:	25 73 27 20 25       	and    $0x25202773,%eax
ff506e7f:	73 3a                	jae    ff506ebb <__func__.1740+0x74>
ff506e81:	20 25 64 3e 20 52    	and    %ah,0x52203e64
ff506e87:	65                   	gs
ff506e88:	74 3a                	je     ff506ec4 <__func__.1779+0x6>
ff506e8a:	20 25 64 2e 20 25    	and    %ah,0x25202e64
ff506e90:	73 0a                	jae    ff506e9c <__func__.1740+0x55>
ff506e92:	00 00                	add    %al,(%eax)
ff506e94:	41                   	inc    %ecx
ff506e95:	6c                   	insb   (%dx),%es:(%edi)
ff506e96:	72 65                	jb     ff506efd <__func__.1779+0x3f>
ff506e98:	61                   	popa   
ff506e99:	64                   	fs
ff506e9a:	79 20                	jns    ff506ebc <__func__.1740+0x75>
ff506e9c:	6d                   	insl   (%dx),%es:(%edi)
ff506e9d:	61                   	popa   
ff506e9e:	70 70                	jo     ff506f10 <__func__.1825+0x10>
ff506ea0:	65 64 20 30          	and    %dh,%fs:%gs:(%eax)
ff506ea4:	78 25                	js     ff506ecb <__func__.1779+0xd>
ff506ea6:	78 20                	js     ff506ec8 <__func__.1779+0xa>
ff506ea8:	69 6e 20 61 64 64 72 	imul   $0x72646461,0x20(%esi),%ebp
ff506eaf:	65                   	gs
ff506eb0:	73 73                	jae    ff506f25 <__func__.1825+0x25>
ff506eb2:	20 73 70             	and    %dh,0x70(%ebx)
ff506eb5:	61                   	popa   
ff506eb6:	63 65 20             	arpl   %sp,0x20(%ebp)
ff506eb9:	30 78 25             	xor    %bh,0x25(%eax)
ff506ebc:	78 00                	js     ff506ebe <__func__.1779>

ff506ebe <__func__.1779>:
ff506ebe:	6b 4d 61 70          	imul   $0x70,0x61(%ebp),%ecx
ff506ec2:	50                   	push   %eax
ff506ec3:	61                   	popa   
ff506ec4:	67 65 00 70 68       	addr16 add %dh,%gs:0x68(%bx,%si)
ff506ec9:	79 73                	jns    ff506f3e <__func__.1825+0x3e>
ff506ecb:	3a 20                	cmp    (%eax),%ah
ff506ecd:	30 78 25             	xor    %bh,0x25(%eax)
ff506ed0:	78 0a                	js     ff506edc <__func__.1779+0x1e>
ff506ed2:	00 00                	add    %al,(%eax)
ff506ed4:	28 75 33             	sub    %dh,0x33(%ebp)
ff506ed7:	32 29                	xor    (%ecx),%ch
ff506ed9:	70 68                	jo     ff506f43 <__func__.1825+0x43>
ff506edb:	79 73                	jns    ff506f50 <__func__.1891+0x7>
ff506edd:	20 3d 3d 20 28 28    	and    %bh,0x2828203d
ff506ee3:	75 33                	jne    ff506f18 <__func__.1825+0x18>
ff506ee5:	32 29                	xor    (%ecx),%ch
ff506ee7:	70 68                	jo     ff506f51 <__func__.1891+0x8>
ff506ee9:	79 73                	jns    ff506f5e <__func__.1891+0x15>
ff506eeb:	20 26                	and    %ah,(%esi)
ff506eed:	20 7e 30             	and    %bh,0x30(%esi)
ff506ef0:	78 46                	js     ff506f38 <__func__.1825+0x38>
ff506ef2:	46                   	inc    %esi
ff506ef3:	46                   	inc    %esi
ff506ef4:	29 00                	sub    %eax,(%eax)
ff506ef6:	25 78 20 2d 3e       	and    $0x3e2d2078,%eax
ff506efb:	20 25 78 0a 00 6d    	and    %ah,0x6d000a78

ff506f00 <__func__.1825>:
ff506f00:	6d                   	insl   (%dx),%es:(%edi)
ff506f01:	61                   	popa   
ff506f02:	70 50                	jo     ff506f54 <__func__.1891+0xb>
ff506f04:	61                   	popa   
ff506f05:	67 65 00 76 69       	addr16 add %dh,%gs:0x69(%bp)
ff506f0a:	72 74                	jb     ff506f80 <__func__.1930+0x9>
ff506f0c:	3a 20                	cmp    (%eax),%ah
ff506f0e:	30 78 25             	xor    %bh,0x25(%eax)
ff506f11:	78 20                	js     ff506f33 <__func__.1825+0x33>
ff506f13:	70 68                	jo     ff506f7d <__func__.1930+0x6>
ff506f15:	79 73                	jns    ff506f8a <__func__.1930+0x13>
ff506f17:	20 30                	and    %dh,(%eax)
ff506f19:	78 25                	js     ff506f40 <__func__.1825+0x40>
ff506f1b:	78 0a                	js     ff506f27 <__func__.1825+0x27>
ff506f1d:	00 6d 61             	add    %ch,0x61(%ebp)
ff506f20:	70 50                	jo     ff506f72 <__func__.1891+0x29>
ff506f22:	61                   	popa   
ff506f23:	67 65 28 29          	addr16 sub %ch,%gs:(%bx,%di)
ff506f27:	3a 20                	cmp    (%eax),%ah
ff506f29:	45                   	inc    %ebp
ff506f2a:	72 72                	jb     ff506f9e <__func__.1930+0x27>
ff506f2c:	6f                   	outsl  %ds:(%esi),(%dx)
ff506f2d:	72 21                	jb     ff506f50 <__func__.1891+0x7>
ff506f2f:	21 21                	and    %esp,(%ecx)
ff506f31:	20 00                	and    %al,(%eax)
ff506f33:	2a 28                	sub    (%eax),%ch
ff506f35:	75 33                	jne    ff506f6a <__func__.1891+0x21>
ff506f37:	32 20                	xor    (%eax),%ah
ff506f39:	2a 29                	sub    (%ecx),%ch
ff506f3b:	70 74                	jo     ff506fb1 <__func__.1930+0x3a>
ff506f3d:	65                   	gs
ff506f3e:	50                   	push   %eax
ff506f3f:	74 72                	je     ff506fb3 <__func__.1930+0x3c>
ff506f41:	20 26                	and    %ah,(%esi)
ff506f43:	20 30                	and    %dh,(%eax)
ff506f45:	78 30                	js     ff506f77 <__func__.1930>
ff506f47:	31 00                	xor    %eax,(%eax)

ff506f49 <__func__.1891>:
ff506f49:	6b 55 6e 6d          	imul   $0x6d,0x6e(%ebp),%edx
ff506f4d:	61                   	popa   
ff506f4e:	70 50                	jo     ff506fa0 <__func__.1930+0x29>
ff506f50:	61                   	popa   
ff506f51:	67 65 00 70 64       	addr16 add %dh,%gs:0x64(%bx,%si)
ff506f56:	65                   	gs
ff506f57:	50                   	push   %eax
ff506f58:	74 72                	je     ff506fcc <__func__.1993+0x1>
ff506f5a:	2d 3e 70 72 65       	sub    $0x6572703e,%eax
ff506f5f:	73 65                	jae    ff506fc6 <__func__.1930+0x4f>
ff506f61:	6e                   	outsb  %ds:(%esi),(%dx)
ff506f62:	74 20                	je     ff506f84 <__func__.1930+0xd>
ff506f64:	26 26 20 70 74       	and    %dh,%es:0x74(%eax)
ff506f69:	65                   	gs
ff506f6a:	50                   	push   %eax
ff506f6b:	74 72                	je     ff506fdf <__func__.1993+0x14>
ff506f6d:	2d 3e 70 72 65       	sub    $0x6572703e,%eax
ff506f72:	73 65                	jae    ff506fd9 <__func__.1993+0xe>
ff506f74:	6e                   	outsb  %ds:(%esi),(%dx)
ff506f75:	74 00                	je     ff506f77 <__func__.1930>

ff506f77 <__func__.1930>:
ff506f77:	75 6e                	jne    ff506fe7 <__func__.1993+0x1c>
ff506f79:	6d                   	insl   (%dx),%es:(%edi)
ff506f7a:	61                   	popa   
ff506f7b:	70 50                	jo     ff506fcd <__func__.1993+0x2>
ff506f7d:	61                   	popa   
ff506f7e:	67 65 00 75 6e       	addr16 add %dh,%gs:0x6e(%di)
ff506f83:	6d                   	insl   (%dx),%es:(%edi)
ff506f84:	61                   	popa   
ff506f85:	70 50                	jo     ff506fd7 <__func__.1993+0xc>
ff506f87:	61                   	popa   
ff506f88:	67 65 28 29          	addr16 sub %ch,%gs:(%bx,%di)
ff506f8c:	20 3a                	and    %bh,(%edx)
ff506f8e:	20 45 72             	and    %al,0x72(%ebp)
ff506f91:	72 6f                	jb     ff507002 <__func__.1432+0xd>
ff506f93:	72 21                	jb     ff506fb6 <__func__.1930+0x3f>
ff506f95:	21 21                	and    %esp,(%ecx)
ff506f97:	20 00                	and    %al,(%eax)
ff506f99:	00 00                	add    %al,(%eax)
ff506f9b:	00 75 6e             	add    %dh,0x6e(%ebp)
ff506f9e:	6d                   	insl   (%dx),%es:(%edi)
ff506f9f:	61                   	popa   
ff506fa0:	70 50                	jo     ff506ff2 <__func__.1993+0x27>
ff506fa2:	61                   	popa   
ff506fa3:	67 65 28 29          	addr16 sub %ch,%gs:(%bx,%di)
ff506fa7:	20 3a                	and    %bh,(%edx)
ff506fa9:	20 4e 6f             	and    %cl,0x6f(%esi)
ff506fac:	74 20                	je     ff506fce <__func__.1993+0x3>
ff506fae:	70 72                	jo     ff507022 <__func__.1432+0x2d>
ff506fb0:	65                   	gs
ff506fb1:	73 65                	jae    ff507018 <__func__.1432+0x23>
ff506fb3:	6e                   	outsb  %ds:(%esi),(%dx)
ff506fb4:	74 20                	je     ff506fd6 <__func__.1993+0xb>
ff506fb6:	6f                   	outsl  %ds:(%esi),(%dx)
ff506fb7:	72 20                	jb     ff506fd9 <__func__.1993+0xe>
ff506fb9:	72 65                	jb     ff507020 <__func__.1432+0x2b>
ff506fbb:	61                   	popa   
ff506fbc:	64                   	fs
ff506fbd:	50                   	push   %eax
ff506fbe:	54                   	push   %esp
ff506fbf:	45                   	inc    %ebp
ff506fc0:	28 29                	sub    %ch,(%ecx)
ff506fc2:	20 66 61             	and    %ah,0x61(%esi)
ff506fc5:	69 6c 65 64 2e 00 75 	imul   $0x6e75002e,0x64(%ebp,%eiz,2),%ebp
ff506fcc:	6e 

ff506fcb <__func__.1993>:
ff506fcb:	75 6e                	jne    ff50703b <__func__.1432+0x46>
ff506fcd:	6d                   	insl   (%dx),%es:(%edi)
ff506fce:	61                   	popa   
ff506fcf:	70 50                	jo     ff507021 <__func__.1432+0x2c>
ff506fd1:	61                   	popa   
ff506fd2:	67                   	addr16
ff506fd3:	65                   	gs
ff506fd4:	54                   	push   %esp
ff506fd5:	61                   	popa   
ff506fd6:	62 6c 65 00          	bound  %ebp,0x0(%ebp,%eiz,2)
ff506fda:	75 6e                	jne    ff50704a <__func__.1432+0x55>
ff506fdc:	6d                   	insl   (%dx),%es:(%edi)
ff506fdd:	61                   	popa   
ff506fde:	70 50                	jo     ff507030 <__func__.1432+0x3b>
ff506fe0:	61                   	popa   
ff506fe1:	67 65 28 29          	addr16 sub %ch,%gs:(%bx,%di)
ff506fe5:	20 3a                	and    %bh,(%edx)
ff506fe7:	20 4e 6f             	and    %cl,0x6f(%esi)
ff506fea:	74 20                	je     ff50700c <__func__.1432+0x17>
ff506fec:	70 72                	jo     ff507060 <__func__.1432+0x6b>
ff506fee:	65                   	gs
ff506fef:	73 65                	jae    ff507056 <__func__.1432+0x61>
ff506ff1:	6e                   	outsb  %ds:(%esi),(%dx)
ff506ff2:	74 2e                	je     ff507022 <__func__.1432+0x2d>
	...

ff506ff5 <__func__.1432>:
ff506ff5:	73 6c                	jae    ff507063 <__func__.1432+0x6e>
ff506ff7:	65                   	gs
ff506ff8:	65                   	gs
ff506ff9:	70 45                	jo     ff507040 <__func__.1432+0x4b>
ff506ffb:	6e                   	outsb  %ds:(%esi),(%dx)
ff506ffc:	71 75                	jno    ff507073 <__func__.1512+0xa>
ff506ffe:	65                   	gs
ff506fff:	75 65                	jne    ff507066 <__func__.1432+0x71>
ff507001:	00 71 75             	add    %dh,0x75(%ecx)
ff507004:	65                   	gs
ff507005:	75 65                	jne    ff50706c <__func__.1512+0x3>
ff507007:	2e 63 00             	arpl   %ax,%cs:(%eax)
ff50700a:	71 75                	jno    ff507081 <__func__.1539+0xb>
ff50700c:	65                   	gs
ff50700d:	75 65                	jne    ff507074 <__func__.1512+0xb>
ff50700f:	20 21                	and    %ah,(%ecx)
ff507011:	3d 20 4e 55 4c       	cmp    $0x4c554e20,%eax
ff507016:	4c                   	dec    %esp
ff507017:	00 74 69 64          	add    %dh,0x64(%ecx,%ebp,2)
ff50701b:	20 21                	and    %ah,(%ecx)
ff50701d:	3d 20 4e 55 4c       	cmp    $0x4c554e20,%eax
ff507022:	4c                   	dec    %esp
ff507023:	5f                   	pop    %edi
ff507024:	54                   	push   %esp
ff507025:	49                   	dec    %ecx
ff507026:	44                   	inc    %esp
ff507027:	00 74 69 6d          	add    %dh,0x6d(%ecx,%ebp,2)
ff50702b:	65 20 3e             	and    %bh,%gs:(%esi)
ff50702e:	20 30                	and    %dh,(%eax)
ff507030:	00 49 6e             	add    %cl,0x6e(%ecx)
ff507033:	76 61                	jbe    ff507096 <__func__.1576+0xb>
ff507035:	6c                   	insb   (%dx),%es:(%edi)
ff507036:	69 64 20 74 69 6d 65 	imul   $0x20656d69,0x74(%eax,%eiz,1),%esp
ff50703d:	20 
ff50703e:	6f                   	outsl  %ds:(%esi),(%dx)
ff50703f:	72 20                	jb     ff507061 <__func__.1432+0x6c>
ff507041:	4e                   	dec    %esi
ff507042:	55                   	push   %ebp
ff507043:	4c                   	dec    %esp
ff507044:	4c                   	dec    %esp
ff507045:	20 70 6f             	and    %dh,0x6f(%eax)
ff507048:	69 6e 74 65 72 00 3c 	imul   $0x3c007265,0x74(%esi),%ebp
ff50704f:	27                   	daa    
ff507050:	25 73 27 20 25       	and    $0x25202773,%eax
ff507055:	73 3a                	jae    ff507091 <__func__.1576+0x6>
ff507057:	20 25 64 3e 20 52    	and    %ah,0x52203e64
ff50705d:	65                   	gs
ff50705e:	74 3a                	je     ff50709a <__func__.1632+0x3>
ff507060:	20 25 64 2e 20 25    	and    %ah,0x25202e64
ff507066:	73 0a                	jae    ff507072 <__func__.1512+0x9>
	...

ff507069 <__func__.1512>:
ff507069:	73 6c                	jae    ff5070d7 <__func__.1504+0x37>
ff50706b:	65                   	gs
ff50706c:	65                   	gs
ff50706d:	70 44                	jo     ff5070b3 <__func__.1504+0x13>
ff50706f:	65                   	gs
ff507070:	71 75                	jno    ff5070e7 <__func__.1504+0x47>
ff507072:	65                   	gs
ff507073:	75 65                	jne    ff5070da <__func__.1504+0x3a>
	...

ff507076 <__func__.1539>:
ff507076:	65 6e                	outsb  %gs:(%esi),(%dx)
ff507078:	71 75                	jno    ff5070ef <__func__.1504+0x4f>
ff50707a:	65                   	gs
ff50707b:	75 65                	jne    ff5070e2 <__func__.1504+0x42>
ff50707d:	00 4e 55             	add    %cl,0x55(%esi)
ff507080:	4c                   	dec    %esp
ff507081:	4c                   	dec    %esp
ff507082:	20 70 74             	and    %dh,0x74(%eax)
ff507085:	72 2f                	jb     ff5070b6 <__func__.1504+0x16>
ff507087:	74 69                	je     ff5070f2 <__func__.1504+0x52>
ff507089:	64 00 64 65 74       	add    %ah,%fs:0x74(%ebp,%eiz,2)

ff50708b <__func__.1576>:
ff50708b:	64                   	fs
ff50708c:	65                   	gs
ff50708d:	74 61                	je     ff5070f0 <__func__.1504+0x50>
ff50708f:	63 68 51             	arpl   %bp,0x51(%eax)
ff507092:	75 65                	jne    ff5070f9 <__func__.1504+0x59>
ff507094:	75 65                	jne    ff5070fb <__func__.1504+0x5b>
	...

ff507097 <__func__.1632>:
ff507097:	64                   	fs
ff507098:	65                   	gs
ff507099:	71 75                	jno    ff507110 <__func__.1504+0x70>
ff50709b:	65                   	gs
ff50709c:	75 65                	jne    ff507103 <__func__.1504+0x63>
	...

ff5070a0 <__func__.1504>:
ff5070a0:	73 63                	jae    ff507105 <__func__.1504+0x65>
ff5070a2:	68 65 64 75 6c       	push   $0x6c756465
ff5070a7:	65 00 73 63          	add    %dh,%gs:0x63(%ebx)
ff5070ab:	68 65 64 75 6c       	push   $0x6c756465
ff5070b0:	65 2e 63 00          	arpl   %ax,%cs:%gs:(%eax)
ff5070b4:	74 68                	je     ff50711e <__func__.1504+0x7e>
ff5070b6:	72 65                	jb     ff50711d <__func__.1504+0x7d>
ff5070b8:	61                   	popa   
ff5070b9:	64 20 21             	and    %ah,%fs:(%ecx)
ff5070bc:	3d 20 4e 55 4c       	cmp    $0x4c554e20,%eax
ff5070c1:	4c                   	dec    %esp
ff5070c2:	00 74 68 72          	add    %dh,0x72(%eax,%ebp,2)
ff5070c6:	65                   	gs
ff5070c7:	61                   	popa   
ff5070c8:	64 20 3d 3d 20 63 75 	and    %bh,%fs:0x7563203d
ff5070cf:	72 72                	jb     ff507143 <__func__.1504+0xa3>
ff5070d1:	65 6e                	outsb  %gs:(%esi),(%dx)
ff5070d3:	74 54                	je     ff507129 <__func__.1504+0x89>
ff5070d5:	68 72 65 61 64       	push   $0x64616572
ff5070da:	00 74 68 72          	add    %dh,0x72(%eax,%ebp,2)
ff5070de:	65                   	gs
ff5070df:	61                   	popa   
ff5070e0:	64                   	fs
ff5070e1:	2d 3e 73 74 61       	sub    $0x6174733e,%eax
ff5070e6:	74 65                	je     ff50714d <__func__.1504+0xad>
ff5070e8:	20 21                	and    %ah,(%ecx)
ff5070ea:	3d 20 52 45 41       	cmp    $0x41455220,%eax
ff5070ef:	44                   	inc    %esp
ff5070f0:	59                   	pop    %ecx
ff5070f1:	00 00                	add    %al,(%eax)
ff5070f3:	00 72 75             	add    %dh,0x75(%edx)
ff5070f6:	6e                   	outsb  %ds:(%esi),(%dx)
ff5070f7:	51                   	push   %ecx
ff5070f8:	75 65                	jne    ff50715f <__func__.1504+0xbf>
ff5070fa:	75 65                	jne    ff507161 <__func__.1504+0xc1>
ff5070fc:	73 5b                	jae    ff507159 <__func__.1504+0xb9>
ff5070fe:	20 6c 65 76          	and    %ch,0x76(%ebp,%eiz,2)
ff507102:	65                   	gs
ff507103:	6c                   	insb   (%dx),%es:(%edi)
ff507104:	20 5d 2e             	and    %bl,0x2e(%ebp)
ff507107:	68 65 61 64 20       	push   $0x20646165
ff50710c:	21 3d 20 47 45 54    	and    %edi,0x54454720
ff507112:	5f                   	pop    %edi
ff507113:	54                   	push   %esp
ff507114:	49                   	dec    %ecx
ff507115:	44                   	inc    %esp
ff507116:	28 74 68 72          	sub    %dh,0x72(%eax,%ebp,2)
ff50711a:	65                   	gs
ff50711b:	61                   	popa   
ff50711c:	64 29 00             	sub    %eax,%fs:(%eax)
ff50711f:	00 72 75             	add    %dh,0x75(%edx)
ff507122:	6e                   	outsb  %ds:(%esi),(%dx)
ff507123:	51                   	push   %ecx
ff507124:	75 65                	jne    ff50718b <__func__.1504+0xeb>
ff507126:	75 65                	jne    ff50718d <__func__.1504+0xed>
ff507128:	73 5b                	jae    ff507185 <__func__.1504+0xe5>
ff50712a:	20 6c 65 76          	and    %ch,0x76(%ebp,%eiz,2)
ff50712e:	65                   	gs
ff50712f:	6c                   	insb   (%dx),%es:(%edi)
ff507130:	20 5d 2e             	and    %bl,0x2e(%ebp)
ff507133:	74 61                	je     ff507196 <__func__.1504+0xf6>
ff507135:	69 6c 20 21 3d 20 47 	imul   $0x4547203d,0x21(%eax,%eiz,1),%ebp
ff50713c:	45 
ff50713d:	54                   	push   %esp
ff50713e:	5f                   	pop    %edi
ff50713f:	54                   	push   %esp
ff507140:	49                   	dec    %ecx
ff507141:	44                   	inc    %esp
ff507142:	28 74 68 72          	sub    %dh,0x72(%eax,%ebp,2)
ff507146:	65                   	gs
ff507147:	61                   	popa   
ff507148:	64 29 00             	sub    %eax,%fs:(%eax)
ff50714b:	00 72 75             	add    %dh,0x75(%edx)
ff50714e:	6e                   	outsb  %ds:(%esi),(%dx)
ff50714f:	51                   	push   %ecx
ff507150:	75 65                	jne    ff5071b7 <__func__.1504+0x117>
ff507152:	75 65                	jne    ff5071b9 <__func__.1504+0x119>
ff507154:	73 5b                	jae    ff5071b1 <__func__.1504+0x111>
ff507156:	20 6c 65 76          	and    %ch,0x76(%ebp,%eiz,2)
ff50715a:	65                   	gs
ff50715b:	6c                   	insb   (%dx),%es:(%edi)
ff50715c:	20 5d 2e             	and    %bl,0x2e(%ebp)
ff50715f:	68 65 61 64 20       	push   $0x20646165
ff507164:	21 3d 20 4e 55 4c    	and    %edi,0x4c554e20
ff50716a:	4c                   	dec    %esp
ff50716b:	5f                   	pop    %edi
ff50716c:	54                   	push   %esp
ff50716d:	49                   	dec    %ecx
ff50716e:	44                   	inc    %esp
ff50716f:	00 72 75             	add    %dh,0x75(%edx)
ff507172:	6e                   	outsb  %ds:(%esi),(%dx)
ff507173:	51                   	push   %ecx
ff507174:	75 65                	jne    ff5071db <__func__.1504+0x13b>
ff507176:	75 65                	jne    ff5071dd <__func__.1504+0x13d>
ff507178:	73 5b                	jae    ff5071d5 <__func__.1504+0x135>
ff50717a:	20 6c 65 76          	and    %ch,0x76(%ebp,%eiz,2)
ff50717e:	65                   	gs
ff50717f:	6c                   	insb   (%dx),%es:(%edi)
ff507180:	20 5d 2e             	and    %bl,0x2e(%ebp)
ff507183:	74 61                	je     ff5071e6 <__func__.1504+0x146>
ff507185:	69 6c 20 21 3d 20 4e 	imul   $0x554e203d,0x21(%eax,%eiz,1),%ebp
ff50718c:	55 
ff50718d:	4c                   	dec    %esp
ff50718e:	4c                   	dec    %esp
ff50718f:	5f                   	pop    %edi
ff507190:	54                   	push   %esp
ff507191:	49                   	dec    %ecx
ff507192:	44                   	inc    %esp
ff507193:	00 74 68 72          	add    %dh,0x72(%eax,%ebp,2)
ff507197:	65                   	gs
ff507198:	61                   	popa   
ff507199:	64 20 21             	and    %ah,%fs:(%ecx)
ff50719c:	3d 20 69 64 6c       	cmp    $0x6c646920,%eax
ff5071a1:	65                   	gs
ff5071a2:	54                   	push   %esp
ff5071a3:	68 72 65 61 64       	push   $0x64616572
ff5071a8:	00 6e 65             	add    %ch,0x65(%esi)
ff5071ab:	77 54                	ja     ff507201 <__func__.1504+0x161>
ff5071ad:	49                   	dec    %ecx
ff5071ae:	44                   	inc    %esp
ff5071af:	20 21                	and    %ah,(%ecx)
ff5071b1:	3d 20 4e 55 4c       	cmp    $0x4c554e20,%eax
ff5071b6:	4c                   	dec    %esp
ff5071b7:	5f                   	pop    %edi
ff5071b8:	54                   	push   %esp
ff5071b9:	49                   	dec    %ecx
ff5071ba:	44                   	inc    %esp
ff5071bb:	00 6e 65             	add    %ch,0x65(%esi)
ff5071be:	77 54                	ja     ff507214 <__func__.1661+0x5>
ff5071c0:	68 72 65 61 64       	push   $0x64616572
ff5071c5:	2d 3e 73 74 61       	sub    $0x6174733e,%eax
ff5071ca:	74 65                	je     ff507231 <__func__.1676+0x19>
ff5071cc:	20 3d 3d 20 52 45    	and    %bh,0x4552203d
ff5071d2:	41                   	inc    %ecx
ff5071d3:	44                   	inc    %esp
ff5071d4:	59                   	pop    %ecx
ff5071d5:	00 00                	add    %al,(%eax)
ff5071d7:	00 61 74             	add    %ah,0x74(%ecx)
ff5071da:	74 61                	je     ff50723d <__func__.1676+0x25>
ff5071dc:	63 68 52             	arpl   %bp,0x52(%eax)
ff5071df:	75 6e                	jne    ff50724f <__func__.1709+0xf>
ff5071e1:	51                   	push   %ecx
ff5071e2:	75 65                	jne    ff507249 <__func__.1709+0x9>
ff5071e4:	75 65                	jne    ff50724b <__func__.1709+0xb>
ff5071e6:	28 20                	sub    %ah,(%eax)
ff5071e8:	28 54 43 42          	sub    %dl,0x42(%ebx,%eax,2)
ff5071ec:	20 2a                	and    %ch,(%edx)
ff5071ee:	29 74 68 72          	sub    %esi,0x72(%eax,%ebp,2)
ff5071f2:	65                   	gs
ff5071f3:	61                   	popa   
ff5071f4:	64 20 29             	and    %ch,%fs:(%ecx)
ff5071f7:	20 3d 3d 20 30 00    	and    %bh,0x30203d
ff5071fd:	6e                   	outsb  %ds:(%esi),(%dx)
ff5071fe:	65                   	gs
ff5071ff:	77 54                	ja     ff507255 <__func__.1709+0x15>
ff507201:	68 72 65 61 64       	push   $0x64616572
ff507206:	20 21                	and    %ah,(%ecx)
ff507208:	3d 20 4e 55 4c       	cmp    $0x4c554e20,%eax
ff50720d:	4c                   	dec    %esp
	...

ff50720f <__func__.1661>:
ff50720f:	73 79                	jae    ff50728a <__func__.1709+0x4a>
ff507211:	73 59                	jae    ff50726c <__func__.1709+0x2c>
ff507213:	69 65 6c 64 00 73 65 	imul   $0x65730064,0x6c(%ebp),%esp

ff507218 <__func__.1676>:
ff507218:	73 65                	jae    ff50727f <__func__.1709+0x3f>
ff50721a:	74 50                	je     ff50726c <__func__.1709+0x2c>
ff50721c:	72 69                	jb     ff507287 <__func__.1709+0x47>
ff50721e:	6f                   	outsl  %ds:(%esi),(%dx)
ff50721f:	72 69                	jb     ff50728a <__func__.1709+0x4a>
ff507221:	74 79                	je     ff50729c <__func__.1709+0x5c>
ff507223:	00 47 45             	add    %al,0x45(%edi)
ff507226:	54                   	push   %esp
ff507227:	5f                   	pop    %edi
ff507228:	54                   	push   %esp
ff507229:	49                   	dec    %ecx
ff50722a:	44                   	inc    %esp
ff50722b:	28 74 68 72          	sub    %dh,0x72(%eax,%ebp,2)
ff50722f:	65                   	gs
ff507230:	61                   	popa   
ff507231:	64 29 20             	sub    %esp,%fs:(%eax)
ff507234:	21 3d 20 4e 55 4c    	and    %edi,0x4c554e20
ff50723a:	4c                   	dec    %esp
ff50723b:	5f                   	pop    %edi
ff50723c:	54                   	push   %esp
ff50723d:	49                   	dec    %ecx
ff50723e:	44                   	inc    %esp
	...

ff507240 <__func__.1709>:
ff507240:	61                   	popa   
ff507241:	74 74                	je     ff5072b7 <__func__.1709+0x77>
ff507243:	61                   	popa   
ff507244:	63 68 52             	arpl   %bp,0x52(%eax)
ff507247:	75 6e                	jne    ff5072b7 <__func__.1709+0x77>
ff507249:	51                   	push   %ecx
ff50724a:	75 65                	jne    ff5072b1 <__func__.1709+0x71>
ff50724c:	75 65                	jne    ff5072b3 <__func__.1709+0x73>
ff50724e:	00 00                	add    %al,(%eax)
ff507250:	74 68                	je     ff5072ba <__func__.1709+0x7a>
ff507252:	72 65                	jb     ff5072b9 <__func__.1709+0x79>
ff507254:	61                   	popa   
ff507255:	64                   	fs
ff507256:	2d 3e 70 72 69       	sub    $0x6972703e,%eax
ff50725b:	6f                   	outsl  %ds:(%esi),(%dx)
ff50725c:	72 69                	jb     ff5072c7 <__func__.1709+0x87>
ff50725e:	74 79                	je     ff5072d9 <__func__.1709+0x99>
ff507260:	20 3c 20             	and    %bh,(%eax,%eiz,1)
ff507263:	4e                   	dec    %esi
ff507264:	55                   	push   %ebp
ff507265:	4d                   	dec    %ebp
ff507266:	5f                   	pop    %edi
ff507267:	50                   	push   %eax
ff507268:	52                   	push   %edx
ff507269:	49                   	dec    %ecx
ff50726a:	4f                   	dec    %edi
ff50726b:	52                   	push   %edx
ff50726c:	49                   	dec    %ecx
ff50726d:	54                   	push   %esp
ff50726e:	49                   	dec    %ecx
ff50726f:	45                   	inc    %ebp
ff507270:	53                   	push   %ebx
ff507271:	00 74 68 72          	add    %dh,0x72(%eax,%ebp,2)
ff507275:	65                   	gs
ff507276:	61                   	popa   
ff507277:	64 20 21             	and    %ah,%fs:(%ecx)
ff50727a:	3d 20 63 75 72       	cmp    $0x72756320,%eax
ff50727f:	72 65                	jb     ff5072e6 <__func__.1709+0xa6>
ff507281:	6e                   	outsb  %ds:(%esi),(%dx)
ff507282:	74 54                	je     ff5072d8 <__func__.1709+0x98>
ff507284:	68 72 65 61 64       	push   $0x64616572
ff507289:	00 00                	add    %al,(%eax)
ff50728b:	00 72 75             	add    %dh,0x75(%edx)
ff50728e:	6e                   	outsb  %ds:(%esi),(%dx)
ff50728f:	51                   	push   %ecx
ff507290:	75 65                	jne    ff5072f7 <__func__.1761+0xc>
ff507292:	75 65                	jne    ff5072f9 <__func__.1761+0xe>
ff507294:	73 5b                	jae    ff5072f1 <__func__.1761+0x6>
ff507296:	20 74 68 72          	and    %dh,0x72(%eax,%ebp,2)
ff50729a:	65                   	gs
ff50729b:	61                   	popa   
ff50729c:	64                   	fs
ff50729d:	2d 3e 70 72 69       	sub    $0x6972703e,%eax
ff5072a2:	6f                   	outsl  %ds:(%esi),(%dx)
ff5072a3:	72 69                	jb     ff50730e <__func__.1801+0x14>
ff5072a5:	74 79                	je     ff507320 <__func__.1801+0x26>
ff5072a7:	20 5d 2e             	and    %bl,0x2e(%ebp)
ff5072aa:	68 65 61 64 20       	push   $0x20646165
ff5072af:	21 3d 20 4e 55 4c    	and    %edi,0x4c554e20
ff5072b5:	4c                   	dec    %esp
ff5072b6:	5f                   	pop    %edi
ff5072b7:	54                   	push   %esp
ff5072b8:	49                   	dec    %ecx
ff5072b9:	44                   	inc    %esp
ff5072ba:	00 00                	add    %al,(%eax)
ff5072bc:	72 75                	jb     ff507333 <__func__.1801+0x39>
ff5072be:	6e                   	outsb  %ds:(%esi),(%dx)
ff5072bf:	51                   	push   %ecx
ff5072c0:	75 65                	jne    ff507327 <__func__.1801+0x2d>
ff5072c2:	75 65                	jne    ff507329 <__func__.1801+0x2f>
ff5072c4:	73 5b                	jae    ff507321 <__func__.1801+0x27>
ff5072c6:	20 74 68 72          	and    %dh,0x72(%eax,%ebp,2)
ff5072ca:	65                   	gs
ff5072cb:	61                   	popa   
ff5072cc:	64                   	fs
ff5072cd:	2d 3e 70 72 69       	sub    $0x6972703e,%eax
ff5072d2:	6f                   	outsl  %ds:(%esi),(%dx)
ff5072d3:	72 69                	jb     ff50733e <__func__.1801+0x44>
ff5072d5:	74 79                	je     ff507350 <__func__.1801+0x56>
ff5072d7:	20 5d 2e             	and    %bl,0x2e(%ebp)
ff5072da:	74 61                	je     ff50733d <__func__.1801+0x43>
ff5072dc:	69 6c 20 21 3d 20 4e 	imul   $0x554e203d,0x21(%eax,%eiz,1),%ebp
ff5072e3:	55 
ff5072e4:	4c                   	dec    %esp
ff5072e5:	4c                   	dec    %esp
ff5072e6:	5f                   	pop    %edi
ff5072e7:	54                   	push   %esp
ff5072e8:	49                   	dec    %ecx
ff5072e9:	44                   	inc    %esp
	...

ff5072eb <__func__.1761>:
ff5072eb:	64                   	fs
ff5072ec:	65                   	gs
ff5072ed:	74 61                	je     ff507350 <__func__.1801+0x56>
ff5072ef:	63 68 52             	arpl   %bp,0x52(%eax)
ff5072f2:	75 6e                	jne    ff507362 <__func__.1801+0x68>
ff5072f4:	51                   	push   %ecx
ff5072f5:	75 65                	jne    ff50735c <__func__.1801+0x62>
ff5072f7:	75 65                	jne    ff50735e <__func__.1801+0x64>
	...

ff5072fa <__func__.1801>:
ff5072fa:	74 69                	je     ff507365 <__func__.1801+0x6b>
ff5072fc:	6d                   	insl   (%dx),%es:(%edi)
ff5072fd:	65                   	gs
ff5072fe:	72 49                	jb     ff507349 <__func__.1801+0x4f>
ff507300:	6e                   	outsb  %ds:(%esi),(%dx)
ff507301:	74 00                	je     ff507303 <__func__.1801+0x9>
ff507303:	74 69                	je     ff50736e <__func__.1801+0x74>
ff507305:	64 20 21             	and    %ah,%fs:(%ecx)
ff507308:	3d 20 4e 55 4c       	cmp    $0x4c554e20,%eax
ff50730d:	4c                   	dec    %esp
ff50730e:	5f                   	pop    %edi
ff50730f:	54                   	push   %esp
ff507310:	49                   	dec    %ecx
ff507311:	44                   	inc    %esp
ff507312:	00 00                	add    %al,(%eax)
ff507314:	77 6f                	ja     ff507385 <__func__.1524+0x11>
ff507316:	6b 65 6e 54          	imul   $0x54,0x6e(%ebp),%esp
ff50731a:	68 72 65 61 64       	push   $0x64616572
ff50731f:	2d 3e 73 74 61       	sub    $0x6174733e,%eax
ff507324:	74 65                	je     ff50738b <__func__.1524+0x17>
ff507326:	20 3d 3d 20 53 4c    	and    %bh,0x4c53203d
ff50732c:	45                   	inc    %ebp
ff50732d:	45                   	inc    %ebp
ff50732e:	50                   	push   %eax
ff50732f:	49                   	dec    %ecx
ff507330:	4e                   	dec    %esi
ff507331:	47                   	inc    %edi
ff507332:	00 00                	add    %al,(%eax)
ff507334:	61                   	popa   
ff507335:	74 74                	je     ff5073ab <__func__.1524+0x37>
ff507337:	61                   	popa   
ff507338:	63 68 52             	arpl   %bp,0x52(%eax)
ff50733b:	75 6e                	jne    ff5073ab <__func__.1524+0x37>
ff50733d:	51                   	push   %ecx
ff50733e:	75 65                	jne    ff5073a5 <__func__.1524+0x31>
ff507340:	75 65                	jne    ff5073a7 <__func__.1524+0x33>
ff507342:	28 20                	sub    %ah,(%eax)
ff507344:	77 6f                	ja     ff5073b5 <__func__.1524+0x41>
ff507346:	6b 65 6e 54          	imul   $0x54,0x6e(%ebp),%esp
ff50734a:	68 72 65 61 64       	push   $0x64616572
ff50734f:	20 29                	and    %ch,(%ecx)
ff507351:	20 3d 3d 20 30 00    	and    %bh,0x30203d
ff507357:	77 6f                	ja     ff5073c8 <__func__.1524+0x54>
ff507359:	6b 65 6e 54          	imul   $0x54,0x6e(%ebp),%esp
ff50735d:	68 72 65 61 64       	push   $0x64616572
ff507362:	20 21                	and    %ah,(%ecx)
ff507364:	3d 20 63 75 72       	cmp    $0x72756320,%eax
ff507369:	72 65                	jb     ff5073d0 <__func__.1524+0x5c>
ff50736b:	6e                   	outsb  %ds:(%esi),(%dx)
ff50736c:	74 54                	je     ff5073c2 <__func__.1524+0x4e>
ff50736e:	68 72 65 61 64       	push   $0x64616572
	...

ff507374 <__func__.1524>:
ff507374:	73 79                	jae    ff5073ef <__func__.1591+0x17>
ff507376:	73 52                	jae    ff5073ca <__func__.1524+0x56>
ff507378:	61                   	popa   
ff507379:	69 73 65 00 72 65 63 	imul   $0x63657200,0x65(%ebx),%esi
ff507380:	65 69 76 65 20 69 6e 	imul   $0x746e6920,%gs:0x65(%esi),%esi
ff507387:	74 
ff507388:	65                   	gs
ff507389:	72 72                	jb     ff5073fd <__func__.1591+0x25>
ff50738b:	75 70                	jne    ff5073fd <__func__.1591+0x25>
ff50738d:	74 65                	je     ff5073f4 <__func__.1591+0x1c>
ff50738f:	64 0a 00             	or     %fs:(%eax),%al
ff507392:	73 65                	jae    ff5073f9 <__func__.1591+0x21>
ff507394:	6e                   	outsb  %ds:(%esi),(%dx)
ff507395:	64 20 69 6e          	and    %ch,%fs:0x6e(%ecx)
ff507399:	74 65                	je     ff507400 <__func__.1591+0x28>
ff50739b:	72 72                	jb     ff50740f <__func__.1639>
ff50739d:	75 70                	jne    ff50740f <__func__.1639>
ff50739f:	74 65                	je     ff507406 <__func__.1591+0x2e>
ff5073a1:	64 0a 00             	or     %fs:(%eax),%al
ff5073a4:	73 69                	jae    ff50740f <__func__.1639>
ff5073a6:	67 6e                	addr16 outsb %ds:(%si),(%dx)
ff5073a8:	61                   	popa   
ff5073a9:	6c                   	insb   (%dx),%es:(%edi)
ff5073aa:	2e 63 00             	arpl   %ax,%cs:(%eax)
ff5073ad:	73 74                	jae    ff507423 <__func__.1639+0x14>
ff5073af:	61                   	popa   
ff5073b0:	72 74                	jb     ff507426 <__func__.1639+0x17>
ff5073b2:	54                   	push   %esp
ff5073b3:	68 72 65 61 64       	push   $0x64616572
ff5073b8:	28 20                	sub    %ah,(%eax)
ff5073ba:	74 63                	je     ff50741f <__func__.1639+0x10>
ff5073bc:	62 20                	bound  %esp,(%eax)
ff5073be:	29 20                	sub    %esp,(%eax)
ff5073c0:	3e                   	ds
ff5073c1:	3d 20 30 00 65       	cmp    $0x65003020,%eax
ff5073c6:	61                   	popa   
ff5073c7:	78 3a                	js     ff507403 <__func__.1591+0x2b>
ff5073c9:	20 30                	and    %dh,(%eax)
ff5073cb:	78 25                	js     ff5073f2 <__func__.1591+0x1a>
ff5073cd:	78 20                	js     ff5073ef <__func__.1591+0x17>
ff5073cf:	30 78 25             	xor    %bh,0x25(%eax)
ff5073d2:	78 0a                	js     ff5073de <__func__.1591+0x6>
ff5073d4:	00 00                	add    %al,(%eax)
	...

ff5073d8 <__func__.1591>:
ff5073d8:	73 79                	jae    ff507453 <__func__.1639+0x44>
ff5073da:	73 47                	jae    ff507423 <__func__.1639+0x14>
ff5073dc:	65                   	gs
ff5073dd:	74 54                	je     ff507433 <__func__.1639+0x24>
ff5073df:	68 72 65 61 64       	push   $0x64616572
ff5073e4:	49                   	dec    %ecx
ff5073e5:	6e                   	outsb  %ds:(%esi),(%dx)
ff5073e6:	66 6f                	outsw  %ds:(%esi),(%dx)
ff5073e8:	00 73 79             	add    %dh,0x79(%ebx)
ff5073eb:	73 63                	jae    ff507450 <__func__.1639+0x41>
ff5073ed:	61                   	popa   
ff5073ee:	6c                   	insb   (%dx),%es:(%edi)
ff5073ef:	6c                   	insb   (%dx),%es:(%edi)
ff5073f0:	2e 63 00             	arpl   %ax,%cs:(%eax)
ff5073f3:	69 6e 66 6f 20 21 3d 	imul   $0x3d21206f,0x66(%esi),%ebp
ff5073fa:	20 4e 55             	and    %cl,0x55(%esi)
ff5073fd:	4c                   	dec    %esp
ff5073fe:	4c                   	dec    %esp
ff5073ff:	00 74 68 72          	add    %dh,0x72(%eax,%ebp,2)
ff507403:	65                   	gs
ff507404:	61                   	popa   
ff507405:	64 20 21             	and    %ah,%fs:(%ecx)
ff507408:	3d 20 4e 55 4c       	cmp    $0x4c554e20,%eax
ff50740d:	4c                   	dec    %esp
	...

ff50740f <__func__.1639>:
ff50740f:	5f                   	pop    %edi
ff507410:	73 79                	jae    ff50748b <__func__.1639+0x7c>
ff507412:	73 63                	jae    ff507477 <__func__.1639+0x68>
ff507414:	61                   	popa   
ff507415:	6c                   	insb   (%dx),%es:(%edi)
ff507416:	6c                   	insb   (%dx),%es:(%edi)
ff507417:	00 5f 74             	add    %bl,0x74(%edi)
ff50741a:	68 72 65 61 64       	push   $0x64616572
ff50741f:	2d 3e 61 64 64       	sub    $0x6464613e,%eax
ff507424:	72 53                	jb     ff507479 <__func__.1639+0x6a>
ff507426:	70 61                	jo     ff507489 <__func__.1639+0x7a>
ff507428:	63 65 20             	arpl   %sp,0x20(%ebp)
ff50742b:	3d 3d 20 28 61       	cmp    $0x6128203d,%eax
ff507430:	64                   	fs
ff507431:	64                   	fs
ff507432:	72 5f                	jb     ff507493 <__func__.1639+0x84>
ff507434:	74 29                	je     ff50745f <__func__.1639+0x50>
ff507436:	67                   	addr16
ff507437:	65                   	gs
ff507438:	74 43                	je     ff50747d <__func__.1639+0x6e>
ff50743a:	52                   	push   %edx
ff50743b:	33 28                	xor    (%eax),%ebp
ff50743d:	29 00                	sub    %eax,(%eax)
ff50743f:	00 49 6e             	add    %cl,0x6e(%ecx)
ff507442:	76 61                	jbe    ff5074a5 <__func__.1639+0x96>
ff507444:	6c                   	insb   (%dx),%es:(%edi)
ff507445:	69 64 20 73 79 73 74 	imul   $0x65747379,0x73(%eax,%eiz,1),%esp
ff50744c:	65 
ff50744d:	6d                   	insl   (%dx),%es:(%edi)
ff50744e:	20 63 61             	and    %ah,0x61(%ebx)
ff507451:	6c                   	insb   (%dx),%es:(%edi)
ff507452:	6c                   	insb   (%dx),%es:(%edi)
ff507453:	3a 20                	cmp    (%eax),%ah
ff507455:	30 78 25             	xor    %bh,0x25(%eax)
ff507458:	78 20                	js     ff50747a <__func__.1639+0x6b>
ff50745a:	25 64 20 30 78       	and    $0x78302064,%eax
ff50745f:	25 78 0a 00 66       	and    $0x66000a78,%eax
ff507464:	61                   	popa   
ff507465:	6c                   	insb   (%dx),%es:(%edi)
ff507466:	73 65                	jae    ff5074cd <__func__.1567+0x11>
ff507468:	00 00                	add    %al,(%eax)
ff50746a:	00 00                	add    %al,(%eax)
ff50746c:	c0 4d 50 ff          	rorb   $0xff,0x50(%ebp)
ff507470:	fa                   	cli    
ff507471:	4d                   	dec    %ebp
ff507472:	50                   	push   %eax
ff507473:	ff 34 4e             	pushl  (%esi,%ecx,2)
ff507476:	50                   	push   %eax
ff507477:	ff c0                	inc    %eax
ff507479:	4f                   	dec    %edi
ff50747a:	50                   	push   %eax
ff50747b:	ff f7                	push   %edi
ff50747d:	4f                   	dec    %edi
ff50747e:	50                   	push   %eax
ff50747f:	ff aa 50 50 ff 4e    	ljmp   *0x4eff5050(%edx)
ff507485:	4e                   	dec    %esi
ff507486:	50                   	push   %eax
ff507487:	ff e0                	jmp    *%eax
ff507489:	4e                   	dec    %esi
ff50748a:	50                   	push   %eax
ff50748b:	ff c9                	dec    %ecx
ff50748d:	4e                   	dec    %esi
ff50748e:	50                   	push   %eax
ff50748f:	ff 21                	jmp    *(%ecx)
ff507491:	4f                   	dec    %edi
ff507492:	50                   	push   %eax
ff507493:	ff 9f 4f 50 ff 7e    	lcall  *0x7eff504f(%edi)
ff507499:	4f                   	dec    %edi
ff50749a:	50                   	push   %eax
ff50749b:	ff 5c 4f 50          	lcall  *0x50(%edi,%ecx,2)
ff50749f:	ff                   	(bad)  
ff5074a0:	3a 50 50             	cmp    0x50(%eax),%dl
ff5074a3:	ff 67 50             	jmp    *0x50(%edi)
ff5074a6:	50                   	push   %eax
ff5074a7:	ff d8                	lcall  *<internal disassembler error>
ff5074a9:	50                   	push   %eax
ff5074aa:	50                   	push   %eax
ff5074ab:	ff                   	(bad)  
ff5074ac:	f9                   	stc    
ff5074ad:	50                   	push   %eax
ff5074ae:	50                   	push   %eax
ff5074af:	ff 1a                	lcall  *(%edx)
ff5074b1:	51                   	push   %ecx
ff5074b2:	50                   	push   %eax
ff5074b3:	ff 47 51             	incl   0x51(%edi)
ff5074b6:	50                   	push   %eax
ff5074b7:	ff d0                	call   *%eax
ff5074b9:	51                   	push   %ecx
ff5074ba:	50                   	push   %eax
ff5074bb:	ff 67 65             	jmp    *0x65(%edi)

ff5074bc <__func__.1567>:
ff5074bc:	67                   	addr16
ff5074bd:	65                   	gs
ff5074be:	74 46                	je     ff507506 <__func__.1567+0x4a>
ff5074c0:	72 65                	jb     ff507527 <__func__.1567+0x6b>
ff5074c2:	65                   	gs
ff5074c3:	54                   	push   %esp
ff5074c4:	49                   	dec    %ecx
ff5074c5:	44                   	inc    %esp
ff5074c6:	00 4c 61 73          	add    %cl,0x73(%ecx,%eiz,2)
ff5074ca:	74 20                	je     ff5074ec <__func__.1567+0x30>
ff5074cc:	74 69                	je     ff507537 <__func__.1567+0x7b>
ff5074ce:	64 3a 20             	cmp    %fs:(%eax),%ah
ff5074d1:	25 64 0a 00 00       	and    $0xa64,%eax
ff5074d6:	00 00                	add    %al,(%eax)
ff5074d8:	4c                   	dec    %esp
ff5074d9:	61                   	popa   
ff5074da:	73 74                	jae    ff507550 <__func__.1614+0x3>
ff5074dc:	20 73 74             	and    %dh,0x74(%ebx)
ff5074df:	61                   	popa   
ff5074e0:	74 65                	je     ff507547 <__func__.1567+0x8b>
ff5074e2:	20 69 73             	and    %ch,0x73(%ecx)
ff5074e5:	20 73 74             	and    %dh,0x74(%ebx)
ff5074e8:	69 6c 6c 20 44 45 41 	imul   $0x44414544,0x20(%esp,%ebp,2),%ebp
ff5074ef:	44 
ff5074f0:	28 6f 6b             	sub    %ch,0x6b(%edi)
ff5074f3:	20 74 68 65          	and    %dh,0x65(%eax,%ebp,2)
ff5074f7:	20 66 69             	and    %ah,0x69(%esi)
ff5074fa:	72 73                	jb     ff50756f <__func__.1614+0x22>
ff5074fc:	74 20                	je     ff50751e <__func__.1567+0x62>
ff5074fe:	74 69                	je     ff507569 <__func__.1614+0x1c>
ff507500:	6d                   	insl   (%dx),%es:(%edi)
ff507501:	65 29 2e             	sub    %ebp,%gs:(%esi)
ff507504:	0a 00                	or     (%eax),%al
ff507506:	61                   	popa   
ff507507:	6c                   	insb   (%dx),%es:(%edi)
ff507508:	6c                   	insb   (%dx),%es:(%edi)
ff507509:	6f                   	outsl  %ds:(%esi),(%dx)
ff50750a:	63 61 74             	arpl   %sp,0x74(%ecx)
ff50750d:	65 64 20 74 69 64    	and    %dh,%fs:%gs:0x64(%ecx,%ebp,2)
ff507513:	0a 00                	or     (%eax),%al
ff507515:	45                   	inc    %ebp
ff507516:	78 68                	js     ff507580 <__func__.1614+0x33>
ff507518:	61                   	popa   
ff507519:	75 73                	jne    ff50758e <__func__.1614+0x41>
ff50751b:	74 65                	je     ff507582 <__func__.1614+0x35>
ff50751d:	64 20 61 6c          	and    %ah,%fs:0x6c(%ecx)
ff507521:	6c                   	insb   (%dx),%es:(%edi)
ff507522:	20 54 49 44          	and    %dl,0x44(%ecx,%ecx,2)
ff507526:	53                   	push   %ebx
ff507527:	21 00                	and    %eax,(%eax)
ff507529:	74 68                	je     ff507593 <__func__.1614+0x46>
ff50752b:	72 65                	jb     ff507592 <__func__.1614+0x45>
ff50752d:	61                   	popa   
ff50752e:	64 2e 63 00          	arpl   %ax,%cs:%fs:(%eax)
ff507532:	3c 27                	cmp    $0x27,%al
ff507534:	25 73 27 20 25       	and    $0x25202773,%eax
ff507539:	73 3a                	jae    ff507575 <__func__.1614+0x28>
ff50753b:	20 25 64 3e 20 52    	and    %ah,0x52203e64
ff507541:	65                   	gs
ff507542:	74 3a                	je     ff50757e <__func__.1614+0x31>
ff507544:	20 25 64 2e 20 25    	and    %ah,0x25202e64
ff50754a:	73 0a                	jae    ff507556 <__func__.1614+0x9>
	...

ff50754d <__func__.1614>:
ff50754d:	73 74                	jae    ff5075c3 <__func__.1640+0x2d>
ff50754f:	61                   	popa   
ff507550:	72 74                	jb     ff5075c6 <__func__.1640+0x30>
ff507552:	54                   	push   %esp
ff507553:	68 72 65 61 64       	push   $0x64616572
ff507558:	00 74 68 72          	add    %dh,0x72(%eax,%ebp,2)
ff50755c:	65                   	gs
ff50755d:	61                   	popa   
ff50755e:	64 20 21             	and    %ah,%fs:(%ecx)
ff507561:	3d 20 4e 55 4c       	cmp    $0x4c554e20,%eax
ff507566:	4c                   	dec    %esp
ff507567:	00 74 68 72          	add    %dh,0x72(%eax,%ebp,2)
ff50756b:	65                   	gs
ff50756c:	61                   	popa   
ff50756d:	64 20 21             	and    %ah,%fs:(%ecx)
ff507570:	3d 20 63 75 72       	cmp    $0x72756320,%eax
ff507575:	72 65                	jb     ff5075dc <__func__.1640+0x46>
ff507577:	6e                   	outsb  %ds:(%esi),(%dx)
ff507578:	74 54                	je     ff5075ce <__func__.1640+0x38>
ff50757a:	68 72 65 61 64       	push   $0x64616572
ff50757f:	00 74 68 72          	add    %dh,0x72(%eax,%ebp,2)
ff507583:	65                   	gs
ff507584:	61                   	popa   
ff507585:	64                   	fs
ff507586:	2d 3e 73 74 61       	sub    $0x6174733e,%eax
ff50758b:	74 65                	je     ff5075f2 <__func__.1640+0x5c>
ff50758d:	20 21                	and    %ah,(%ecx)
ff50758f:	3d 20 44 45 41       	cmp    $0x41454420,%eax
ff507594:	44                   	inc    %esp
	...

ff507596 <__func__.1640>:
ff507596:	73 6c                	jae    ff507604 <__func__.1700+0x3>
ff507598:	65                   	gs
ff507599:	65                   	gs
ff50759a:	70 54                	jo     ff5075f0 <__func__.1640+0x5a>
ff50759c:	68 72 65 61 64       	push   $0x64616572
ff5075a1:	00 6d 73             	add    %ch,0x73(%ebp)
ff5075a4:	65 63 73 20          	arpl   %si,%gs:0x20(%ebx)
ff5075a8:	3e 20 30             	and    %dh,%ds:(%eax)
ff5075ab:	00 41 6c             	add    %al,0x6c(%ecx)
ff5075ae:	72 65                	jb     ff507615 <__func__.1700+0x14>
ff5075b0:	61                   	popa   
ff5075b1:	64                   	fs
ff5075b2:	79 20                	jns    ff5075d4 <__func__.1640+0x3e>
ff5075b4:	73 6c                	jae    ff507622 <__func__.1700+0x21>
ff5075b6:	65                   	gs
ff5075b7:	65                   	gs
ff5075b8:	70 69                	jo     ff507623 <__func__.1700+0x22>
ff5075ba:	6e                   	outsb  %ds:(%esi),(%dx)
ff5075bb:	67 21 00             	addr16 and %eax,(%bx,%si)
ff5075be:	73 6c                	jae    ff50762c <__func__.1700+0x2b>
ff5075c0:	65                   	gs
ff5075c1:	65                   	gs
ff5075c2:	70 54                	jo     ff507618 <__func__.1700+0x17>
ff5075c4:	68 72 65 61 64       	push   $0x64616572
ff5075c9:	28 29                	sub    %ch,(%ecx)
ff5075cb:	20 66 61             	and    %ah,0x61(%esi)
ff5075ce:	69 6c 65 64 21 0a 00 	imul   $0x66000a21,0x64(%ebp,%eiz,2),%ebp
ff5075d5:	66 
ff5075d6:	61                   	popa   
ff5075d7:	6c                   	insb   (%dx),%es:(%edi)
ff5075d8:	73 65                	jae    ff50763f <__func__.1722+0x2>
ff5075da:	00 00                	add    %al,(%eax)
ff5075dc:	74 68                	je     ff507646 <__func__.1722+0x9>
ff5075de:	72 65                	jb     ff507645 <__func__.1722+0x8>
ff5075e0:	61                   	popa   
ff5075e1:	64 20 3d 3d 20 26 74 	and    %bh,%fs:0x7426203d
ff5075e8:	63 62 54             	arpl   %sp,0x54(%edx)
ff5075eb:	61                   	popa   
ff5075ec:	62 6c 65 5b          	bound  %ebp,0x5b(%ebp,%eiz,2)
ff5075f0:	47                   	inc    %edi
ff5075f1:	45                   	inc    %ebp
ff5075f2:	54                   	push   %esp
ff5075f3:	5f                   	pop    %edi
ff5075f4:	54                   	push   %esp
ff5075f5:	49                   	dec    %ecx
ff5075f6:	44                   	inc    %esp
ff5075f7:	28 74 68 72          	sub    %dh,0x72(%eax,%ebp,2)
ff5075fb:	65                   	gs
ff5075fc:	61                   	popa   
ff5075fd:	64 29 5d 00          	sub    %ebx,%fs:0x0(%ebp)

ff507601 <__func__.1700>:
ff507601:	70 61                	jo     ff507664 <__func__.1722+0x27>
ff507603:	75 73                	jne    ff507678 <__func__.1722+0x3b>
ff507605:	65                   	gs
ff507606:	54                   	push   %esp
ff507607:	68 72 65 61 64       	push   $0x64616572
ff50760c:	00 4e 55             	add    %cl,0x55(%esi)
ff50760f:	4c                   	dec    %esp
ff507610:	4c                   	dec    %esp
ff507611:	20 70 74             	and    %dh,0x74(%eax)
ff507614:	72 00                	jb     ff507616 <__func__.1700+0x15>
ff507616:	41                   	inc    %ecx
ff507617:	6c                   	insb   (%dx),%es:(%edi)
ff507618:	72 65                	jb     ff50767f <__func__.1722+0x42>
ff50761a:	61                   	popa   
ff50761b:	64                   	fs
ff50761c:	79 20                	jns    ff50763e <__func__.1722+0x1>
ff50761e:	50                   	push   %eax
ff50761f:	61                   	popa   
ff507620:	75 73                	jne    ff507695 <__func__.1722+0x58>
ff507622:	65 64 00 50 61       	add    %dl,%fs:%gs:0x61(%eax)
ff507627:	75 73                	jne    ff50769c <__func__.1722+0x5f>
ff507629:	65 64 20 66 72       	and    %ah,%fs:%gs:0x72(%esi)
ff50762e:	6f                   	outsl  %ds:(%esi),(%dx)
ff50762f:	6d                   	insl   (%dx),%es:(%edi)
ff507630:	20 6f 74             	and    %ch,0x74(%edi)
ff507633:	68 65 72 20 73       	push   $0x73207265
ff507638:	74 61                	je     ff50769b <__func__.1722+0x5e>
ff50763a:	74 65                	je     ff5076a1 <__func__.1722+0x64>
	...

ff50763d <__func__.1722>:
ff50763d:	63 72 65             	arpl   %si,0x65(%edx)
ff507640:	61                   	popa   
ff507641:	74 65                	je     ff5076a8 <__func__.1722+0x6b>
ff507643:	54                   	push   %esp
ff507644:	68 72 65 61 64       	push   $0x64616572
ff507649:	00 00                	add    %al,(%eax)
ff50764b:	00 61 64             	add    %ah,0x64(%ecx)
ff50764e:	64                   	fs
ff50764f:	72 53                	jb     ff5076a4 <__func__.1722+0x67>
ff507651:	70 61                	jo     ff5076b4 <__func__.1722+0x77>
ff507653:	63 65 20             	arpl   %sp,0x20(%ebp)
ff507656:	21 3d 20 28 61 64    	and    %edi,0x64612820
ff50765c:	64                   	fs
ff50765d:	72 5f                	jb     ff5076be <__func__.1722+0x81>
ff50765f:	74 29                	je     ff50768a <__func__.1722+0x4d>
ff507661:	4e                   	dec    %esi
ff507662:	55                   	push   %ebp
ff507663:	4c                   	dec    %esp
ff507664:	4c                   	dec    %esp
ff507665:	5f                   	pop    %edi
ff507666:	50                   	push   %eax
ff507667:	41                   	inc    %ecx
ff507668:	44                   	inc    %esp
ff507669:	44                   	inc    %esp
ff50766a:	52                   	push   %edx
ff50766b:	00 74 68 72          	add    %dh,0x72(%eax,%ebp,2)
ff50766f:	65                   	gs
ff507670:	61                   	popa   
ff507671:	64                   	fs
ff507672:	41                   	inc    %ecx
ff507673:	64                   	fs
ff507674:	64                   	fs
ff507675:	72 20                	jb     ff507697 <__func__.1722+0x5a>
ff507677:	21 3d 20 4e 55 4c    	and    %edi,0x4c554e20
ff50767d:	4c                   	dec    %esp
ff50767e:	00 65 78             	add    %ah,0x78(%ebp)
ff507681:	48                   	dec    %eax
ff507682:	61                   	popa   
ff507683:	6e                   	outsb  %ds:(%esi),(%dx)
ff507684:	64                   	fs
ff507685:	6c                   	insb   (%dx),%es:(%edi)
ff507686:	65                   	gs
ff507687:	72 20                	jb     ff5076a9 <__func__.1722+0x6c>
ff507689:	21 3d 20 4e 55 4c    	and    %edi,0x4c554e20
ff50768f:	4c                   	dec    %esp
ff507690:	5f                   	pop    %edi
ff507691:	54                   	push   %esp
ff507692:	49                   	dec    %ecx
ff507693:	44                   	inc    %esp
ff507694:	00 4e 55             	add    %cl,0x55(%esi)
ff507697:	4c                   	dec    %esp
ff507698:	4c                   	dec    %esp
ff507699:	20 74 68 72          	and    %dh,0x72(%eax,%ebp,2)
ff50769d:	65                   	gs
ff50769e:	61                   	popa   
ff50769f:	64 20 61 64          	and    %ah,%fs:0x64(%ecx)
ff5076a3:	64                   	fs
ff5076a4:	72 00                	jb     ff5076a6 <__func__.1722+0x69>
ff5076a6:	4e                   	dec    %esi
ff5076a7:	55                   	push   %ebp
ff5076a8:	4c                   	dec    %esp
ff5076a9:	4c                   	dec    %esp
ff5076aa:	20 65 78             	and    %ah,0x78(%ebp)
ff5076ad:	48                   	dec    %eax
ff5076ae:	61                   	popa   
ff5076af:	6e                   	outsb  %ds:(%esi),(%dx)
ff5076b0:	64                   	fs
ff5076b1:	6c                   	insb   (%dx),%es:(%edi)
ff5076b2:	65                   	gs
ff5076b3:	72 00                	jb     ff5076b5 <__func__.1722+0x78>
ff5076b5:	4e                   	dec    %esi
ff5076b6:	55                   	push   %ebp
ff5076b7:	4c                   	dec    %esp
ff5076b8:	4c                   	dec    %esp
ff5076b9:	20 61 64             	and    %ah,0x64(%ecx)
ff5076bc:	64                   	fs
ff5076bd:	72 53                	jb     ff507712 <__func__.1722+0xd5>
ff5076bf:	70 61                	jo     ff507722 <__func__.1722+0xe5>
ff5076c1:	63 65 00             	arpl   %sp,0x0(%ebp)
ff5076c4:	4e                   	dec    %esi
ff5076c5:	55                   	push   %ebp
ff5076c6:	4c                   	dec    %esp
ff5076c7:	4c                   	dec    %esp
ff5076c8:	20 74 69 64          	and    %dh,0x64(%ecx,%ebp,2)
ff5076cc:	00 54 49 44          	add    %dl,0x44(%ecx,%ecx,2)
ff5076d0:	3a 20                	cmp    (%eax),%ah
ff5076d2:	25 64 20 54 68       	and    $0x68542064,%eax
ff5076d7:	72 65                	jb     ff50773e <__func__.1722+0x101>
ff5076d9:	61                   	popa   
ff5076da:	64 3a 20             	cmp    %fs:(%eax),%ah
ff5076dd:	30 78 25             	xor    %bh,0x25(%eax)
ff5076e0:	78 0a                	js     ff5076ec <__func__.1722+0xaf>
ff5076e2:	00 00                	add    %al,(%eax)
ff5076e4:	74 68                	je     ff50774e <__func__.1788+0xe>
ff5076e6:	72 65                	jb     ff50774d <__func__.1788+0xd>
ff5076e8:	61                   	popa   
ff5076e9:	64                   	fs
ff5076ea:	2d 3e 61 64 64       	sub    $0x6464613e,%eax
ff5076ef:	72 53                	jb     ff507744 <__func__.1788+0x4>
ff5076f1:	70 61                	jo     ff507754 <__func__.1788+0x14>
ff5076f3:	63 65 20             	arpl   %sp,0x20(%ebp)
ff5076f6:	3d 3d 20 74 63       	cmp    $0x6374203d,%eax
ff5076fb:	62 54 61 62          	bound  %edx,0x62(%ecx,%eiz,2)
ff5076ff:	6c                   	insb   (%dx),%es:(%edi)
ff507700:	65                   	gs
ff507701:	5b                   	pop    %ebx
ff507702:	74 69                	je     ff50776d <__func__.1788+0x2d>
ff507704:	64                   	fs
ff507705:	5d                   	pop    %ebp
ff507706:	2e                   	cs
ff507707:	61                   	popa   
ff507708:	64                   	fs
ff507709:	64                   	fs
ff50770a:	72 53                	jb     ff50775f <__func__.1788+0x1f>
ff50770c:	70 61                	jo     ff50776f <__func__.1788+0x2f>
ff50770e:	63 65 00             	arpl   %sp,0x0(%ebp)
ff507711:	00 00                	add    %al,(%eax)
ff507713:	00 28                	add    %ch,(%eax)
ff507715:	75 33                	jne    ff50774a <__func__.1788+0xa>
ff507717:	32 29                	xor    (%ecx),%ch
ff507719:	61                   	popa   
ff50771a:	64                   	fs
ff50771b:	64                   	fs
ff50771c:	72 53                	jb     ff507771 <__func__.1462>
ff50771e:	70 61                	jo     ff507781 <__func__.1462+0x10>
ff507720:	63 65 20             	arpl   %sp,0x20(%ebp)
ff507723:	3d 3d 20 28 28       	cmp    $0x2828203d,%eax
ff507728:	75 33                	jne    ff50775d <__func__.1788+0x1d>
ff50772a:	32 29                	xor    (%ecx),%ch
ff50772c:	61                   	popa   
ff50772d:	64                   	fs
ff50772e:	64                   	fs
ff50772f:	72 53                	jb     ff507784 <__func__.1462+0x13>
ff507731:	70 61                	jo     ff507794 <__func__.1473+0x8>
ff507733:	63 65 20             	arpl   %sp,0x20(%ebp)
ff507736:	26 20 7e 30          	and    %bh,%es:0x30(%esi)
ff50773a:	78 46                	js     ff507782 <__func__.1462+0x11>
ff50773c:	46                   	inc    %esi
ff50773d:	46                   	inc    %esi
ff50773e:	29 00                	sub    %eax,(%eax)

ff507740 <__func__.1788>:
ff507740:	72 65                	jb     ff5077a7 <__func__.1487+0x9>
ff507742:	6c                   	insb   (%dx),%es:(%edi)
ff507743:	65                   	gs
ff507744:	61                   	popa   
ff507745:	73 65                	jae    ff5077ac <__func__.1487+0xe>
ff507747:	54                   	push   %esp
ff507748:	68 72 65 61 64       	push   $0x64616572
ff50774d:	00 63 75             	add    %ah,0x75(%ebx)
ff507750:	72 72                	jb     ff5077c4 <__func__.1487+0x26>
ff507752:	54                   	push   %esp
ff507753:	68 72 65 61 64       	push   $0x64616572
ff507758:	20 21                	and    %ah,(%ecx)
ff50775a:	3d 20 4e 55 4c       	cmp    $0x4c554e20,%eax
ff50775f:	4c                   	dec    %esp
ff507760:	00 74 69 64          	add    %dh,0x64(%ecx,%ebp,2)
ff507764:	20 21                	and    %ah,(%ecx)
ff507766:	3d 20 4e 55 4c       	cmp    $0x4c554e20,%eax
ff50776b:	4c                   	dec    %esp
ff50776c:	5f                   	pop    %edi
ff50776d:	54                   	push   %esp
ff50776e:	49                   	dec    %ecx
ff50776f:	44                   	inc    %esp
	...

ff507771 <__func__.1462>:
ff507771:	73 79                	jae    ff5077ec <__func__.1533+0x10>
ff507773:	73 55                	jae    ff5077ca <__func__.1487+0x2c>
ff507775:	6e                   	outsb  %ds:(%esi),(%dx)
ff507776:	6d                   	insl   (%dx),%es:(%edi)
ff507777:	61                   	popa   
ff507778:	70 00                	jo     ff50777a <__func__.1462+0x9>
ff50777a:	76 6d                	jbe    ff5077e9 <__func__.1533+0xd>
ff50777c:	6d                   	insl   (%dx),%es:(%edi)
ff50777d:	2e 63 00             	arpl   %ax,%cs:(%eax)
ff507780:	74 63                	je     ff5077e5 <__func__.1533+0x9>
ff507782:	62 20                	bound  %esp,(%eax)
ff507784:	21 3d 20 4e 55 4c    	and    %edi,0x4c554e20
ff50778a:	4c                   	dec    %esp
	...

ff50778c <__func__.1473>:
ff50778c:	73 79                	jae    ff507807 <__func__.1560+0xa>
ff50778e:	73 55                	jae    ff5077e5 <__func__.1533+0x9>
ff507790:	6e                   	outsb  %ds:(%esi),(%dx)
ff507791:	6d                   	insl   (%dx),%es:(%edi)
ff507792:	61                   	popa   
ff507793:	70 50                	jo     ff5077e5 <__func__.1533+0x9>
ff507795:	61                   	popa   
ff507796:	67                   	addr16
ff507797:	65                   	gs
ff507798:	54                   	push   %esp
ff507799:	61                   	popa   
ff50779a:	62 6c 65 00          	bound  %ebp,0x0(%ebp,%eiz,2)

ff50779e <__func__.1487>:
ff50779e:	73 79                	jae    ff507819 <__func__.1560+0x1c>
ff5077a0:	73 4d                	jae    ff5077ef <__func__.1533+0x13>
ff5077a2:	61                   	popa   
ff5077a3:	70 00                	jo     ff5077a5 <__func__.1487+0x7>
ff5077a5:	70 68                	jo     ff50780f <__func__.1560+0x12>
ff5077a7:	79 73                	jns    ff50781c <__func__.1560+0x1f>
ff5077a9:	20 21                	and    %ah,(%ecx)
ff5077ab:	3d 20 28 61 64       	cmp    $0x64612820,%eax
ff5077b0:	64                   	fs
ff5077b1:	72 5f                	jb     ff507812 <__func__.1560+0x15>
ff5077b3:	74 29                	je     ff5077de <__func__.1533+0x2>
ff5077b5:	4e                   	dec    %esi
ff5077b6:	55                   	push   %ebp
ff5077b7:	4c                   	dec    %esp
ff5077b8:	4c                   	dec    %esp
ff5077b9:	5f                   	pop    %edi
ff5077ba:	50                   	push   %eax
ff5077bb:	41                   	inc    %ecx
ff5077bc:	44                   	inc    %esp
ff5077bd:	44                   	inc    %esp
ff5077be:	52                   	push   %edx
ff5077bf:	00 72 65             	add    %dh,0x65(%edx)
ff5077c2:	73 75                	jae    ff507839 <__func__.1560+0x3c>
ff5077c4:	6c                   	insb   (%dx),%es:(%edi)
ff5077c5:	74 20                	je     ff5077e7 <__func__.1533+0xb>
ff5077c7:	3d 3d 20 30 00       	cmp    $0x30203d,%eax

ff5077cc <__func__.1510>:
ff5077cc:	73 79                	jae    ff507847 <__func__.1560+0x4a>
ff5077ce:	73 4d                	jae    ff50781d <__func__.1560+0x20>
ff5077d0:	61                   	popa   
ff5077d1:	70 50                	jo     ff507823 <__func__.1560+0x26>
ff5077d3:	61                   	popa   
ff5077d4:	67                   	addr16
ff5077d5:	65                   	gs
ff5077d6:	54                   	push   %esp
ff5077d7:	61                   	popa   
ff5077d8:	62 6c 65 00          	bound  %ebp,0x0(%ebp,%eiz,2)

ff5077dc <__func__.1533>:
ff5077dc:	73 79                	jae    ff507857 <__func__.1560+0x5a>
ff5077de:	73 47                	jae    ff507827 <__func__.1560+0x2a>
ff5077e0:	72 61                	jb     ff507843 <__func__.1560+0x46>
ff5077e2:	6e                   	outsb  %ds:(%esi),(%dx)
ff5077e3:	74 00                	je     ff5077e5 <__func__.1533+0x9>
ff5077e5:	61                   	popa   
ff5077e6:	64                   	fs
ff5077e7:	64                   	fs
ff5077e8:	72 53                	jb     ff50783d <__func__.1560+0x40>
ff5077ea:	70 61                	jo     ff50784d <__func__.1560+0x50>
ff5077ec:	63 65 20             	arpl   %sp,0x20(%ebp)
ff5077ef:	21 3d 20 4e 55 4c    	and    %edi,0x4c554e20
ff5077f5:	4c                   	dec    %esp
ff5077f6:	5f                   	pop    %edi
ff5077f7:	50                   	push   %eax
ff5077f8:	41                   	inc    %ecx
ff5077f9:	44                   	inc    %esp
ff5077fa:	44                   	inc    %esp
ff5077fb:	52                   	push   %edx
	...

ff5077fd <__func__.1560>:
ff5077fd:	73 79                	jae    ff507878 <__func__.1560+0x7b>
ff5077ff:	73 47                	jae    ff507848 <__func__.1560+0x4b>
ff507801:	72 61                	jb     ff507864 <__func__.1560+0x67>
ff507803:	6e                   	outsb  %ds:(%esi),(%dx)
ff507804:	74 50                	je     ff507856 <__func__.1560+0x59>
ff507806:	61                   	popa   
ff507807:	67                   	addr16
ff507808:	65                   	gs
ff507809:	54                   	push   %esp
ff50780a:	61                   	popa   
ff50780b:	62 6c 65 00          	bound  %ebp,0x0(%ebp,%eiz,2)
ff50780f:	00 47 43             	add    %al,0x43(%edi)
ff507812:	43                   	inc    %ebx
ff507813:	3a 20                	cmp    (%eax),%ah
ff507815:	28 55 62             	sub    %dl,0x62(%ebp)
ff507818:	75 6e                	jne    ff507888 <__func__.1560+0x8b>
ff50781a:	74 75                	je     ff507891 <__func__.1560+0x94>
ff50781c:	20 34 2e             	and    %dh,(%esi,%ebp,1)
ff50781f:	33 2e                	xor    (%esi),%ebp
ff507821:	33 2d 35 75 62 75    	xor    0x75627535,%ebp
ff507827:	6e                   	outsb  %ds:(%esi),(%dx)
ff507828:	74 75                	je     ff50789f <__func__.1560+0xa2>
ff50782a:	34 29                	xor    $0x29,%al
ff50782c:	20 34 2e             	and    %dh,(%esi,%ebp,1)
ff50782f:	33 2e                	xor    (%esi),%ebp
ff507831:	33 00                	xor    (%eax),%eax
ff507833:	00 54 68 65          	add    %dl,0x65(%eax,%ebp,2)
ff507837:	20 4e 65             	and    %cl,0x65(%esi)
ff50783a:	74 77                	je     ff5078b3 <__func__.1560+0xb6>
ff50783c:	69 64 65 20 41 73 73 	imul   $0x65737341,0x20(%ebp,%eiz,2),%esp
ff507843:	65 
ff507844:	6d                   	insl   (%dx),%es:(%edi)
ff507845:	62 6c 65 72          	bound  %ebp,0x72(%ebp,%eiz,2)
ff507849:	20 32                	and    %dh,(%edx)
ff50784b:	2e 30 35 2e 30 31 00 	xor    %dh,%cs:0x31302e
ff507852:	00 47 43             	add    %al,0x43(%edi)
ff507855:	43                   	inc    %ebx
ff507856:	3a 20                	cmp    (%eax),%ah
ff507858:	28 55 62             	sub    %dl,0x62(%ebp)
ff50785b:	75 6e                	jne    ff5078cb <__func__.1560+0xce>
ff50785d:	74 75                	je     ff5078d4 <__func__.1560+0xd7>
ff50785f:	20 34 2e             	and    %dh,(%esi,%ebp,1)
ff507862:	33 2e                	xor    (%esi),%ebp
ff507864:	33 2d 35 75 62 75    	xor    0x75627535,%ebp
ff50786a:	6e                   	outsb  %ds:(%esi),(%dx)
ff50786b:	74 75                	je     ff5078e2 <__func__.1560+0xe5>
ff50786d:	34 29                	xor    $0x29,%al
ff50786f:	20 34 2e             	and    %dh,(%esi,%ebp,1)
ff507872:	33 2e                	xor    (%esi),%ebp
ff507874:	33 00                	xor    (%eax),%eax
ff507876:	00 54 68 65          	add    %dl,0x65(%eax,%ebp,2)
ff50787a:	20 4e 65             	and    %cl,0x65(%esi)
ff50787d:	74 77                	je     ff5078f6 <__func__.1560+0xf9>
ff50787f:	69 64 65 20 41 73 73 	imul   $0x65737341,0x20(%ebp,%eiz,2),%esp
ff507886:	65 
ff507887:	6d                   	insl   (%dx),%es:(%edi)
ff507888:	62 6c 65 72          	bound  %ebp,0x72(%ebp,%eiz,2)
ff50788c:	20 32                	and    %dh,(%edx)
ff50788e:	2e 30 35 2e 30 31 00 	xor    %dh,%cs:0x31302e
ff507895:	00 47 43             	add    %al,0x43(%edi)
ff507898:	43                   	inc    %ebx
ff507899:	3a 20                	cmp    (%eax),%ah
ff50789b:	28 55 62             	sub    %dl,0x62(%ebp)
ff50789e:	75 6e                	jne    ff50790e <__func__.1560+0x111>
ff5078a0:	74 75                	je     ff507917 <__func__.1560+0x11a>
ff5078a2:	20 34 2e             	and    %dh,(%esi,%ebp,1)
ff5078a5:	33 2e                	xor    (%esi),%ebp
ff5078a7:	33 2d 35 75 62 75    	xor    0x75627535,%ebp
ff5078ad:	6e                   	outsb  %ds:(%esi),(%dx)
ff5078ae:	74 75                	je     ff507925 <__func__.1560+0x128>
ff5078b0:	34 29                	xor    $0x29,%al
ff5078b2:	20 34 2e             	and    %dh,(%esi,%ebp,1)
ff5078b5:	33 2e                	xor    (%esi),%ebp
ff5078b7:	33 00                	xor    (%eax),%eax
ff5078b9:	00 54 68 65          	add    %dl,0x65(%eax,%ebp,2)
ff5078bd:	20 4e 65             	and    %cl,0x65(%esi)
ff5078c0:	74 77                	je     ff507939 <__func__.1560+0x13c>
ff5078c2:	69 64 65 20 41 73 73 	imul   $0x65737341,0x20(%ebp,%eiz,2),%esp
ff5078c9:	65 
ff5078ca:	6d                   	insl   (%dx),%es:(%edi)
ff5078cb:	62 6c 65 72          	bound  %ebp,0x72(%ebp,%eiz,2)
ff5078cf:	20 32                	and    %dh,(%edx)
ff5078d1:	2e 30 35 2e 30 31 00 	xor    %dh,%cs:0x31302e
ff5078d8:	00 54 68 65          	add    %dl,0x65(%eax,%ebp,2)
ff5078dc:	20 4e 65             	and    %cl,0x65(%esi)
ff5078df:	74 77                	je     ff507958 <__func__.1560+0x15b>
ff5078e1:	69 64 65 20 41 73 73 	imul   $0x65737341,0x20(%ebp,%eiz,2),%esp
ff5078e8:	65 
ff5078e9:	6d                   	insl   (%dx),%es:(%edi)
ff5078ea:	62 6c 65 72          	bound  %ebp,0x72(%ebp,%eiz,2)
ff5078ee:	20 32                	and    %dh,(%edx)
ff5078f0:	2e 30 35 2e 30 31 00 	xor    %dh,%cs:0x31302e
ff5078f7:	00 47 43             	add    %al,0x43(%edi)
ff5078fa:	43                   	inc    %ebx
ff5078fb:	3a 20                	cmp    (%eax),%ah
ff5078fd:	28 55 62             	sub    %dl,0x62(%ebp)
ff507900:	75 6e                	jne    ff507970 <__func__.1560+0x173>
ff507902:	74 75                	je     ff507979 <__func__.1560+0x17c>
ff507904:	20 34 2e             	and    %dh,(%esi,%ebp,1)
ff507907:	33 2e                	xor    (%esi),%ebp
ff507909:	33 2d 35 75 62 75    	xor    0x75627535,%ebp
ff50790f:	6e                   	outsb  %ds:(%esi),(%dx)
ff507910:	74 75                	je     ff507987 <__func__.1560+0x18a>
ff507912:	34 29                	xor    $0x29,%al
ff507914:	20 34 2e             	and    %dh,(%esi,%ebp,1)
ff507917:	33 2e                	xor    (%esi),%ebp
ff507919:	33 00                	xor    (%eax),%eax
ff50791b:	00 54 68 65          	add    %dl,0x65(%eax,%ebp,2)
ff50791f:	20 4e 65             	and    %cl,0x65(%esi)
ff507922:	74 77                	je     ff50799b <__func__.1560+0x19e>
ff507924:	69 64 65 20 41 73 73 	imul   $0x65737341,0x20(%ebp,%eiz,2),%esp
ff50792b:	65 
ff50792c:	6d                   	insl   (%dx),%es:(%edi)
ff50792d:	62 6c 65 72          	bound  %ebp,0x72(%ebp,%eiz,2)
ff507931:	20 32                	and    %dh,(%edx)
ff507933:	2e 30 35 2e 30 31 00 	xor    %dh,%cs:0x31302e
ff50793a:	00 47 43             	add    %al,0x43(%edi)
ff50793d:	43                   	inc    %ebx
ff50793e:	3a 20                	cmp    (%eax),%ah
ff507940:	28 55 62             	sub    %dl,0x62(%ebp)
ff507943:	75 6e                	jne    ff5079b3 <__func__.1560+0x1b6>
ff507945:	74 75                	je     ff5079bc <__func__.1560+0x1bf>
ff507947:	20 34 2e             	and    %dh,(%esi,%ebp,1)
ff50794a:	33 2e                	xor    (%esi),%ebp
ff50794c:	33 2d 35 75 62 75    	xor    0x75627535,%ebp
ff507952:	6e                   	outsb  %ds:(%esi),(%dx)
ff507953:	74 75                	je     ff5079ca <__func__.1560+0x1cd>
ff507955:	34 29                	xor    $0x29,%al
ff507957:	20 34 2e             	and    %dh,(%esi,%ebp,1)
ff50795a:	33 2e                	xor    (%esi),%ebp
ff50795c:	33 00                	xor    (%eax),%eax
ff50795e:	00 47 43             	add    %al,0x43(%edi)
ff507961:	43                   	inc    %ebx
ff507962:	3a 20                	cmp    (%eax),%ah
ff507964:	28 55 62             	sub    %dl,0x62(%ebp)
ff507967:	75 6e                	jne    ff5079d7 <__func__.1560+0x1da>
ff507969:	74 75                	je     ff5079e0 <__func__.1560+0x1e3>
ff50796b:	20 34 2e             	and    %dh,(%esi,%ebp,1)
ff50796e:	33 2e                	xor    (%esi),%ebp
ff507970:	33 2d 35 75 62 75    	xor    0x75627535,%ebp
ff507976:	6e                   	outsb  %ds:(%esi),(%dx)
ff507977:	74 75                	je     ff5079ee <__func__.1560+0x1f1>
ff507979:	34 29                	xor    $0x29,%al
ff50797b:	20 34 2e             	and    %dh,(%esi,%ebp,1)
ff50797e:	33 2e                	xor    (%esi),%ebp
ff507980:	33 00                	xor    (%eax),%eax
ff507982:	00 47 43             	add    %al,0x43(%edi)
ff507985:	43                   	inc    %ebx
ff507986:	3a 20                	cmp    (%eax),%ah
ff507988:	28 55 62             	sub    %dl,0x62(%ebp)
ff50798b:	75 6e                	jne    ff5079fb <__func__.1560+0x1fe>
ff50798d:	74 75                	je     ff507a04 <__func__.1560+0x207>
ff50798f:	20 34 2e             	and    %dh,(%esi,%ebp,1)
ff507992:	33 2e                	xor    (%esi),%ebp
ff507994:	33 2d 35 75 62 75    	xor    0x75627535,%ebp
ff50799a:	6e                   	outsb  %ds:(%esi),(%dx)
ff50799b:	74 75                	je     ff507a12 <__func__.1560+0x215>
ff50799d:	34 29                	xor    $0x29,%al
ff50799f:	20 34 2e             	and    %dh,(%esi,%ebp,1)
ff5079a2:	33 2e                	xor    (%esi),%ebp
ff5079a4:	33 00                	xor    (%eax),%eax
ff5079a6:	00 47 43             	add    %al,0x43(%edi)
ff5079a9:	43                   	inc    %ebx
ff5079aa:	3a 20                	cmp    (%eax),%ah
ff5079ac:	28 55 62             	sub    %dl,0x62(%ebp)
ff5079af:	75 6e                	jne    ff507a1f <__func__.1560+0x222>
ff5079b1:	74 75                	je     ff507a28 <__func__.1560+0x22b>
ff5079b3:	20 34 2e             	and    %dh,(%esi,%ebp,1)
ff5079b6:	33 2e                	xor    (%esi),%ebp
ff5079b8:	33 2d 35 75 62 75    	xor    0x75627535,%ebp
ff5079be:	6e                   	outsb  %ds:(%esi),(%dx)
ff5079bf:	74 75                	je     ff507a36 <__func__.1560+0x239>
ff5079c1:	34 29                	xor    $0x29,%al
ff5079c3:	20 34 2e             	and    %dh,(%esi,%ebp,1)
ff5079c6:	33 2e                	xor    (%esi),%ebp
ff5079c8:	33 00                	xor    (%eax),%eax
ff5079ca:	00 47 43             	add    %al,0x43(%edi)
ff5079cd:	43                   	inc    %ebx
ff5079ce:	3a 20                	cmp    (%eax),%ah
ff5079d0:	28 55 62             	sub    %dl,0x62(%ebp)
ff5079d3:	75 6e                	jne    ff507a43 <__func__.1560+0x246>
ff5079d5:	74 75                	je     ff507a4c <__func__.1560+0x24f>
ff5079d7:	20 34 2e             	and    %dh,(%esi,%ebp,1)
ff5079da:	33 2e                	xor    (%esi),%ebp
ff5079dc:	33 2d 35 75 62 75    	xor    0x75627535,%ebp
ff5079e2:	6e                   	outsb  %ds:(%esi),(%dx)
ff5079e3:	74 75                	je     ff507a5a <__func__.1560+0x25d>
ff5079e5:	34 29                	xor    $0x29,%al
ff5079e7:	20 34 2e             	and    %dh,(%esi,%ebp,1)
ff5079ea:	33 2e                	xor    (%esi),%ebp
ff5079ec:	33 00                	xor    (%eax),%eax
ff5079ee:	00 47 43             	add    %al,0x43(%edi)
ff5079f1:	43                   	inc    %ebx
ff5079f2:	3a 20                	cmp    (%eax),%ah
ff5079f4:	28 55 62             	sub    %dl,0x62(%ebp)
ff5079f7:	75 6e                	jne    ff507a67 <__func__.1560+0x26a>
ff5079f9:	74 75                	je     ff507a70 <__func__.1560+0x273>
ff5079fb:	20 34 2e             	and    %dh,(%esi,%ebp,1)
ff5079fe:	33 2e                	xor    (%esi),%ebp
ff507a00:	33 2d 35 75 62 75    	xor    0x75627535,%ebp
ff507a06:	6e                   	outsb  %ds:(%esi),(%dx)
ff507a07:	74 75                	je     ff507a7e <__func__.1560+0x281>
ff507a09:	34 29                	xor    $0x29,%al
ff507a0b:	20 34 2e             	and    %dh,(%esi,%ebp,1)
ff507a0e:	33 2e                	xor    (%esi),%ebp
ff507a10:	33 00                	xor    (%eax),%eax
ff507a12:	00 47 43             	add    %al,0x43(%edi)
ff507a15:	43                   	inc    %ebx
ff507a16:	3a 20                	cmp    (%eax),%ah
ff507a18:	28 55 62             	sub    %dl,0x62(%ebp)
ff507a1b:	75 6e                	jne    ff507a8b <__func__.1560+0x28e>
ff507a1d:	74 75                	je     ff507a94 <__func__.1560+0x297>
ff507a1f:	20 34 2e             	and    %dh,(%esi,%ebp,1)
ff507a22:	33 2e                	xor    (%esi),%ebp
ff507a24:	33 2d 35 75 62 75    	xor    0x75627535,%ebp
ff507a2a:	6e                   	outsb  %ds:(%esi),(%dx)
ff507a2b:	74 75                	je     ff507aa2 <__func__.1560+0x2a5>
ff507a2d:	34 29                	xor    $0x29,%al
ff507a2f:	20 34 2e             	and    %dh,(%esi,%ebp,1)
ff507a32:	33 2e                	xor    (%esi),%ebp
ff507a34:	33 00                	xor    (%eax),%eax
ff507a36:	00 47 43             	add    %al,0x43(%edi)
ff507a39:	43                   	inc    %ebx
ff507a3a:	3a 20                	cmp    (%eax),%ah
ff507a3c:	28 55 62             	sub    %dl,0x62(%ebp)
ff507a3f:	75 6e                	jne    ff507aaf <__func__.1560+0x2b2>
ff507a41:	74 75                	je     ff507ab8 <__func__.1560+0x2bb>
ff507a43:	20 34 2e             	and    %dh,(%esi,%ebp,1)
ff507a46:	33 2e                	xor    (%esi),%ebp
ff507a48:	33 2d 35 75 62 75    	xor    0x75627535,%ebp
ff507a4e:	6e                   	outsb  %ds:(%esi),(%dx)
ff507a4f:	74 75                	je     ff507ac6 <__func__.1560+0x2c9>
ff507a51:	34 29                	xor    $0x29,%al
ff507a53:	20 34 2e             	and    %dh,(%esi,%ebp,1)
ff507a56:	33 2e                	xor    (%esi),%ebp
ff507a58:	33 00                	xor    (%eax),%eax
ff507a5a:	00 47 43             	add    %al,0x43(%edi)
ff507a5d:	43                   	inc    %ebx
ff507a5e:	3a 20                	cmp    (%eax),%ah
ff507a60:	28 55 62             	sub    %dl,0x62(%ebp)
ff507a63:	75 6e                	jne    ff507ad3 <__func__.1560+0x2d6>
ff507a65:	74 75                	je     ff507adc <__func__.1560+0x2df>
ff507a67:	20 34 2e             	and    %dh,(%esi,%ebp,1)
ff507a6a:	33 2e                	xor    (%esi),%ebp
ff507a6c:	33 2d 35 75 62 75    	xor    0x75627535,%ebp
ff507a72:	6e                   	outsb  %ds:(%esi),(%dx)
ff507a73:	74 75                	je     ff507aea <__func__.1560+0x2ed>
ff507a75:	34 29                	xor    $0x29,%al
ff507a77:	20 34 2e             	and    %dh,(%esi,%ebp,1)
ff507a7a:	33 2e                	xor    (%esi),%ebp
ff507a7c:	33 00                	xor    (%eax),%eax
ff507a7e:	00 47 43             	add    %al,0x43(%edi)
ff507a81:	43                   	inc    %ebx
ff507a82:	3a 20                	cmp    (%eax),%ah
ff507a84:	28 55 62             	sub    %dl,0x62(%ebp)
ff507a87:	75 6e                	jne    ff507af7 <__func__.1560+0x2fa>
ff507a89:	74 75                	je     ff507b00 <__func__.1560+0x303>
ff507a8b:	20 34 2e             	and    %dh,(%esi,%ebp,1)
ff507a8e:	33 2e                	xor    (%esi),%ebp
ff507a90:	33 2d 35 75 62 75    	xor    0x75627535,%ebp
ff507a96:	6e                   	outsb  %ds:(%esi),(%dx)
ff507a97:	74 75                	je     ff507b0e <__func__.1560+0x311>
ff507a99:	34 29                	xor    $0x29,%al
ff507a9b:	20 34 2e             	and    %dh,(%esi,%ebp,1)
ff507a9e:	33 2e                	xor    (%esi),%ebp
ff507aa0:	33 00                	xor    (%eax),%eax
	...

Disassembly of section .data:

ff508000 <IRQState>:
ff508000:	01 01                	add    %eax,(%ecx)
ff508002:	00 01                	add    %al,(%ecx)
ff508004:	01 01                	add    %eax,(%ecx)
ff508006:	01 01                	add    %eax,(%ecx)
ff508008:	01 00                	add    %eax,(%eax)
ff50800a:	01 01                	add    %eax,(%ecx)
ff50800c:	01 01                	add    %eax,(%ecx)
ff50800e:	01 01                	add    %eax,(%ecx)
	...

ff508020 <IRQHandlers>:
ff508020:	ff                   	(bad)  
ff508021:	ff                   	(bad)  
ff508022:	ff                   	(bad)  
ff508023:	ff                   	(bad)  
ff508024:	ff                   	(bad)  
ff508025:	ff                   	(bad)  
ff508026:	ff                   	(bad)  
ff508027:	ff                   	(bad)  
ff508028:	ff                   	(bad)  
ff508029:	ff                   	(bad)  
ff50802a:	ff                   	(bad)  
ff50802b:	ff                   	(bad)  
ff50802c:	ff                   	(bad)  
ff50802d:	ff                   	(bad)  
ff50802e:	ff                   	(bad)  
ff50802f:	ff                   	(bad)  
ff508030:	ff                   	(bad)  
ff508031:	ff                   	(bad)  
ff508032:	ff                   	(bad)  
ff508033:	ff                   	(bad)  
ff508034:	ff                   	(bad)  
ff508035:	ff                   	(bad)  
ff508036:	ff                   	(bad)  
ff508037:	ff                   	(bad)  
ff508038:	ff                   	(bad)  
ff508039:	ff                   	(bad)  
ff50803a:	ff                   	(bad)  
ff50803b:	ff                   	(bad)  
ff50803c:	ff                   	(bad)  
ff50803d:	ff                   	(bad)  
ff50803e:	ff                   	(bad)  
ff50803f:	ff 00                	incl   (%eax)
	...

Disassembly of section .disc:

ff509000 <kdCode>:
ff509000:	31 c0                	xor    %eax,%eax
ff509002:	b9 00 04 00 00       	mov    $0x400,%ecx
ff509007:	bf 00 10 00 00       	mov    $0x1000,%edi
ff50900c:	fc                   	cld    
ff50900d:	f3 ab                	rep stos %eax,%es:(%edi)
ff50900f:	8d 05 f4 1f 00 00    	lea    0x1ff4,%eax
ff509015:	ba 03 20 00 00       	mov    $0x2003,%edx
ff50901a:	89 10                	mov    %edx,(%eax)
ff50901c:	8d 3d 00 20 00 00    	lea    0x2000,%edi
ff509022:	31 c0                	xor    %eax,%eax
ff509024:	b9 10 00 00 00       	mov    $0x10,%ecx

ff509029 <initPaging.clearPages>:
ff509029:	ab                   	stos   %eax,%es:(%edi)
ff50902a:	e2 fd                	loop   ff509029 <initPaging.clearPages>
ff50902c:	8d 3d 00 20 00 00    	lea    0x2000,%edi
ff509032:	c7 07 03 00 00 00    	movl   $0x3,(%edi)
ff509038:	8d 3d 14 20 00 00    	lea    0x2014,%edi
ff50903e:	b8 03 70 00 00       	mov    $0x7003,%eax
ff509043:	b9 04 00 00 00       	mov    $0x4,%ecx

ff509048 <initPaging.mapFirstTable>:
ff509048:	ab                   	stos   %eax,%es:(%edi)
ff509049:	05 00 10 00 00       	add    $0x1000,%eax
ff50904e:	e2 f8                	loop   ff509048 <initPaging.mapFirstTable>
ff509050:	b8 03 00 01 00       	mov    $0x10003,%eax
ff509055:	b9 f0 00 00 00       	mov    $0xf0,%ecx
ff50905a:	8d 3d 40 20 00 00    	lea    0x2040,%edi

ff509060 <initPaging.mappingLoop>:
ff509060:	ab                   	stos   %eax,%es:(%edi)
ff509061:	05 00 10 00 00       	add    $0x1000,%eax
ff509066:	e2 f8                	loop   ff509060 <initPaging.mappingLoop>
ff509068:	b8 00 00 10 00       	mov    $0x100000,%eax
ff50906d:	c1 e8 16             	shr    $0x16,%eax
ff509070:	8d 88 00 10 00 00    	lea    0x1000(%eax),%ecx
ff509076:	ba 03 20 00 00       	mov    $0x2003,%edx
ff50907b:	89 11                	mov    %edx,(%ecx)
ff50907d:	b9 00 03 00 00       	mov    $0x300,%ecx
ff509082:	b8 00 00 10 00       	mov    $0x100000,%eax
ff509087:	0d 03 00 00 00       	or     $0x3,%eax
ff50908c:	8d 3d 00 24 00 00    	lea    0x2400,%edi

ff509092 <initPaging.mapPhysKernel>:
ff509092:	ab                   	stos   %eax,%es:(%edi)
ff509093:	05 00 10 00 00       	add    $0x1000,%eax
ff509098:	e2 f8                	loop   ff509092 <initPaging.mapPhysKernel>
ff50909a:	b8 00 00 50 ff       	mov    $0xff500000,%eax
ff50909f:	c1 e8 16             	shr    $0x16,%eax
ff5090a2:	8d 88 00 10 00 00    	lea    0x1000(%eax),%ecx
ff5090a8:	ba 03 20 00 00       	mov    $0x2003,%edx
ff5090ad:	89 11                	mov    %edx,(%ecx)
ff5090af:	b9 00 03 00 00       	mov    $0x300,%ecx
ff5090b4:	b8 00 00 10 00       	mov    $0x100000,%eax
ff5090b9:	0d 03 00 00 00       	or     $0x3,%eax
ff5090be:	8d 3d 00 24 00 00    	lea    0x2400,%edi

ff5090c4 <initPaging.mapVirtKernel>:
ff5090c4:	ab                   	stos   %eax,%es:(%edi)
ff5090c5:	05 00 10 00 00       	add    $0x1000,%eax
ff5090ca:	e2 f8                	loop   ff5090c4 <initPaging.mapVirtKernel>
ff5090cc:	8d 0d fc 1f 00 00    	lea    0x1ffc,%ecx
ff5090d2:	ba 00 10 00 00       	mov    $0x1000,%edx
ff5090d7:	81 ca 03 00 00 00    	or     $0x3,%edx
ff5090dd:	89 11                	mov    %edx,(%ecx)
ff5090df:	b8 00 10 00 00       	mov    $0x1000,%eax
ff5090e4:	0f 22 d8             	mov    %eax,%cr3
ff5090e7:	0f 20 c0             	mov    %cr0,%eax
ff5090ea:	0d 00 00 00 80       	or     $0x80000000,%eax
ff5090ef:	0f 22 c0             	mov    %eax,%cr0
ff5090f2:	81 c4 00 00 40 ff    	add    $0xff400000,%esp
ff5090f8:	81 ec 00 20 00 00    	sub    $0x2000,%esp
ff5090fe:	c3                   	ret    

ff5090ff <printErrMsg>:
ff5090ff:	be 56 af 50 ff       	mov    $0xff50af56,%esi
ff509104:	81 c6 00 00 c0 00    	add    $0xc00000,%esi
ff50910a:	bf 00 80 0b 00       	mov    $0xb8000,%edi
ff50910f:	b0 07                	mov    $0x7,%al

ff509111 <printErrMsg.cpyStr>:
ff509111:	80 3e 00             	cmpb   $0x0,(%esi)
ff509114:	74 07                	je     ff50911d <stop>
ff509116:	a4                   	movsb  %ds:(%esi),%es:(%edi)
ff509117:	aa                   	stos   %al,%es:(%edi)
ff509118:	e9 f4 ff ff ff       	jmp    ff509111 <printErrMsg.cpyStr>

ff50911d <stop>:
ff50911d:	f4                   	hlt    
ff50911e:	e9 fa ff ff ff       	jmp    ff50911d <stop>

ff509123 <loadGDT>:
ff509123:	0f 01 15 8d af 50 ff 	lgdtl  0xff50af8d
ff50912a:	66 b8 28 00          	mov    $0x28,%ax
ff50912e:	0f 00 d8             	ltr    %ax
ff509131:	66 b8 00 00          	mov    $0x0,%ax
ff509135:	0f 00 d0             	lldt   %ax
ff509138:	66 b8 10 00          	mov    $0x10,%ax
ff50913c:	8e d8                	mov    %eax,%ds
ff50913e:	8e c0                	mov    %eax,%es
ff509140:	8e d0                	mov    %eax,%ss
ff509142:	ea 49 91 50 ff 08 00 	ljmp   $0x8,$0xff509149

ff509149 <loadCs>:
ff509149:	c3                   	ret    

ff50914a <loadIDT>:
ff50914a:	0f 01 1d 93 af 50 ff 	lidtl  0xff50af93
ff509151:	c3                   	ret    
	...

ff509160 <clearPhysPage>:
ff509160:	55                   	push   %ebp
ff509161:	89 e5                	mov    %esp,%ebp
ff509163:	83 ec 18             	sub    $0x18,%esp
ff509166:	83 7d 08 ff          	cmpl   $0xffffffff,0x8(%ebp)
ff50916a:	75 24                	jne    ff509190 <clearPhysPage+0x30>
ff50916c:	c7 44 24 0c 6e 00 00 	movl   $0x6e,0xc(%esp)
ff509173:	00 
ff509174:	c7 44 24 08 f4 65 50 	movl   $0xff5065f4,0x8(%esp)
ff50917b:	ff 
ff50917c:	c7 44 24 04 02 66 50 	movl   $0xff506602,0x4(%esp)
ff509183:	ff 
ff509184:	c7 04 24 09 66 50 ff 	movl   $0xff506609,(%esp)
ff50918b:	e8 80 73 ff ff       	call   ff500510 <printAssertMsg>
ff509190:	83 7d 08 ff          	cmpl   $0xffffffff,0x8(%ebp)
ff509194:	75 09                	jne    ff50919f <clearPhysPage+0x3f>
ff509196:	c7 45 fc ff ff ff ff 	movl   $0xffffffff,-0x4(%ebp)
ff50919d:	eb 58                	jmp    ff5091f7 <clearPhysPage+0x97>
ff50919f:	c7 44 24 08 02 00 00 	movl   $0x2,0x8(%esp)
ff5091a6:	00 
ff5091a7:	8b 45 08             	mov    0x8(%ebp),%eax
ff5091aa:	89 44 24 04          	mov    %eax,0x4(%esp)
ff5091ae:	c7 04 24 00 30 40 ff 	movl   $0xff403000,(%esp)
ff5091b5:	e8 e6 9a ff ff       	call   ff502ca0 <kMapPage>
ff5091ba:	83 f8 ff             	cmp    $0xffffffff,%eax
ff5091bd:	75 09                	jne    ff5091c8 <clearPhysPage+0x68>
ff5091bf:	c7 45 fc ff ff ff ff 	movl   $0xffffffff,-0x4(%ebp)
ff5091c6:	eb 2f                	jmp    ff5091f7 <clearPhysPage+0x97>
ff5091c8:	c7 44 24 08 00 10 00 	movl   $0x1000,0x8(%esp)
ff5091cf:	00 
ff5091d0:	c7 44 24 04 00 00 00 	movl   $0x0,0x4(%esp)
ff5091d7:	00 
ff5091d8:	c7 04 24 00 30 40 ff 	movl   $0xff403000,(%esp)
ff5091df:	e8 2c 89 ff ff       	call   ff501b10 <memset>
ff5091e4:	c7 04 24 00 30 40 ff 	movl   $0xff403000,(%esp)
ff5091eb:	e8 70 9e ff ff       	call   ff503060 <kUnmapPage>
ff5091f0:	c7 45 fc 00 00 00 00 	movl   $0x0,-0x4(%ebp)
ff5091f7:	8b 45 fc             	mov    -0x4(%ebp),%eax
ff5091fa:	c9                   	leave  
ff5091fb:	c3                   	ret    
ff5091fc:	8d 74 26 00          	lea    0x0(%esi,%eiz,1),%esi

ff509200 <memcmp>:
ff509200:	55                   	push   %ebp
ff509201:	89 e5                	mov    %esp,%ebp
ff509203:	83 ec 04             	sub    $0x4,%esp
ff509206:	83 7d 08 00          	cmpl   $0x0,0x8(%ebp)
ff50920a:	74 06                	je     ff509212 <memcmp+0x12>
ff50920c:	83 7d 0c 00          	cmpl   $0x0,0xc(%ebp)
ff509210:	75 41                	jne    ff509253 <memcmp+0x53>
ff509212:	c7 45 fc ff ff ff ff 	movl   $0xffffffff,-0x4(%ebp)
ff509219:	eb 4e                	jmp    ff509269 <memcmp+0x69>
ff50921b:	8b 45 08             	mov    0x8(%ebp),%eax
ff50921e:	0f b6 10             	movzbl (%eax),%edx
ff509221:	8b 45 0c             	mov    0xc(%ebp),%eax
ff509224:	0f b6 00             	movzbl (%eax),%eax
ff509227:	38 c2                	cmp    %al,%dl
ff509229:	0f 95 c0             	setne  %al
ff50922c:	83 45 08 01          	addl   $0x1,0x8(%ebp)
ff509230:	83 45 0c 01          	addl   $0x1,0xc(%ebp)
ff509234:	84 c0                	test   %al,%al
ff509236:	74 1b                	je     ff509253 <memcmp+0x53>
ff509238:	83 6d 08 01          	subl   $0x1,0x8(%ebp)
ff50923c:	8b 45 08             	mov    0x8(%ebp),%eax
ff50923f:	8b 10                	mov    (%eax),%edx
ff509241:	83 6d 0c 01          	subl   $0x1,0xc(%ebp)
ff509245:	8b 45 0c             	mov    0xc(%ebp),%eax
ff509248:	8b 00                	mov    (%eax),%eax
ff50924a:	89 d1                	mov    %edx,%ecx
ff50924c:	29 c1                	sub    %eax,%ecx
ff50924e:	89 4d fc             	mov    %ecx,-0x4(%ebp)
ff509251:	eb 16                	jmp    ff509269 <memcmp+0x69>
ff509253:	83 7d 10 00          	cmpl   $0x0,0x10(%ebp)
ff509257:	0f 95 c0             	setne  %al
ff50925a:	83 6d 10 01          	subl   $0x1,0x10(%ebp)
ff50925e:	84 c0                	test   %al,%al
ff509260:	75 b9                	jne    ff50921b <memcmp+0x1b>
ff509262:	c7 45 fc 00 00 00 00 	movl   $0x0,-0x4(%ebp)
ff509269:	8b 45 fc             	mov    -0x4(%ebp),%eax
ff50926c:	c9                   	leave  
ff50926d:	c3                   	ret    
ff50926e:	66 90                	xchg   %ax,%ax

ff509270 <initPIC>:
ff509270:	55                   	push   %ebp
ff509271:	89 e5                	mov    %esp,%ebp
ff509273:	83 ec 08             	sub    $0x8,%esp
ff509276:	c7 44 24 04 11 00 00 	movl   $0x11,0x4(%esp)
ff50927d:	00 
ff50927e:	c7 04 24 20 00 00 00 	movl   $0x20,(%esp)
ff509285:	e8 16 7f ff ff       	call   ff5011a0 <outByte>
ff50928a:	e8 31 7f ff ff       	call   ff5011c0 <ioWait>
ff50928f:	c7 44 24 04 11 00 00 	movl   $0x11,0x4(%esp)
ff509296:	00 
ff509297:	c7 04 24 a0 00 00 00 	movl   $0xa0,(%esp)
ff50929e:	e8 fd 7e ff ff       	call   ff5011a0 <outByte>
ff5092a3:	e8 18 7f ff ff       	call   ff5011c0 <ioWait>
ff5092a8:	c7 44 24 04 20 00 00 	movl   $0x20,0x4(%esp)
ff5092af:	00 
ff5092b0:	c7 04 24 21 00 00 00 	movl   $0x21,(%esp)
ff5092b7:	e8 e4 7e ff ff       	call   ff5011a0 <outByte>
ff5092bc:	e8 ff 7e ff ff       	call   ff5011c0 <ioWait>
ff5092c1:	c7 44 24 04 28 00 00 	movl   $0x28,0x4(%esp)
ff5092c8:	00 
ff5092c9:	c7 04 24 a1 00 00 00 	movl   $0xa1,(%esp)
ff5092d0:	e8 cb 7e ff ff       	call   ff5011a0 <outByte>
ff5092d5:	e8 e6 7e ff ff       	call   ff5011c0 <ioWait>
ff5092da:	c7 44 24 04 04 00 00 	movl   $0x4,0x4(%esp)
ff5092e1:	00 
ff5092e2:	c7 04 24 21 00 00 00 	movl   $0x21,(%esp)
ff5092e9:	e8 b2 7e ff ff       	call   ff5011a0 <outByte>
ff5092ee:	e8 cd 7e ff ff       	call   ff5011c0 <ioWait>
ff5092f3:	c7 44 24 04 02 00 00 	movl   $0x2,0x4(%esp)
ff5092fa:	00 
ff5092fb:	c7 04 24 a1 00 00 00 	movl   $0xa1,(%esp)
ff509302:	e8 99 7e ff ff       	call   ff5011a0 <outByte>
ff509307:	e8 b4 7e ff ff       	call   ff5011c0 <ioWait>
ff50930c:	c7 44 24 04 01 00 00 	movl   $0x1,0x4(%esp)
ff509313:	00 
ff509314:	c7 04 24 21 00 00 00 	movl   $0x21,(%esp)
ff50931b:	e8 80 7e ff ff       	call   ff5011a0 <outByte>
ff509320:	e8 9b 7e ff ff       	call   ff5011c0 <ioWait>
ff509325:	c7 44 24 04 01 00 00 	movl   $0x1,0x4(%esp)
ff50932c:	00 
ff50932d:	c7 04 24 a1 00 00 00 	movl   $0xa1,(%esp)
ff509334:	e8 67 7e ff ff       	call   ff5011a0 <outByte>
ff509339:	e8 82 7e ff ff       	call   ff5011c0 <ioWait>
ff50933e:	c7 44 24 04 ff 00 00 	movl   $0xff,0x4(%esp)
ff509345:	00 
ff509346:	c7 04 24 21 00 00 00 	movl   $0x21,(%esp)
ff50934d:	e8 4e 7e ff ff       	call   ff5011a0 <outByte>
ff509352:	e8 69 7e ff ff       	call   ff5011c0 <ioWait>
ff509357:	c7 44 24 04 ff 00 00 	movl   $0xff,0x4(%esp)
ff50935e:	00 
ff50935f:	c7 04 24 a1 00 00 00 	movl   $0xa1,(%esp)
ff509366:	e8 35 7e ff ff       	call   ff5011a0 <outByte>
ff50936b:	e8 50 7e ff ff       	call   ff5011c0 <ioWait>
ff509370:	c7 04 24 24 66 50 ff 	movl   $0xff506624,(%esp)
ff509377:	e8 d4 73 ff ff       	call   ff500750 <kprintf>
ff50937c:	c7 04 24 02 00 00 00 	movl   $0x2,(%esp)
ff509383:	e8 28 a2 ff ff       	call   ff5035b0 <enableIRQ>
ff509388:	c9                   	leave  
ff509389:	c3                   	ret    
ff50938a:	8d b6 00 00 00 00    	lea    0x0(%esi),%esi

ff509390 <add_gdt_entry>:
ff509390:	55                   	push   %ebp
ff509391:	89 e5                	mov    %esp,%ebp
ff509393:	83 ec 28             	sub    $0x28,%esp
ff509396:	8b 45 08             	mov    0x8(%ebp),%eax
ff509399:	89 45 f8             	mov    %eax,-0x8(%ebp)
ff50939c:	8b 45 14             	mov    0x14(%ebp),%eax
ff50939f:	89 44 24 10          	mov    %eax,0x10(%esp)
ff5093a3:	8b 45 10             	mov    0x10(%ebp),%eax
ff5093a6:	89 44 24 0c          	mov    %eax,0xc(%esp)
ff5093aa:	8b 45 0c             	mov    0xc(%ebp),%eax
ff5093ad:	89 44 24 08          	mov    %eax,0x8(%esp)
ff5093b1:	8b 45 08             	mov    0x8(%ebp),%eax
ff5093b4:	89 44 24 04          	mov    %eax,0x4(%esp)
ff5093b8:	c7 04 24 34 66 50 ff 	movl   $0xff506634,(%esp)
ff5093bf:	e8 8c 73 ff ff       	call   ff500750 <kprintf>
ff5093c4:	c7 45 fc 00 0d 40 ff 	movl   $0xff400d00,-0x4(%ebp)
ff5093cb:	83 7d 08 00          	cmpl   $0x0,0x8(%ebp)
ff5093cf:	79 0c                	jns    ff5093dd <add_gdt_entry+0x4d>
ff5093d1:	c7 45 ec 00 00 00 00 	movl   $0x0,-0x14(%ebp)
ff5093d8:	e9 a0 00 00 00       	jmp    ff50947d <add_gdt_entry+0xed>
ff5093dd:	8b 55 08             	mov    0x8(%ebp),%edx
ff5093e0:	89 d0                	mov    %edx,%eax
ff5093e2:	c1 f8 1f             	sar    $0x1f,%eax
ff5093e5:	c1 e8 1d             	shr    $0x1d,%eax
ff5093e8:	01 d0                	add    %edx,%eax
ff5093ea:	c1 f8 03             	sar    $0x3,%eax
ff5093ed:	c1 e0 03             	shl    $0x3,%eax
ff5093f0:	01 45 fc             	add    %eax,-0x4(%ebp)
ff5093f3:	8b 45 10             	mov    0x10(%ebp),%eax
ff5093f6:	89 c2                	mov    %eax,%edx
ff5093f8:	8b 45 fc             	mov    -0x4(%ebp),%eax
ff5093fb:	66 89 10             	mov    %dx,(%eax)
ff5093fe:	8b 45 10             	mov    0x10(%ebp),%eax
ff509401:	c1 e8 10             	shr    $0x10,%eax
ff509404:	83 e0 0f             	and    $0xf,%eax
ff509407:	83 e0 0f             	and    $0xf,%eax
ff50940a:	83 e0 0f             	and    $0xf,%eax
ff50940d:	8b 55 fc             	mov    -0x4(%ebp),%edx
ff509410:	89 c1                	mov    %eax,%ecx
ff509412:	83 e1 0f             	and    $0xf,%ecx
ff509415:	0f b6 42 06          	movzbl 0x6(%edx),%eax
ff509419:	83 e0 f0             	and    $0xfffffff0,%eax
ff50941c:	09 c8                	or     %ecx,%eax
ff50941e:	88 42 06             	mov    %al,0x6(%edx)
ff509421:	8b 45 0c             	mov    0xc(%ebp),%eax
ff509424:	89 c2                	mov    %eax,%edx
ff509426:	8b 45 fc             	mov    -0x4(%ebp),%eax
ff509429:	66 89 50 02          	mov    %dx,0x2(%eax)
ff50942d:	8b 45 0c             	mov    0xc(%ebp),%eax
ff509430:	c1 e8 10             	shr    $0x10,%eax
ff509433:	89 c2                	mov    %eax,%edx
ff509435:	8b 45 fc             	mov    -0x4(%ebp),%eax
ff509438:	88 50 04             	mov    %dl,0x4(%eax)
ff50943b:	8b 45 0c             	mov    0xc(%ebp),%eax
ff50943e:	c1 e8 18             	shr    $0x18,%eax
ff509441:	89 c2                	mov    %eax,%edx
ff509443:	8b 45 fc             	mov    -0x4(%ebp),%eax
ff509446:	88 50 07             	mov    %dl,0x7(%eax)
ff509449:	8b 45 14             	mov    0x14(%ebp),%eax
ff50944c:	89 c2                	mov    %eax,%edx
ff50944e:	8b 45 fc             	mov    -0x4(%ebp),%eax
ff509451:	88 50 05             	mov    %dl,0x5(%eax)
ff509454:	8b 45 14             	mov    0x14(%ebp),%eax
ff509457:	c1 f8 08             	sar    $0x8,%eax
ff50945a:	83 e0 0f             	and    $0xf,%eax
ff50945d:	83 e0 0f             	and    $0xf,%eax
ff509460:	83 e0 0f             	and    $0xf,%eax
ff509463:	8b 55 fc             	mov    -0x4(%ebp),%edx
ff509466:	89 c1                	mov    %eax,%ecx
ff509468:	c1 e1 04             	shl    $0x4,%ecx
ff50946b:	0f b6 42 06          	movzbl 0x6(%edx),%eax
ff50946f:	83 e0 0f             	and    $0xf,%eax
ff509472:	09 c8                	or     %ecx,%eax
ff509474:	88 42 06             	mov    %al,0x6(%edx)
ff509477:	8b 45 f8             	mov    -0x8(%ebp),%eax
ff50947a:	89 45 ec             	mov    %eax,-0x14(%ebp)
ff50947d:	8b 45 ec             	mov    -0x14(%ebp),%eax
ff509480:	c9                   	leave  
ff509481:	c3                   	ret    
ff509482:	8d b4 26 00 00 00 00 	lea    0x0(%esi,%eiz,1),%esi
ff509489:	8d bc 27 00 00 00 00 	lea    0x0(%edi,%eiz,1),%edi

ff509490 <initTSS>:
ff509490:	55                   	push   %ebp
ff509491:	89 e5                	mov    %esp,%ebp
ff509493:	83 ec 10             	sub    $0x10,%esp
ff509496:	c7 45 fc 98 0f 40 ff 	movl   $0xff400f98,-0x4(%ebp)
ff50949d:	8b 45 fc             	mov    -0x4(%ebp),%eax
ff5094a0:	c7 40 64 68 00 00 00 	movl   $0x68,0x64(%eax)
ff5094a7:	8b 45 fc             	mov    -0x4(%ebp),%eax
ff5094aa:	c7 40 08 10 00 00 00 	movl   $0x10,0x8(%eax)
ff5094b1:	8b 45 fc             	mov    -0x4(%ebp),%eax
ff5094b4:	83 c0 04             	add    $0x4,%eax
ff5094b7:	a3 08 c0 50 ff       	mov    %eax,0xff50c008
ff5094bc:	c7 05 30 c0 50 ff 00 	movl   $0xff401000,0xff50c030
ff5094c3:	10 40 ff 
ff5094c6:	c9                   	leave  
ff5094c7:	c3                   	ret    
ff5094c8:	90                   	nop    
ff5094c9:	8d b4 26 00 00 00 00 	lea    0x0(%esi,%eiz,1),%esi

ff5094d0 <initGDT>:
ff5094d0:	55                   	push   %ebp
ff5094d1:	89 e5                	mov    %esp,%ebp
ff5094d3:	83 ec 18             	sub    $0x18,%esp
ff5094d6:	e8 b5 ff ff ff       	call   ff509490 <initTSS>
ff5094db:	c7 44 24 0c 00 00 00 	movl   $0x0,0xc(%esp)
ff5094e2:	00 
ff5094e3:	c7 44 24 08 00 00 00 	movl   $0x0,0x8(%esp)
ff5094ea:	00 
ff5094eb:	c7 44 24 04 00 00 00 	movl   $0x0,0x4(%esp)
ff5094f2:	00 
ff5094f3:	c7 04 24 00 00 00 00 	movl   $0x0,(%esp)
ff5094fa:	e8 91 fe ff ff       	call   ff509390 <add_gdt_entry>
ff5094ff:	c7 44 24 0c 98 0c 00 	movl   $0xc98,0xc(%esp)
ff509506:	00 
ff509507:	c7 44 24 08 ff ff 0f 	movl   $0xfffff,0x8(%esp)
ff50950e:	00 
ff50950f:	c7 44 24 04 00 00 00 	movl   $0x0,0x4(%esp)
ff509516:	00 
ff509517:	c7 04 24 08 00 00 00 	movl   $0x8,(%esp)
ff50951e:	e8 6d fe ff ff       	call   ff509390 <add_gdt_entry>
ff509523:	c7 44 24 0c 92 0c 00 	movl   $0xc92,0xc(%esp)
ff50952a:	00 
ff50952b:	c7 44 24 08 ff ff 0f 	movl   $0xfffff,0x8(%esp)
ff509532:	00 
ff509533:	c7 44 24 04 00 00 00 	movl   $0x0,0x4(%esp)
ff50953a:	00 
ff50953b:	c7 04 24 10 00 00 00 	movl   $0x10,(%esp)
ff509542:	e8 49 fe ff ff       	call   ff509390 <add_gdt_entry>
ff509547:	c7 44 24 0c fa 0c 00 	movl   $0xcfa,0xc(%esp)
ff50954e:	00 
ff50954f:	c7 44 24 08 ff ff 0f 	movl   $0xfffff,0x8(%esp)
ff509556:	00 
ff509557:	c7 44 24 04 00 00 00 	movl   $0x0,0x4(%esp)
ff50955e:	00 
ff50955f:	c7 04 24 1b 00 00 00 	movl   $0x1b,(%esp)
ff509566:	e8 25 fe ff ff       	call   ff509390 <add_gdt_entry>
ff50956b:	c7 44 24 0c f2 0c 00 	movl   $0xcf2,0xc(%esp)
ff509572:	00 
ff509573:	c7 44 24 08 ff ff 0f 	movl   $0xfffff,0x8(%esp)
ff50957a:	00 
ff50957b:	c7 44 24 04 00 00 00 	movl   $0x0,0x4(%esp)
ff509582:	00 
ff509583:	c7 04 24 23 00 00 00 	movl   $0x23,(%esp)
ff50958a:	e8 01 fe ff ff       	call   ff509390 <add_gdt_entry>
ff50958f:	b8 98 0f 40 ff       	mov    $0xff400f98,%eax
ff509594:	c7 44 24 0c 89 00 00 	movl   $0x89,0xc(%esp)
ff50959b:	00 
ff50959c:	c7 44 24 08 68 20 00 	movl   $0x2068,0x8(%esp)
ff5095a3:	00 
ff5095a4:	89 44 24 04          	mov    %eax,0x4(%esp)
ff5095a8:	c7 04 24 28 00 00 00 	movl   $0x28,(%esp)
ff5095af:	e8 dc fd ff ff       	call   ff509390 <add_gdt_entry>
ff5095b4:	c9                   	leave  
ff5095b5:	c3                   	ret    
ff5095b6:	8d 76 00             	lea    0x0(%esi),%esi
ff5095b9:	8d bc 27 00 00 00 00 	lea    0x0(%edi,%eiz,1),%edi

ff5095c0 <stopInit>:
ff5095c0:	55                   	push   %ebp
ff5095c1:	89 e5                	mov    %esp,%ebp
ff5095c3:	83 ec 08             	sub    $0x8,%esp
ff5095c6:	8b 45 08             	mov    0x8(%ebp),%eax
ff5095c9:	89 44 24 04          	mov    %eax,0x4(%esp)
ff5095cd:	c7 04 24 68 66 50 ff 	movl   $0xff506668,(%esp)
ff5095d4:	e8 77 71 ff ff       	call   ff500750 <kprintf>
ff5095d9:	fa                   	cli    
ff5095da:	f4                   	hlt    
ff5095db:	eb fe                	jmp    ff5095db <stopInit+0x1b>
ff5095dd:	8d 76 00             	lea    0x0(%esi),%esi

ff5095e0 <initMemory>:
ff5095e0:	55                   	push   %ebp
ff5095e1:	89 e5                	mov    %esp,%ebp
ff5095e3:	53                   	push   %ebx
ff5095e4:	83 ec 44             	sub    $0x44,%esp
ff5095e7:	8b 45 08             	mov    0x8(%ebp),%eax
ff5095ea:	8b 50 08             	mov    0x8(%eax),%edx
ff5095ed:	8b 45 08             	mov    0x8(%ebp),%eax
ff5095f0:	8b 40 04             	mov    0x4(%eax),%eax
ff5095f3:	8d 04 02             	lea    (%edx,%eax,1),%eax
ff5095f6:	c1 e0 0a             	shl    $0xa,%eax
ff5095f9:	a3 e0 b2 50 ff       	mov    %eax,0xff50b2e0
ff5095fe:	a1 e0 b2 50 ff       	mov    0xff50b2e0,%eax
ff509603:	c1 e8 0c             	shr    $0xc,%eax
ff509606:	8b 15 e0 b2 50 ff    	mov    0xff50b2e0,%edx
ff50960c:	89 44 24 08          	mov    %eax,0x8(%esp)
ff509610:	89 54 24 04          	mov    %edx,0x4(%esp)
ff509614:	c7 04 24 88 66 50 ff 	movl   $0xff506688,(%esp)
ff50961b:	e8 30 71 ff ff       	call   ff500750 <kprintf>
ff509620:	a1 e0 b2 50 ff       	mov    0xff50b2e0,%eax
ff509625:	3d ff ff 7f 00       	cmp    $0x7fffff,%eax
ff50962a:	77 0c                	ja     ff509638 <initMemory+0x58>
ff50962c:	c7 04 24 a7 66 50 ff 	movl   $0xff5066a7,(%esp)
ff509633:	e8 88 ff ff ff       	call   ff5095c0 <stopInit>
ff509638:	a1 e0 b2 50 ff       	mov    0xff50b2e0,%eax
ff50963d:	c1 e8 0c             	shr    $0xc,%eax
ff509640:	a3 e8 b2 50 ff       	mov    %eax,0xff50b2e8
ff509645:	c7 05 34 c0 50 ff 00 	movl   $0x1000,0xff50c034
ff50964c:	10 00 00 
ff50964f:	a1 34 c0 50 ff       	mov    0xff50c034,%eax
ff509654:	89 44 24 04          	mov    %eax,0x4(%esp)
ff509658:	c7 04 24 ba 66 50 ff 	movl   $0xff5066ba,(%esp)
ff50965f:	e8 ec 70 ff ff       	call   ff500750 <kprintf>
ff509664:	8b 45 08             	mov    0x8(%ebp),%eax
ff509667:	89 04 24             	mov    %eax,(%esp)
ff50966a:	e8 41 08 00 00       	call   ff509eb0 <calcKernelSize>
ff50966f:	3d 00 00 c0 ff       	cmp    $0xffc00000,%eax
ff509674:	76 0c                	jbe    ff509682 <initMemory+0xa2>
ff509676:	c7 04 24 d4 66 50 ff 	movl   $0xff5066d4,(%esp)
ff50967d:	e8 3e ff ff ff       	call   ff5095c0 <stopInit>
ff509682:	8b 45 08             	mov    0x8(%ebp),%eax
ff509685:	89 04 24             	mov    %eax,(%esp)
ff509688:	e8 33 07 00 00       	call   ff509dc0 <getModuleEndAddr>
ff50968d:	89 c3                	mov    %eax,%ebx
ff50968f:	8b 45 08             	mov    0x8(%ebp),%eax
ff509692:	89 04 24             	mov    %eax,(%esp)
ff509695:	e8 26 07 00 00       	call   ff509dc0 <getModuleEndAddr>
ff50969a:	25 00 f0 ff ff       	and    $0xfffff000,%eax
ff50969f:	39 c3                	cmp    %eax,%ebx
ff5096a1:	75 1b                	jne    ff5096be <initMemory+0xde>
ff5096a3:	8b 45 08             	mov    0x8(%ebp),%eax
ff5096a6:	89 04 24             	mov    %eax,(%esp)
ff5096a9:	e8 12 07 00 00       	call   ff509dc0 <getModuleEndAddr>
ff5096ae:	89 c2                	mov    %eax,%edx
ff5096b0:	b8 00 00 50 ff       	mov    $0xff500000,%eax
ff5096b5:	89 d1                	mov    %edx,%ecx
ff5096b7:	29 c1                	sub    %eax,%ecx
ff5096b9:	89 4d cc             	mov    %ecx,-0x34(%ebp)
ff5096bc:	eb 24                	jmp    ff5096e2 <initMemory+0x102>
ff5096be:	b8 00 00 50 ff       	mov    $0xff500000,%eax
ff5096c3:	89 c3                	mov    %eax,%ebx
ff5096c5:	f7 db                	neg    %ebx
ff5096c7:	8b 45 08             	mov    0x8(%ebp),%eax
ff5096ca:	89 04 24             	mov    %eax,(%esp)
ff5096cd:	e8 ee 06 00 00       	call   ff509dc0 <getModuleEndAddr>
ff5096d2:	25 00 f0 ff ff       	and    $0xfffff000,%eax
ff5096d7:	05 00 10 00 00       	add    $0x1000,%eax
ff5096dc:	8d 04 03             	lea    (%ebx,%eax,1),%eax
ff5096df:	89 45 cc             	mov    %eax,-0x34(%ebp)
ff5096e2:	8b 45 cc             	mov    -0x34(%ebp),%eax
ff5096e5:	a3 ec b2 50 ff       	mov    %eax,0xff50b2ec
ff5096ea:	8b 45 08             	mov    0x8(%ebp),%eax
ff5096ed:	89 04 24             	mov    %eax,(%esp)
ff5096f0:	e8 cb 06 00 00       	call   ff509dc0 <getModuleEndAddr>
ff5096f5:	89 c3                	mov    %eax,%ebx
ff5096f7:	8b 45 08             	mov    0x8(%ebp),%eax
ff5096fa:	89 04 24             	mov    %eax,(%esp)
ff5096fd:	e8 be 06 00 00       	call   ff509dc0 <getModuleEndAddr>
ff509702:	25 00 f0 ff ff       	and    $0xfffff000,%eax
ff509707:	39 c3                	cmp    %eax,%ebx
ff509709:	75 10                	jne    ff50971b <initMemory+0x13b>
ff50970b:	8b 45 08             	mov    0x8(%ebp),%eax
ff50970e:	89 04 24             	mov    %eax,(%esp)
ff509711:	e8 aa 06 00 00       	call   ff509dc0 <getModuleEndAddr>
ff509716:	89 45 d0             	mov    %eax,-0x30(%ebp)
ff509719:	eb 18                	jmp    ff509733 <initMemory+0x153>
ff50971b:	8b 45 08             	mov    0x8(%ebp),%eax
ff50971e:	89 04 24             	mov    %eax,(%esp)
ff509721:	e8 9a 06 00 00       	call   ff509dc0 <getModuleEndAddr>
ff509726:	25 00 f0 ff ff       	and    $0xfffff000,%eax
ff50972b:	05 00 10 00 00       	add    $0x1000,%eax
ff509730:	89 45 d0             	mov    %eax,-0x30(%ebp)
ff509733:	8b 4d d0             	mov    -0x30(%ebp),%ecx
ff509736:	89 0d a0 af 50 ff    	mov    %ecx,0xff50afa0
ff50973c:	a1 ec b2 50 ff       	mov    0xff50b2ec,%eax
ff509741:	89 44 24 04          	mov    %eax,0x4(%esp)
ff509745:	c7 04 24 fa 66 50 ff 	movl   $0xff5066fa,(%esp)
ff50974c:	e8 ff 6f ff ff       	call   ff500750 <kprintf>
ff509751:	8b 15 60 c0 50 ff    	mov    0xff50c060,%edx
ff509757:	8b 0d 40 c0 50 ff    	mov    0xff50c040,%ecx
ff50975d:	a1 a0 af 50 ff       	mov    0xff50afa0,%eax
ff509762:	89 54 24 08          	mov    %edx,0x8(%esp)
ff509766:	89 4c 24 04          	mov    %ecx,0x4(%esp)
ff50976a:	89 04 24             	mov    %eax,(%esp)
ff50976d:	e8 be 07 00 00       	call   ff509f30 <initTables>
ff509772:	89 45 f4             	mov    %eax,-0xc(%ebp)
ff509775:	83 7d f4 ff          	cmpl   $0xffffffff,-0xc(%ebp)
ff509779:	75 0c                	jne    ff509787 <initMemory+0x1a7>
ff50977b:	c7 04 24 14 67 50 ff 	movl   $0xff506714,(%esp)
ff509782:	e8 39 fe ff ff       	call   ff5095c0 <stopInit>
ff509787:	8b 15 ec b2 50 ff    	mov    0xff50b2ec,%edx
ff50978d:	8b 45 f4             	mov    -0xc(%ebp),%eax
ff509790:	8d 04 02             	lea    (%edx,%eax,1),%eax
ff509793:	a3 ec b2 50 ff       	mov    %eax,0xff50b2ec
ff509798:	8b 15 a0 af 50 ff    	mov    0xff50afa0,%edx
ff50979e:	8b 45 f4             	mov    -0xc(%ebp),%eax
ff5097a1:	8d 04 02             	lea    (%edx,%eax,1),%eax
ff5097a4:	a3 a0 af 50 ff       	mov    %eax,0xff50afa0
ff5097a9:	a1 ec b2 50 ff       	mov    0xff50b2ec,%eax
ff5097ae:	89 c2                	mov    %eax,%edx
ff5097b0:	a1 ec b2 50 ff       	mov    0xff50b2ec,%eax
ff5097b5:	25 00 f0 ff ff       	and    $0xfffff000,%eax
ff5097ba:	39 c2                	cmp    %eax,%edx
ff5097bc:	74 14                	je     ff5097d2 <initMemory+0x1f2>
ff5097be:	a1 ec b2 50 ff       	mov    0xff50b2ec,%eax
ff5097c3:	25 00 f0 ff ff       	and    $0xfffff000,%eax
ff5097c8:	05 00 10 00 00       	add    $0x1000,%eax
ff5097cd:	89 45 d4             	mov    %eax,-0x2c(%ebp)
ff5097d0:	eb 08                	jmp    ff5097da <initMemory+0x1fa>
ff5097d2:	a1 ec b2 50 ff       	mov    0xff50b2ec,%eax
ff5097d7:	89 45 d4             	mov    %eax,-0x2c(%ebp)
ff5097da:	8b 4d d4             	mov    -0x2c(%ebp),%ecx
ff5097dd:	89 0d ec b2 50 ff    	mov    %ecx,0xff50b2ec
ff5097e3:	a1 a0 af 50 ff       	mov    0xff50afa0,%eax
ff5097e8:	89 c2                	mov    %eax,%edx
ff5097ea:	a1 a0 af 50 ff       	mov    0xff50afa0,%eax
ff5097ef:	25 00 f0 ff ff       	and    $0xfffff000,%eax
ff5097f4:	39 c2                	cmp    %eax,%edx
ff5097f6:	74 14                	je     ff50980c <initMemory+0x22c>
ff5097f8:	a1 a0 af 50 ff       	mov    0xff50afa0,%eax
ff5097fd:	25 00 f0 ff ff       	and    $0xfffff000,%eax
ff509802:	05 00 10 00 00       	add    $0x1000,%eax
ff509807:	89 45 d8             	mov    %eax,-0x28(%ebp)
ff50980a:	eb 08                	jmp    ff509814 <initMemory+0x234>
ff50980c:	a1 a0 af 50 ff       	mov    0xff50afa0,%eax
ff509811:	89 45 d8             	mov    %eax,-0x28(%ebp)
ff509814:	8b 4d d8             	mov    -0x28(%ebp),%ecx
ff509817:	89 0d a0 af 50 ff    	mov    %ecx,0xff50afa0
ff50981d:	a1 a0 af 50 ff       	mov    0xff50afa0,%eax
ff509822:	89 44 24 04          	mov    %eax,0x4(%esp)
ff509826:	c7 04 24 48 67 50 ff 	movl   $0xff506748,(%esp)
ff50982d:	e8 1e 6f ff ff       	call   ff500750 <kprintf>
ff509832:	e8 99 fc ff ff       	call   ff5094d0 <initGDT>
ff509837:	0f 20 e0             	mov    %cr4,%eax
ff50983a:	0d 80 00 00 00       	or     $0x80,%eax
ff50983f:	0f 22 e0             	mov    %eax,%cr4
ff509842:	0f 20 c0             	mov    %cr0,%eax
ff509845:	0d 00 00 01 00       	or     $0x10000,%eax
ff50984a:	0f 22 c0             	mov    %eax,%cr0
ff50984d:	e8 d1 f8 ff ff       	call   ff509123 <loadGDT>
ff509852:	c7 04 24 5a 67 50 ff 	movl   $0xff50675a,(%esp)
ff509859:	e8 f2 6e ff ff       	call   ff500750 <kprintf>
ff50985e:	c7 45 f8 00 f0 ff ff 	movl   $0xfffff000,-0x8(%ebp)
ff509865:	c7 44 24 08 04 00 00 	movl   $0x4,0x8(%esp)
ff50986c:	00 
ff50986d:	c7 44 24 04 00 00 00 	movl   $0x0,0x4(%esp)
ff509874:	00 
ff509875:	8b 45 f8             	mov    -0x8(%ebp),%eax
ff509878:	89 04 24             	mov    %eax,(%esp)
ff50987b:	e8 90 82 ff ff       	call   ff501b10 <memset>
ff509880:	b8 00 00 00 00       	mov    $0x0,%eax
ff509885:	83 c4 44             	add    $0x44,%esp
ff509888:	5b                   	pop    %ebx
ff509889:	5d                   	pop    %ebp
ff50988a:	c3                   	ret    
ff50988b:	90                   	nop    
ff50988c:	8d 74 26 00          	lea    0x0(%esi,%eiz,1),%esi

ff509890 <initTimer>:
ff509890:	55                   	push   %ebp
ff509891:	89 e5                	mov    %esp,%ebp
ff509893:	83 ec 18             	sub    $0x18,%esp
ff509896:	c7 44 24 08 08 00 0e 	movl   $0xe0008,0x8(%esp)
ff50989d:	00 
ff50989e:	c7 44 24 04 20 00 00 	movl   $0x20,0x4(%esp)
ff5098a5:	00 
ff5098a6:	c7 04 24 e5 14 50 ff 	movl   $0xff5014e5,(%esp)
ff5098ad:	e8 be 78 ff ff       	call   ff501170 <addIDTEntry>
ff5098b2:	c7 44 24 04 36 00 00 	movl   $0x36,0x4(%esp)
ff5098b9:	00 
ff5098ba:	c7 04 24 43 00 00 00 	movl   $0x43,(%esp)
ff5098c1:	e8 da 78 ff ff       	call   ff5011a0 <outByte>
ff5098c6:	c7 44 24 04 16 00 00 	movl   $0x16,0x4(%esp)
ff5098cd:	00 
ff5098ce:	c7 04 24 40 00 00 00 	movl   $0x40,(%esp)
ff5098d5:	e8 c6 78 ff ff       	call   ff5011a0 <outByte>
ff5098da:	c7 44 24 04 d2 00 00 	movl   $0xd2,0x4(%esp)
ff5098e1:	00 
ff5098e2:	c7 04 24 40 00 00 00 	movl   $0x40,(%esp)
ff5098e9:	e8 b2 78 ff ff       	call   ff5011a0 <outByte>
ff5098ee:	c7 04 24 76 67 50 ff 	movl   $0xff506776,(%esp)
ff5098f5:	e8 56 6e ff ff       	call   ff500750 <kprintf>
ff5098fa:	c7 04 24 00 00 00 00 	movl   $0x0,(%esp)
ff509901:	e8 aa 9c ff ff       	call   ff5035b0 <enableIRQ>
ff509906:	c9                   	leave  
ff509907:	c3                   	ret    
ff509908:	90                   	nop    
ff509909:	8d b4 26 00 00 00 00 	lea    0x0(%esi,%eiz,1),%esi

ff509910 <initScheduler>:
ff509910:	55                   	push   %ebp
ff509911:	89 e5                	mov    %esp,%ebp
ff509913:	83 ec 18             	sub    $0x18,%esp
ff509916:	ba d0 3d 50 ff       	mov    $0xff503dd0,%edx
ff50991b:	c7 44 24 0c 00 00 00 	movl   $0x0,0xc(%esp)
ff509922:	00 
ff509923:	c7 44 24 08 00 00 00 	movl   $0x0,0x8(%esp)
ff50992a:	00 
ff50992b:	8b 45 08             	mov    0x8(%ebp),%eax
ff50992e:	89 44 24 04          	mov    %eax,0x4(%esp)
ff509932:	89 14 24             	mov    %edx,(%esp)
ff509935:	e8 66 be ff ff       	call   ff5057a0 <createThread>
ff50993a:	a3 64 c0 50 ff       	mov    %eax,0xff50c064
ff50993f:	a1 64 c0 50 ff       	mov    0xff50c064,%eax
ff509944:	a3 50 c0 50 ff       	mov    %eax,0xff50c050
ff509949:	e8 42 ff ff ff       	call   ff509890 <initTimer>
ff50994e:	c9                   	leave  
ff50994f:	c3                   	ret    

ff509950 <initInterrupts>:
ff509950:	55                   	push   %ebp
ff509951:	89 e5                	mov    %esp,%ebp
ff509953:	83 ec 28             	sub    $0x28,%esp
ff509956:	c7 44 24 08 08 00 0e 	movl   $0xe0008,0x8(%esp)
ff50995d:	00 
ff50995e:	c7 44 24 04 00 00 00 	movl   $0x0,0x4(%esp)
ff509965:	00 
ff509966:	c7 04 24 5e 12 50 ff 	movl   $0xff50125e,(%esp)
ff50996d:	e8 fe 77 ff ff       	call   ff501170 <addIDTEntry>
ff509972:	c7 44 24 08 08 00 0e 	movl   $0xe0008,0x8(%esp)
ff509979:	00 
ff50997a:	c7 44 24 04 01 00 00 	movl   $0x1,0x4(%esp)
ff509981:	00 
ff509982:	c7 04 24 6d 12 50 ff 	movl   $0xff50126d,(%esp)
ff509989:	e8 e2 77 ff ff       	call   ff501170 <addIDTEntry>
ff50998e:	c7 44 24 08 08 00 0e 	movl   $0xe0008,0x8(%esp)
ff509995:	00 
ff509996:	c7 44 24 04 02 00 00 	movl   $0x2,0x4(%esp)
ff50999d:	00 
ff50999e:	c7 04 24 7c 12 50 ff 	movl   $0xff50127c,(%esp)
ff5099a5:	e8 c6 77 ff ff       	call   ff501170 <addIDTEntry>
ff5099aa:	c7 44 24 08 08 00 0e 	movl   $0xe0008,0x8(%esp)
ff5099b1:	00 
ff5099b2:	c7 44 24 04 03 00 00 	movl   $0x3,0x4(%esp)
ff5099b9:	00 
ff5099ba:	c7 04 24 8b 12 50 ff 	movl   $0xff50128b,(%esp)
ff5099c1:	e8 aa 77 ff ff       	call   ff501170 <addIDTEntry>
ff5099c6:	c7 44 24 08 08 00 0e 	movl   $0xe0008,0x8(%esp)
ff5099cd:	00 
ff5099ce:	c7 44 24 04 04 00 00 	movl   $0x4,0x4(%esp)
ff5099d5:	00 
ff5099d6:	c7 04 24 9a 12 50 ff 	movl   $0xff50129a,(%esp)
ff5099dd:	e8 8e 77 ff ff       	call   ff501170 <addIDTEntry>
ff5099e2:	c7 44 24 08 08 00 0e 	movl   $0xe0008,0x8(%esp)
ff5099e9:	00 
ff5099ea:	c7 44 24 04 05 00 00 	movl   $0x5,0x4(%esp)
ff5099f1:	00 
ff5099f2:	c7 04 24 a9 12 50 ff 	movl   $0xff5012a9,(%esp)
ff5099f9:	e8 72 77 ff ff       	call   ff501170 <addIDTEntry>
ff5099fe:	c7 44 24 08 08 00 0e 	movl   $0xe0008,0x8(%esp)
ff509a05:	00 
ff509a06:	c7 44 24 04 06 00 00 	movl   $0x6,0x4(%esp)
ff509a0d:	00 
ff509a0e:	c7 04 24 b8 12 50 ff 	movl   $0xff5012b8,(%esp)
ff509a15:	e8 56 77 ff ff       	call   ff501170 <addIDTEntry>
ff509a1a:	c7 44 24 08 08 00 0e 	movl   $0xe0008,0x8(%esp)
ff509a21:	00 
ff509a22:	c7 44 24 04 07 00 00 	movl   $0x7,0x4(%esp)
ff509a29:	00 
ff509a2a:	c7 04 24 c7 12 50 ff 	movl   $0xff5012c7,(%esp)
ff509a31:	e8 3a 77 ff ff       	call   ff501170 <addIDTEntry>
ff509a36:	c7 44 24 08 08 00 0e 	movl   $0xe0008,0x8(%esp)
ff509a3d:	00 
ff509a3e:	c7 44 24 04 08 00 00 	movl   $0x8,0x4(%esp)
ff509a45:	00 
ff509a46:	c7 04 24 d6 12 50 ff 	movl   $0xff5012d6,(%esp)
ff509a4d:	e8 1e 77 ff ff       	call   ff501170 <addIDTEntry>
ff509a52:	c7 44 24 08 08 00 0e 	movl   $0xe0008,0x8(%esp)
ff509a59:	00 
ff509a5a:	c7 44 24 04 09 00 00 	movl   $0x9,0x4(%esp)
ff509a61:	00 
ff509a62:	c7 04 24 e0 12 50 ff 	movl   $0xff5012e0,(%esp)
ff509a69:	e8 02 77 ff ff       	call   ff501170 <addIDTEntry>
ff509a6e:	c7 44 24 08 08 00 0e 	movl   $0xe0008,0x8(%esp)
ff509a75:	00 
ff509a76:	c7 44 24 04 0a 00 00 	movl   $0xa,0x4(%esp)
ff509a7d:	00 
ff509a7e:	c7 04 24 ef 12 50 ff 	movl   $0xff5012ef,(%esp)
ff509a85:	e8 e6 76 ff ff       	call   ff501170 <addIDTEntry>
ff509a8a:	c7 44 24 08 08 00 0e 	movl   $0xe0008,0x8(%esp)
ff509a91:	00 
ff509a92:	c7 44 24 04 0b 00 00 	movl   $0xb,0x4(%esp)
ff509a99:	00 
ff509a9a:	c7 04 24 f9 12 50 ff 	movl   $0xff5012f9,(%esp)
ff509aa1:	e8 ca 76 ff ff       	call   ff501170 <addIDTEntry>
ff509aa6:	c7 44 24 08 08 00 0e 	movl   $0xe0008,0x8(%esp)
ff509aad:	00 
ff509aae:	c7 44 24 04 0c 00 00 	movl   $0xc,0x4(%esp)
ff509ab5:	00 
ff509ab6:	c7 04 24 03 13 50 ff 	movl   $0xff501303,(%esp)
ff509abd:	e8 ae 76 ff ff       	call   ff501170 <addIDTEntry>
ff509ac2:	c7 44 24 08 08 00 0e 	movl   $0xe0008,0x8(%esp)
ff509ac9:	00 
ff509aca:	c7 44 24 04 0d 00 00 	movl   $0xd,0x4(%esp)
ff509ad1:	00 
ff509ad2:	c7 04 24 0d 13 50 ff 	movl   $0xff50130d,(%esp)
ff509ad9:	e8 92 76 ff ff       	call   ff501170 <addIDTEntry>
ff509ade:	c7 44 24 08 08 00 0e 	movl   $0xe0008,0x8(%esp)
ff509ae5:	00 
ff509ae6:	c7 44 24 04 0e 00 00 	movl   $0xe,0x4(%esp)
ff509aed:	00 
ff509aee:	c7 04 24 17 13 50 ff 	movl   $0xff501317,(%esp)
ff509af5:	e8 76 76 ff ff       	call   ff501170 <addIDTEntry>
ff509afa:	c7 44 24 08 08 00 0e 	movl   $0xe0008,0x8(%esp)
ff509b01:	00 
ff509b02:	c7 44 24 04 0f 00 00 	movl   $0xf,0x4(%esp)
ff509b09:	00 
ff509b0a:	c7 04 24 58 13 50 ff 	movl   $0xff501358,(%esp)
ff509b11:	e8 5a 76 ff ff       	call   ff501170 <addIDTEntry>
ff509b16:	c7 44 24 08 08 00 0e 	movl   $0xe0008,0x8(%esp)
ff509b1d:	00 
ff509b1e:	c7 44 24 04 10 00 00 	movl   $0x10,0x4(%esp)
ff509b25:	00 
ff509b26:	c7 04 24 21 13 50 ff 	movl   $0xff501321,(%esp)
ff509b2d:	e8 3e 76 ff ff       	call   ff501170 <addIDTEntry>
ff509b32:	c7 44 24 08 08 00 0e 	movl   $0xe0008,0x8(%esp)
ff509b39:	00 
ff509b3a:	c7 44 24 04 11 00 00 	movl   $0x11,0x4(%esp)
ff509b41:	00 
ff509b42:	c7 04 24 30 13 50 ff 	movl   $0xff501330,(%esp)
ff509b49:	e8 22 76 ff ff       	call   ff501170 <addIDTEntry>
ff509b4e:	c7 44 24 08 08 00 0e 	movl   $0xe0008,0x8(%esp)
ff509b55:	00 
ff509b56:	c7 44 24 04 12 00 00 	movl   $0x12,0x4(%esp)
ff509b5d:	00 
ff509b5e:	c7 04 24 3a 13 50 ff 	movl   $0xff50133a,(%esp)
ff509b65:	e8 06 76 ff ff       	call   ff501170 <addIDTEntry>
ff509b6a:	c7 44 24 08 08 00 0e 	movl   $0xe0008,0x8(%esp)
ff509b71:	00 
ff509b72:	c7 44 24 04 13 00 00 	movl   $0x13,0x4(%esp)
ff509b79:	00 
ff509b7a:	c7 04 24 49 13 50 ff 	movl   $0xff501349,(%esp)
ff509b81:	e8 ea 75 ff ff       	call   ff501170 <addIDTEntry>
ff509b86:	c7 44 24 08 08 00 0e 	movl   $0xe0008,0x8(%esp)
ff509b8d:	00 
ff509b8e:	c7 44 24 04 21 00 00 	movl   $0x21,0x4(%esp)
ff509b95:	00 
ff509b96:	c7 04 24 04 14 50 ff 	movl   $0xff501404,(%esp)
ff509b9d:	e8 ce 75 ff ff       	call   ff501170 <addIDTEntry>
ff509ba2:	c7 44 24 08 08 00 0e 	movl   $0xe0008,0x8(%esp)
ff509ba9:	00 
ff509baa:	c7 44 24 04 22 00 00 	movl   $0x22,0x4(%esp)
ff509bb1:	00 
ff509bb2:	c7 04 24 13 14 50 ff 	movl   $0xff501413,(%esp)
ff509bb9:	e8 b2 75 ff ff       	call   ff501170 <addIDTEntry>
ff509bbe:	c7 44 24 08 08 00 0e 	movl   $0xe0008,0x8(%esp)
ff509bc5:	00 
ff509bc6:	c7 44 24 04 23 00 00 	movl   $0x23,0x4(%esp)
ff509bcd:	00 
ff509bce:	c7 04 24 22 14 50 ff 	movl   $0xff501422,(%esp)
ff509bd5:	e8 96 75 ff ff       	call   ff501170 <addIDTEntry>
ff509bda:	c7 44 24 08 08 00 0e 	movl   $0xe0008,0x8(%esp)
ff509be1:	00 
ff509be2:	c7 44 24 04 24 00 00 	movl   $0x24,0x4(%esp)
ff509be9:	00 
ff509bea:	c7 04 24 31 14 50 ff 	movl   $0xff501431,(%esp)
ff509bf1:	e8 7a 75 ff ff       	call   ff501170 <addIDTEntry>
ff509bf6:	c7 44 24 08 08 00 0e 	movl   $0xe0008,0x8(%esp)
ff509bfd:	00 
ff509bfe:	c7 44 24 04 25 00 00 	movl   $0x25,0x4(%esp)
ff509c05:	00 
ff509c06:	c7 04 24 40 14 50 ff 	movl   $0xff501440,(%esp)
ff509c0d:	e8 5e 75 ff ff       	call   ff501170 <addIDTEntry>
ff509c12:	c7 44 24 08 08 00 0e 	movl   $0xe0008,0x8(%esp)
ff509c19:	00 
ff509c1a:	c7 44 24 04 26 00 00 	movl   $0x26,0x4(%esp)
ff509c21:	00 
ff509c22:	c7 04 24 4f 14 50 ff 	movl   $0xff50144f,(%esp)
ff509c29:	e8 42 75 ff ff       	call   ff501170 <addIDTEntry>
ff509c2e:	c7 44 24 08 08 00 0e 	movl   $0xe0008,0x8(%esp)
ff509c35:	00 
ff509c36:	c7 44 24 04 27 00 00 	movl   $0x27,0x4(%esp)
ff509c3d:	00 
ff509c3e:	c7 04 24 5e 14 50 ff 	movl   $0xff50145e,(%esp)
ff509c45:	e8 26 75 ff ff       	call   ff501170 <addIDTEntry>
ff509c4a:	c7 44 24 08 08 00 0e 	movl   $0xe0008,0x8(%esp)
ff509c51:	00 
ff509c52:	c7 44 24 04 28 00 00 	movl   $0x28,0x4(%esp)
ff509c59:	00 
ff509c5a:	c7 04 24 6d 14 50 ff 	movl   $0xff50146d,(%esp)
ff509c61:	e8 0a 75 ff ff       	call   ff501170 <addIDTEntry>
ff509c66:	c7 44 24 08 08 00 0e 	movl   $0xe0008,0x8(%esp)
ff509c6d:	00 
ff509c6e:	c7 44 24 04 29 00 00 	movl   $0x29,0x4(%esp)
ff509c75:	00 
ff509c76:	c7 04 24 7c 14 50 ff 	movl   $0xff50147c,(%esp)
ff509c7d:	e8 ee 74 ff ff       	call   ff501170 <addIDTEntry>
ff509c82:	c7 44 24 08 08 00 0e 	movl   $0xe0008,0x8(%esp)
ff509c89:	00 
ff509c8a:	c7 44 24 04 2a 00 00 	movl   $0x2a,0x4(%esp)
ff509c91:	00 
ff509c92:	c7 04 24 8b 14 50 ff 	movl   $0xff50148b,(%esp)
ff509c99:	e8 d2 74 ff ff       	call   ff501170 <addIDTEntry>
ff509c9e:	c7 44 24 08 08 00 0e 	movl   $0xe0008,0x8(%esp)
ff509ca5:	00 
ff509ca6:	c7 44 24 04 2b 00 00 	movl   $0x2b,0x4(%esp)
ff509cad:	00 
ff509cae:	c7 04 24 9a 14 50 ff 	movl   $0xff50149a,(%esp)
ff509cb5:	e8 b6 74 ff ff       	call   ff501170 <addIDTEntry>
ff509cba:	c7 44 24 08 08 00 0e 	movl   $0xe0008,0x8(%esp)
ff509cc1:	00 
ff509cc2:	c7 44 24 04 2c 00 00 	movl   $0x2c,0x4(%esp)
ff509cc9:	00 
ff509cca:	c7 04 24 a9 14 50 ff 	movl   $0xff5014a9,(%esp)
ff509cd1:	e8 9a 74 ff ff       	call   ff501170 <addIDTEntry>
ff509cd6:	c7 44 24 08 08 00 0e 	movl   $0xe0008,0x8(%esp)
ff509cdd:	00 
ff509cde:	c7 44 24 04 2d 00 00 	movl   $0x2d,0x4(%esp)
ff509ce5:	00 
ff509ce6:	c7 04 24 b8 14 50 ff 	movl   $0xff5014b8,(%esp)
ff509ced:	e8 7e 74 ff ff       	call   ff501170 <addIDTEntry>
ff509cf2:	c7 44 24 08 08 00 0e 	movl   $0xe0008,0x8(%esp)
ff509cf9:	00 
ff509cfa:	c7 44 24 04 2e 00 00 	movl   $0x2e,0x4(%esp)
ff509d01:	00 
ff509d02:	c7 04 24 c7 14 50 ff 	movl   $0xff5014c7,(%esp)
ff509d09:	e8 62 74 ff ff       	call   ff501170 <addIDTEntry>
ff509d0e:	c7 44 24 08 08 00 0e 	movl   $0xe0008,0x8(%esp)
ff509d15:	00 
ff509d16:	c7 44 24 04 2f 00 00 	movl   $0x2f,0x4(%esp)
ff509d1d:	00 
ff509d1e:	c7 04 24 d6 14 50 ff 	movl   $0xff5014d6,(%esp)
ff509d25:	e8 46 74 ff ff       	call   ff501170 <addIDTEntry>
ff509d2a:	c7 45 fc 14 00 00 00 	movl   $0x14,-0x4(%ebp)
ff509d31:	eb 1f                	jmp    ff509d52 <initInterrupts+0x402>
ff509d33:	8b 45 fc             	mov    -0x4(%ebp),%eax
ff509d36:	c7 44 24 08 08 00 0e 	movl   $0xe0008,0x8(%esp)
ff509d3d:	00 
ff509d3e:	89 44 24 04          	mov    %eax,0x4(%esp)
ff509d42:	c7 04 24 58 13 50 ff 	movl   $0xff501358,(%esp)
ff509d49:	e8 22 74 ff ff       	call   ff501170 <addIDTEntry>
ff509d4e:	83 45 fc 01          	addl   $0x1,-0x4(%ebp)
ff509d52:	83 7d fc 1f          	cmpl   $0x1f,-0x4(%ebp)
ff509d56:	7e db                	jle    ff509d33 <initInterrupts+0x3e3>
ff509d58:	c7 45 fc 2f 00 00 00 	movl   $0x2f,-0x4(%ebp)
ff509d5f:	eb 1f                	jmp    ff509d80 <initInterrupts+0x430>
ff509d61:	8b 45 fc             	mov    -0x4(%ebp),%eax
ff509d64:	c7 44 24 08 08 00 0e 	movl   $0xe0008,0x8(%esp)
ff509d6b:	00 
ff509d6c:	89 44 24 04          	mov    %eax,0x4(%esp)
ff509d70:	c7 04 24 58 13 50 ff 	movl   $0xff501358,(%esp)
ff509d77:	e8 f4 73 ff ff       	call   ff501170 <addIDTEntry>
ff509d7c:	83 45 fc 01          	addl   $0x1,-0x4(%ebp)
ff509d80:	81 7d fc ff 00 00 00 	cmpl   $0xff,-0x4(%ebp)
ff509d87:	7e d8                	jle    ff509d61 <initInterrupts+0x411>
ff509d89:	c7 44 24 08 08 00 6e 	movl   $0x6e0008,0x8(%esp)
ff509d90:	00 
ff509d91:	c7 44 24 04 40 00 00 	movl   $0x40,0x4(%esp)
ff509d98:	00 
ff509d99:	c7 04 24 7d 15 50 ff 	movl   $0xff50157d,(%esp)
ff509da0:	e8 cb 73 ff ff       	call   ff501170 <addIDTEntry>
ff509da5:	e8 c6 f4 ff ff       	call   ff509270 <initPIC>
ff509daa:	e8 9b f3 ff ff       	call   ff50914a <loadIDT>
ff509daf:	c9                   	leave  
ff509db0:	c3                   	ret    
ff509db1:	eb 0d                	jmp    ff509dc0 <getModuleEndAddr>
ff509db3:	90                   	nop    
ff509db4:	90                   	nop    
ff509db5:	90                   	nop    
ff509db6:	90                   	nop    
ff509db7:	90                   	nop    
ff509db8:	90                   	nop    
ff509db9:	90                   	nop    
ff509dba:	90                   	nop    
ff509dbb:	90                   	nop    
ff509dbc:	90                   	nop    
ff509dbd:	90                   	nop    
ff509dbe:	90                   	nop    
ff509dbf:	90                   	nop    

ff509dc0 <getModuleEndAddr>:
ff509dc0:	55                   	push   %ebp
ff509dc1:	89 e5                	mov    %esp,%ebp
ff509dc3:	53                   	push   %ebx
ff509dc4:	83 ec 14             	sub    $0x14,%esp
ff509dc7:	8b 45 08             	mov    0x8(%ebp),%eax
ff509dca:	8b 40 14             	mov    0x14(%eax),%eax
ff509dcd:	85 c0                	test   %eax,%eax
ff509dcf:	75 17                	jne    ff509de8 <getModuleEndAddr+0x28>
ff509dd1:	bb 00 00 50 ff       	mov    $0xff500000,%ebx
ff509dd6:	8b 45 08             	mov    0x8(%ebp),%eax
ff509dd9:	89 04 24             	mov    %eax,(%esp)
ff509ddc:	e8 cf 00 00 00       	call   ff509eb0 <calcKernelSize>
ff509de1:	01 c3                	add    %eax,%ebx
ff509de3:	89 5d f8             	mov    %ebx,-0x8(%ebp)
ff509de6:	eb 28                	jmp    ff509e10 <getModuleEndAddr+0x50>
ff509de8:	8b 45 08             	mov    0x8(%ebp),%eax
ff509deb:	89 04 24             	mov    %eax,(%esp)
ff509dee:	e8 8d 00 00 00       	call   ff509e80 <getModuleStart>
ff509df3:	89 c3                	mov    %eax,%ebx
ff509df5:	8b 45 08             	mov    0x8(%ebp),%eax
ff509df8:	89 04 24             	mov    %eax,(%esp)
ff509dfb:	e8 20 00 00 00       	call   ff509e20 <getTotalModuleSize>
ff509e00:	8d 04 03             	lea    (%ebx,%eax,1),%eax
ff509e03:	89 c2                	mov    %eax,%edx
ff509e05:	b8 00 00 40 ff       	mov    $0xff400000,%eax
ff509e0a:	8d 04 02             	lea    (%edx,%eax,1),%eax
ff509e0d:	89 45 f8             	mov    %eax,-0x8(%ebp)
ff509e10:	8b 45 f8             	mov    -0x8(%ebp),%eax
ff509e13:	83 c4 14             	add    $0x14,%esp
ff509e16:	5b                   	pop    %ebx
ff509e17:	5d                   	pop    %ebp
ff509e18:	c3                   	ret    
ff509e19:	8d b4 26 00 00 00 00 	lea    0x0(%esi,%eiz,1),%esi

ff509e20 <getTotalModuleSize>:
ff509e20:	55                   	push   %ebp
ff509e21:	89 e5                	mov    %esp,%ebp
ff509e23:	83 ec 14             	sub    $0x14,%esp
ff509e26:	8b 45 08             	mov    0x8(%ebp),%eax
ff509e29:	8b 40 18             	mov    0x18(%eax),%eax
ff509e2c:	89 45 f8             	mov    %eax,-0x8(%ebp)
ff509e2f:	c7 45 fc 00 00 00 00 	movl   $0x0,-0x4(%ebp)
ff509e36:	8b 45 08             	mov    0x8(%ebp),%eax
ff509e39:	8b 40 14             	mov    0x14(%eax),%eax
ff509e3c:	85 c0                	test   %eax,%eax
ff509e3e:	75 09                	jne    ff509e49 <getTotalModuleSize+0x29>
ff509e40:	c7 45 ec 00 00 00 00 	movl   $0x0,-0x14(%ebp)
ff509e47:	eb 2c                	jmp    ff509e75 <getTotalModuleSize+0x55>
ff509e49:	8b 45 08             	mov    0x8(%ebp),%eax
ff509e4c:	8b 50 14             	mov    0x14(%eax),%edx
ff509e4f:	b8 01 00 00 00       	mov    $0x1,%eax
ff509e54:	29 d0                	sub    %edx,%eax
ff509e56:	c1 e0 04             	shl    $0x4,%eax
ff509e59:	f7 d8                	neg    %eax
ff509e5b:	03 45 f8             	add    -0x8(%ebp),%eax
ff509e5e:	8b 50 04             	mov    0x4(%eax),%edx
ff509e61:	8b 45 f8             	mov    -0x8(%ebp),%eax
ff509e64:	8b 00                	mov    (%eax),%eax
ff509e66:	89 d1                	mov    %edx,%ecx
ff509e68:	29 c1                	sub    %eax,%ecx
ff509e6a:	89 c8                	mov    %ecx,%eax
ff509e6c:	89 45 fc             	mov    %eax,-0x4(%ebp)
ff509e6f:	8b 45 fc             	mov    -0x4(%ebp),%eax
ff509e72:	89 45 ec             	mov    %eax,-0x14(%ebp)
ff509e75:	8b 45 ec             	mov    -0x14(%ebp),%eax
ff509e78:	c9                   	leave  
ff509e79:	c3                   	ret    
ff509e7a:	8d b6 00 00 00 00    	lea    0x0(%esi),%esi

ff509e80 <getModuleStart>:
ff509e80:	55                   	push   %ebp
ff509e81:	89 e5                	mov    %esp,%ebp
ff509e83:	83 ec 14             	sub    $0x14,%esp
ff509e86:	8b 45 08             	mov    0x8(%ebp),%eax
ff509e89:	8b 40 18             	mov    0x18(%eax),%eax
ff509e8c:	89 45 fc             	mov    %eax,-0x4(%ebp)
ff509e8f:	8b 45 08             	mov    0x8(%ebp),%eax
ff509e92:	8b 40 14             	mov    0x14(%eax),%eax
ff509e95:	85 c0                	test   %eax,%eax
ff509e97:	75 09                	jne    ff509ea2 <getModuleStart+0x22>
ff509e99:	c7 45 ec 00 00 00 00 	movl   $0x0,-0x14(%ebp)
ff509ea0:	eb 08                	jmp    ff509eaa <getModuleStart+0x2a>
ff509ea2:	8b 45 fc             	mov    -0x4(%ebp),%eax
ff509ea5:	8b 00                	mov    (%eax),%eax
ff509ea7:	89 45 ec             	mov    %eax,-0x14(%ebp)
ff509eaa:	8b 45 ec             	mov    -0x14(%ebp),%eax
ff509ead:	c9                   	leave  
ff509eae:	c3                   	ret    
ff509eaf:	90                   	nop    

ff509eb0 <calcKernelSize>:
ff509eb0:	55                   	push   %ebp
ff509eb1:	89 e5                	mov    %esp,%ebp
ff509eb3:	83 ec 20             	sub    $0x20,%esp
ff509eb6:	8b 55 08             	mov    0x8(%ebp),%edx
ff509eb9:	8b 42 1c             	mov    0x1c(%edx),%eax
ff509ebc:	89 45 e8             	mov    %eax,-0x18(%ebp)
ff509ebf:	8b 42 20             	mov    0x20(%edx),%eax
ff509ec2:	89 45 ec             	mov    %eax,-0x14(%ebp)
ff509ec5:	8b 42 24             	mov    0x24(%edx),%eax
ff509ec8:	89 45 f0             	mov    %eax,-0x10(%ebp)
ff509ecb:	8b 42 28             	mov    0x28(%edx),%eax
ff509ece:	89 45 f4             	mov    %eax,-0xc(%ebp)
ff509ed1:	8b 45 e8             	mov    -0x18(%ebp),%eax
ff509ed4:	89 45 f8             	mov    %eax,-0x8(%ebp)
ff509ed7:	ba 00 00 40 ff       	mov    $0xff400000,%edx
ff509edc:	8b 45 f0             	mov    -0x10(%ebp),%eax
ff509edf:	8d 04 02             	lea    (%edx,%eax,1),%eax
ff509ee2:	89 45 fc             	mov    %eax,-0x4(%ebp)
ff509ee5:	8b 55 f8             	mov    -0x8(%ebp),%edx
ff509ee8:	89 d0                	mov    %edx,%eax
ff509eea:	c1 e0 02             	shl    $0x2,%eax
ff509eed:	01 d0                	add    %edx,%eax
ff509eef:	c1 e0 03             	shl    $0x3,%eax
ff509ef2:	83 e8 28             	sub    $0x28,%eax
ff509ef5:	03 45 fc             	add    -0x4(%ebp),%eax
ff509ef8:	8b 48 0c             	mov    0xc(%eax),%ecx
ff509efb:	8b 55 f8             	mov    -0x8(%ebp),%edx
ff509efe:	89 d0                	mov    %edx,%eax
ff509f00:	c1 e0 02             	shl    $0x2,%eax
ff509f03:	01 d0                	add    %edx,%eax
ff509f05:	c1 e0 03             	shl    $0x3,%eax
ff509f08:	83 e8 28             	sub    $0x28,%eax
ff509f0b:	03 45 fc             	add    -0x4(%ebp),%eax
ff509f0e:	8b 40 14             	mov    0x14(%eax),%eax
ff509f11:	8d 14 01             	lea    (%ecx,%eax,1),%edx
ff509f14:	b8 00 00 10 00       	mov    $0x100000,%eax
ff509f19:	89 d1                	mov    %edx,%ecx
ff509f1b:	29 c1                	sub    %eax,%ecx
ff509f1d:	89 c8                	mov    %ecx,%eax
ff509f1f:	c9                   	leave  
ff509f20:	c3                   	ret    
ff509f21:	eb 0d                	jmp    ff509f30 <initTables>
ff509f23:	90                   	nop    
ff509f24:	90                   	nop    
ff509f25:	90                   	nop    
ff509f26:	90                   	nop    
ff509f27:	90                   	nop    
ff509f28:	90                   	nop    
ff509f29:	90                   	nop    
ff509f2a:	90                   	nop    
ff509f2b:	90                   	nop    
ff509f2c:	90                   	nop    
ff509f2d:	90                   	nop    
ff509f2e:	90                   	nop    
ff509f2f:	90                   	nop    

ff509f30 <initTables>:
ff509f30:	55                   	push   %ebp
ff509f31:	89 e5                	mov    %esp,%ebp
ff509f33:	83 ec 28             	sub    $0x28,%esp
ff509f36:	8b 45 08             	mov    0x8(%ebp),%eax
ff509f39:	89 45 f8             	mov    %eax,-0x8(%ebp)
ff509f3c:	8b 45 08             	mov    0x8(%ebp),%eax
ff509f3f:	89 44 24 04          	mov    %eax,0x4(%esp)
ff509f43:	c7 04 24 86 67 50 ff 	movl   $0xff506786,(%esp)
ff509f4a:	e8 01 68 ff ff       	call   ff500750 <kprintf>
ff509f4f:	83 7d 0c 00          	cmpl   $0x0,0xc(%ebp)
ff509f53:	7e 0c                	jle    ff509f61 <initTables+0x31>
ff509f55:	83 7d 10 00          	cmpl   $0x0,0x10(%ebp)
ff509f59:	7e 06                	jle    ff509f61 <initTables+0x31>
ff509f5b:	83 7d 10 0f          	cmpl   $0xf,0x10(%ebp)
ff509f5f:	7e 0c                	jle    ff509f6d <initTables+0x3d>
ff509f61:	c7 45 ec ff ff ff ff 	movl   $0xffffffff,-0x14(%ebp)
ff509f68:	e9 20 01 00 00       	jmp    ff50a08d <initTables+0x15d>
ff509f6d:	8b 45 f8             	mov    -0x8(%ebp),%eax
ff509f70:	a3 3c c0 50 ff       	mov    %eax,0xff50c03c
ff509f75:	8b 45 0c             	mov    0xc(%ebp),%eax
ff509f78:	6b c0 58             	imul   $0x58,%eax,%eax
ff509f7b:	8b 15 3c c0 50 ff    	mov    0xff50c03c,%edx
ff509f81:	89 44 24 08          	mov    %eax,0x8(%esp)
ff509f85:	c7 44 24 04 00 00 00 	movl   $0x0,0x4(%esp)
ff509f8c:	00 
ff509f8d:	89 14 24             	mov    %edx,(%esp)
ff509f90:	e8 7b 7b ff ff       	call   ff501b10 <memset>
ff509f95:	8b 45 0c             	mov    0xc(%ebp),%eax
ff509f98:	6b c0 58             	imul   $0x58,%eax,%eax
ff509f9b:	01 45 f8             	add    %eax,-0x8(%ebp)
ff509f9e:	a1 3c c0 50 ff       	mov    0xff50c03c,%eax
ff509fa3:	89 44 24 04          	mov    %eax,0x4(%esp)
ff509fa7:	c7 04 24 a3 67 50 ff 	movl   $0xff5067a3,(%esp)
ff509fae:	e8 9d 67 ff ff       	call   ff500750 <kprintf>
ff509fb3:	8b 45 f8             	mov    -0x8(%ebp),%eax
ff509fb6:	a3 44 c0 50 ff       	mov    %eax,0xff50c044
ff509fbb:	a1 44 c0 50 ff       	mov    0xff50c044,%eax
ff509fc0:	89 44 24 04          	mov    %eax,0x4(%esp)
ff509fc4:	c7 04 24 b4 67 50 ff 	movl   $0xff5067b4,(%esp)
ff509fcb:	e8 80 67 ff ff       	call   ff500750 <kprintf>
ff509fd0:	c7 45 fc 00 00 00 00 	movl   $0x0,-0x4(%ebp)
ff509fd7:	eb 2f                	jmp    ff50a008 <initTables+0xd8>
ff509fd9:	8b 15 44 c0 50 ff    	mov    0xff50c044,%edx
ff509fdf:	8b 45 fc             	mov    -0x4(%ebp),%eax
ff509fe2:	c1 e0 02             	shl    $0x2,%eax
ff509fe5:	8d 0c 02             	lea    (%edx,%eax,1),%ecx
ff509fe8:	8b 15 44 c0 50 ff    	mov    0xff50c044,%edx
ff509fee:	8b 45 fc             	mov    -0x4(%ebp),%eax
ff509ff1:	c1 e0 02             	shl    $0x2,%eax
ff509ff4:	8d 04 02             	lea    (%edx,%eax,1),%eax
ff509ff7:	66 c7 40 02 ff ff    	movw   $0xffff,0x2(%eax)
ff509ffd:	0f b7 40 02          	movzwl 0x2(%eax),%eax
ff50a001:	66 89 01             	mov    %ax,(%ecx)
ff50a004:	83 45 fc 01          	addl   $0x1,-0x4(%ebp)
ff50a008:	8b 45 fc             	mov    -0x4(%ebp),%eax
ff50a00b:	3b 45 10             	cmp    0x10(%ebp),%eax
ff50a00e:	7c c9                	jl     ff509fd9 <initTables+0xa9>
ff50a010:	8b 45 10             	mov    0x10(%ebp),%eax
ff50a013:	c1 e0 02             	shl    $0x2,%eax
ff50a016:	01 45 f8             	add    %eax,-0x8(%ebp)
ff50a019:	8b 45 f8             	mov    -0x8(%ebp),%eax
ff50a01c:	a3 48 c0 50 ff       	mov    %eax,0xff50c048
ff50a021:	a1 48 c0 50 ff       	mov    0xff50c048,%eax
ff50a026:	89 44 24 04          	mov    %eax,0x4(%esp)
ff50a02a:	c7 04 24 c6 67 50 ff 	movl   $0xff5067c6,(%esp)
ff50a031:	e8 1a 67 ff ff       	call   ff500750 <kprintf>
ff50a036:	c7 45 fc 00 00 00 00 	movl   $0x0,-0x4(%ebp)
ff50a03d:	eb 2e                	jmp    ff50a06d <initTables+0x13d>
ff50a03f:	8b 15 48 c0 50 ff    	mov    0xff50c048,%edx
ff50a045:	8b 45 fc             	mov    -0x4(%ebp),%eax
ff50a048:	c1 e0 02             	shl    $0x2,%eax
ff50a04b:	8d 0c 02             	lea    (%edx,%eax,1),%ecx
ff50a04e:	8b 15 48 c0 50 ff    	mov    0xff50c048,%edx
ff50a054:	8b 45 fc             	mov    -0x4(%ebp),%eax
ff50a057:	c1 e0 02             	shl    $0x2,%eax
ff50a05a:	8d 04 02             	lea    (%edx,%eax,1),%eax
ff50a05d:	66 c7 00 ff ff       	movw   $0xffff,(%eax)
ff50a062:	0f b7 00             	movzwl (%eax),%eax
ff50a065:	66 89 41 02          	mov    %ax,0x2(%ecx)
ff50a069:	83 45 fc 01          	addl   $0x1,-0x4(%ebp)
ff50a06d:	8b 45 fc             	mov    -0x4(%ebp),%eax
ff50a070:	3b 45 0c             	cmp    0xc(%ebp),%eax
ff50a073:	7c ca                	jl     ff50a03f <initTables+0x10f>
ff50a075:	83 45 f8 04          	addl   $0x4,-0x8(%ebp)
ff50a079:	66 c7 05 4c c0 50 ff 	movw   $0xffff,0xff50c04c
ff50a080:	ff ff 
ff50a082:	8b 45 f8             	mov    -0x8(%ebp),%eax
ff50a085:	8b 55 08             	mov    0x8(%ebp),%edx
ff50a088:	29 d0                	sub    %edx,%eax
ff50a08a:	89 45 ec             	mov    %eax,-0x14(%ebp)
ff50a08d:	8b 45 ec             	mov    -0x14(%ebp),%eax
ff50a090:	c9                   	leave  
ff50a091:	c3                   	ret    
ff50a092:	8d b4 26 00 00 00 00 	lea    0x0(%esi,%eiz,1),%esi
ff50a099:	8d bc 27 00 00 00 00 	lea    0x0(%edi,%eiz,1),%edi

ff50a0a0 <isValidElfExe>:
ff50a0a0:	55                   	push   %ebp
ff50a0a1:	89 e5                	mov    %esp,%ebp
ff50a0a3:	83 ec 20             	sub    $0x20,%esp
ff50a0a6:	8b 45 08             	mov    0x8(%ebp),%eax
ff50a0a9:	89 45 fc             	mov    %eax,-0x4(%ebp)
ff50a0ac:	83 7d 08 00          	cmpl   $0x0,0x8(%ebp)
ff50a0b0:	75 09                	jne    ff50a0bb <isValidElfExe+0x1b>
ff50a0b2:	c6 45 ef 00          	movb   $0x0,-0x11(%ebp)
ff50a0b6:	e9 82 00 00 00       	jmp    ff50a13d <isValidElfExe+0x9d>
ff50a0bb:	8b 45 fc             	mov    -0x4(%ebp),%eax
ff50a0be:	c7 44 24 08 04 00 00 	movl   $0x4,0x8(%esp)
ff50a0c5:	00 
ff50a0c6:	89 44 24 04          	mov    %eax,0x4(%esp)
ff50a0ca:	c7 04 24 d7 67 50 ff 	movl   $0xff5067d7,(%esp)
ff50a0d1:	e8 2a f1 ff ff       	call   ff509200 <memcmp>
ff50a0d6:	85 c0                	test   %eax,%eax
ff50a0d8:	74 06                	je     ff50a0e0 <isValidElfExe+0x40>
ff50a0da:	c6 45 ef 00          	movb   $0x0,-0x11(%ebp)
ff50a0de:	eb 5d                	jmp    ff50a13d <isValidElfExe+0x9d>
ff50a0e0:	8b 45 fc             	mov    -0x4(%ebp),%eax
ff50a0e3:	0f b6 40 06          	movzbl 0x6(%eax),%eax
ff50a0e7:	3c 01                	cmp    $0x1,%al
ff50a0e9:	74 06                	je     ff50a0f1 <isValidElfExe+0x51>
ff50a0eb:	c6 45 ef 00          	movb   $0x0,-0x11(%ebp)
ff50a0ef:	eb 4c                	jmp    ff50a13d <isValidElfExe+0x9d>
ff50a0f1:	8b 45 fc             	mov    -0x4(%ebp),%eax
ff50a0f4:	0f b7 40 10          	movzwl 0x10(%eax),%eax
ff50a0f8:	66 83 f8 02          	cmp    $0x2,%ax
ff50a0fc:	74 06                	je     ff50a104 <isValidElfExe+0x64>
ff50a0fe:	c6 45 ef 00          	movb   $0x0,-0x11(%ebp)
ff50a102:	eb 39                	jmp    ff50a13d <isValidElfExe+0x9d>
ff50a104:	8b 45 fc             	mov    -0x4(%ebp),%eax
ff50a107:	0f b7 40 12          	movzwl 0x12(%eax),%eax
ff50a10b:	66 83 f8 03          	cmp    $0x3,%ax
ff50a10f:	74 06                	je     ff50a117 <isValidElfExe+0x77>
ff50a111:	c6 45 ef 00          	movb   $0x0,-0x11(%ebp)
ff50a115:	eb 26                	jmp    ff50a13d <isValidElfExe+0x9d>
ff50a117:	8b 45 fc             	mov    -0x4(%ebp),%eax
ff50a11a:	8b 40 14             	mov    0x14(%eax),%eax
ff50a11d:	83 f8 01             	cmp    $0x1,%eax
ff50a120:	74 06                	je     ff50a128 <isValidElfExe+0x88>
ff50a122:	c6 45 ef 00          	movb   $0x0,-0x11(%ebp)
ff50a126:	eb 15                	jmp    ff50a13d <isValidElfExe+0x9d>
ff50a128:	8b 45 fc             	mov    -0x4(%ebp),%eax
ff50a12b:	0f b6 40 04          	movzbl 0x4(%eax),%eax
ff50a12f:	3c 01                	cmp    $0x1,%al
ff50a131:	74 06                	je     ff50a139 <isValidElfExe+0x99>
ff50a133:	c6 45 ef 00          	movb   $0x0,-0x11(%ebp)
ff50a137:	eb 04                	jmp    ff50a13d <isValidElfExe+0x9d>
ff50a139:	c6 45 ef 01          	movb   $0x1,-0x11(%ebp)
ff50a13d:	0f b6 45 ef          	movzbl -0x11(%ebp),%eax
ff50a141:	c9                   	leave  
ff50a142:	c3                   	ret    
ff50a143:	8d b6 00 00 00 00    	lea    0x0(%esi),%esi
ff50a149:	8d bc 27 00 00 00 00 	lea    0x0(%edi,%eiz,1),%edi

ff50a150 <load_elf_exec>:
ff50a150:	55                   	push   %ebp
ff50a151:	89 e5                	mov    %esp,%ebp
ff50a153:	83 ec 58             	sub    $0x58,%esp
ff50a156:	8b 45 0c             	mov    0xc(%ebp),%eax
ff50a159:	66 89 45 bc          	mov    %ax,-0x44(%ebp)
ff50a15d:	8b 45 08             	mov    0x8(%ebp),%eax
ff50a160:	89 45 d8             	mov    %eax,-0x28(%ebp)
ff50a163:	c7 45 f4 00 00 00 00 	movl   $0x0,-0xc(%ebp)
ff50a16a:	8b 45 08             	mov    0x8(%ebp),%eax
ff50a16d:	89 04 24             	mov    %eax,(%esp)
ff50a170:	e8 2b ff ff ff       	call   ff50a0a0 <isValidElfExe>
ff50a175:	83 f0 01             	xor    $0x1,%eax
ff50a178:	84 c0                	test   %al,%al
ff50a17a:	74 18                	je     ff50a194 <load_elf_exec+0x44>
ff50a17c:	c7 04 24 dc 67 50 ff 	movl   $0xff5067dc,(%esp)
ff50a183:	e8 c8 65 ff ff       	call   ff500750 <kprintf>
ff50a188:	c7 45 b8 ff ff ff ff 	movl   $0xffffffff,-0x48(%ebp)
ff50a18f:	e9 99 02 00 00       	jmp    ff50a42d <load_elf_exec+0x2dd>
ff50a194:	8b 45 d8             	mov    -0x28(%ebp),%eax
ff50a197:	0f b7 40 2a          	movzwl 0x2a(%eax),%eax
ff50a19b:	0f b7 c0             	movzwl %ax,%eax
ff50a19e:	89 45 c4             	mov    %eax,-0x3c(%ebp)
ff50a1a1:	8b 45 d8             	mov    -0x28(%ebp),%eax
ff50a1a4:	0f b7 40 2c          	movzwl 0x2c(%eax),%eax
ff50a1a8:	0f b7 c0             	movzwl %ax,%eax
ff50a1ab:	89 45 c8             	mov    %eax,-0x38(%ebp)
ff50a1ae:	8b 45 d8             	mov    -0x28(%ebp),%eax
ff50a1b1:	0f b7 40 30          	movzwl 0x30(%eax),%eax
ff50a1b5:	0f b7 c0             	movzwl %ax,%eax
ff50a1b8:	89 45 cc             	mov    %eax,-0x34(%ebp)
ff50a1bb:	0f bf 55 bc          	movswl -0x44(%ebp),%edx
ff50a1bf:	8b 45 d8             	mov    -0x28(%ebp),%eax
ff50a1c2:	8b 40 18             	mov    0x18(%eax),%eax
ff50a1c5:	89 c1                	mov    %eax,%ecx
ff50a1c7:	89 54 24 0c          	mov    %edx,0xc(%esp)
ff50a1cb:	8b 45 14             	mov    0x14(%ebp),%eax
ff50a1ce:	89 44 24 08          	mov    %eax,0x8(%esp)
ff50a1d2:	8b 45 10             	mov    0x10(%ebp),%eax
ff50a1d5:	89 44 24 04          	mov    %eax,0x4(%esp)
ff50a1d9:	89 0c 24             	mov    %ecx,(%esp)
ff50a1dc:	e8 bf b5 ff ff       	call   ff5057a0 <createThread>
ff50a1e1:	89 45 e8             	mov    %eax,-0x18(%ebp)
ff50a1e4:	83 7d e8 00          	cmpl   $0x0,-0x18(%ebp)
ff50a1e8:	75 18                	jne    ff50a202 <load_elf_exec+0xb2>
ff50a1ea:	c7 04 24 fc 67 50 ff 	movl   $0xff5067fc,(%esp)
ff50a1f1:	e8 5a 65 ff ff       	call   ff500750 <kprintf>
ff50a1f6:	c7 45 b8 ff ff ff ff 	movl   $0xffffffff,-0x48(%ebp)
ff50a1fd:	e9 2b 02 00 00       	jmp    ff50a42d <load_elf_exec+0x2dd>
ff50a202:	8b 55 08             	mov    0x8(%ebp),%edx
ff50a205:	8b 45 d8             	mov    -0x28(%ebp),%eax
ff50a208:	8b 40 1c             	mov    0x1c(%eax),%eax
ff50a20b:	8d 04 02             	lea    (%edx,%eax,1),%eax
ff50a20e:	89 45 dc             	mov    %eax,-0x24(%ebp)
ff50a211:	8b 55 08             	mov    0x8(%ebp),%edx
ff50a214:	8b 45 d8             	mov    -0x28(%ebp),%eax
ff50a217:	8b 40 20             	mov    0x20(%eax),%eax
ff50a21a:	8d 04 02             	lea    (%edx,%eax,1),%eax
ff50a21d:	89 45 e0             	mov    %eax,-0x20(%ebp)
ff50a220:	8d 45 c0             	lea    -0x40(%ebp),%eax
ff50a223:	c7 00 07 60 00 00    	movl   $0x6007,(%eax)
ff50a229:	8b 45 dc             	mov    -0x24(%ebp),%eax
ff50a22c:	8b 40 08             	mov    0x8(%eax),%eax
ff50a22f:	89 c2                	mov    %eax,%edx
ff50a231:	8b 45 10             	mov    0x10(%ebp),%eax
ff50a234:	89 44 24 08          	mov    %eax,0x8(%esp)
ff50a238:	8d 45 c0             	lea    -0x40(%ebp),%eax
ff50a23b:	89 44 24 04          	mov    %eax,0x4(%esp)
ff50a23f:	89 14 24             	mov    %edx,(%esp)
ff50a242:	e8 f9 7f ff ff       	call   ff502240 <writePDE>
ff50a247:	c7 45 d0 00 00 00 00 	movl   $0x0,-0x30(%ebp)
ff50a24e:	e9 bc 01 00 00       	jmp    ff50a40f <load_elf_exec+0x2bf>
ff50a253:	8b 45 dc             	mov    -0x24(%ebp),%eax
ff50a256:	8b 00                	mov    (%eax),%eax
ff50a258:	83 f8 01             	cmp    $0x1,%eax
ff50a25b:	0f 85 a6 01 00 00    	jne    ff50a407 <load_elf_exec+0x2b7>
ff50a261:	8b 45 dc             	mov    -0x24(%ebp),%eax
ff50a264:	8b 40 14             	mov    0x14(%eax),%eax
ff50a267:	89 45 f8             	mov    %eax,-0x8(%ebp)
ff50a26a:	8b 45 dc             	mov    -0x24(%ebp),%eax
ff50a26d:	8b 40 10             	mov    0x10(%eax),%eax
ff50a270:	89 45 fc             	mov    %eax,-0x4(%ebp)
ff50a273:	8b 45 dc             	mov    -0x24(%ebp),%eax
ff50a276:	8b 50 04             	mov    0x4(%eax),%edx
ff50a279:	8b 45 dc             	mov    -0x24(%ebp),%eax
ff50a27c:	8b 48 08             	mov    0x8(%eax),%ecx
ff50a27f:	8b 45 f8             	mov    -0x8(%ebp),%eax
ff50a282:	89 44 24 0c          	mov    %eax,0xc(%esp)
ff50a286:	89 54 24 08          	mov    %edx,0x8(%esp)
ff50a28a:	89 4c 24 04          	mov    %ecx,0x4(%esp)
ff50a28e:	c7 04 24 28 68 50 ff 	movl   $0xff506828,(%esp)
ff50a295:	e8 b6 64 ff ff       	call   ff500750 <kprintf>
ff50a29a:	c7 45 d4 00 00 00 00 	movl   $0x0,-0x2c(%ebp)
ff50a2a1:	eb 4e                	jmp    ff50a2f1 <load_elf_exec+0x1a1>
ff50a2a3:	8b 45 d4             	mov    -0x2c(%ebp),%eax
ff50a2a6:	8b 04 c5 04 b3 50 ff 	mov    -0xaf4cfc(,%eax,8),%eax
ff50a2ad:	c1 e0 0c             	shl    $0xc,%eax
ff50a2b0:	3b 45 f8             	cmp    -0x8(%ebp),%eax
ff50a2b3:	72 38                	jb     ff50a2ed <load_elf_exec+0x19d>
ff50a2b5:	8b 45 d4             	mov    -0x2c(%ebp),%eax
ff50a2b8:	c1 e0 03             	shl    $0x3,%eax
ff50a2bb:	05 00 b3 50 ff       	add    $0xff50b300,%eax
ff50a2c0:	89 45 f4             	mov    %eax,-0xc(%ebp)
ff50a2c3:	8b 45 d4             	mov    -0x2c(%ebp),%eax
ff50a2c6:	8b 14 c5 04 b3 50 ff 	mov    -0xaf4cfc(,%eax,8),%edx
ff50a2cd:	8b 45 d4             	mov    -0x2c(%ebp),%eax
ff50a2d0:	8b 04 c5 00 b3 50 ff 	mov    -0xaf4d00(,%eax,8),%eax
ff50a2d7:	89 54 24 08          	mov    %edx,0x8(%esp)
ff50a2db:	89 44 24 04          	mov    %eax,0x4(%esp)
ff50a2df:	c7 04 24 50 68 50 ff 	movl   $0xff506850,(%esp)
ff50a2e6:	e8 65 64 ff ff       	call   ff500750 <kprintf>
ff50a2eb:	eb 13                	jmp    ff50a300 <load_elf_exec+0x1b0>
ff50a2ed:	83 45 d4 01          	addl   $0x1,-0x2c(%ebp)
ff50a2f1:	0f b7 05 fe b2 50 ff 	movzwl 0xff50b2fe,%eax
ff50a2f8:	0f b7 c0             	movzwl %ax,%eax
ff50a2fb:	3b 45 d4             	cmp    -0x2c(%ebp),%eax
ff50a2fe:	77 a3                	ja     ff50a2a3 <load_elf_exec+0x153>
ff50a300:	0f b7 05 fe b2 50 ff 	movzwl 0xff50b2fe,%eax
ff50a307:	0f b7 c0             	movzwl %ax,%eax
ff50a30a:	3b 45 d4             	cmp    -0x2c(%ebp),%eax
ff50a30d:	74 06                	je     ff50a315 <load_elf_exec+0x1c5>
ff50a30f:	83 7d f4 00          	cmpl   $0x0,-0xc(%ebp)
ff50a313:	75 0c                	jne    ff50a321 <load_elf_exec+0x1d1>
ff50a315:	c7 04 24 70 68 50 ff 	movl   $0xff506870,(%esp)
ff50a31c:	e8 9f f2 ff ff       	call   ff5095c0 <stopInit>
ff50a321:	c7 45 d4 00 00 00 00 	movl   $0x0,-0x2c(%ebp)
ff50a328:	e9 d0 00 00 00       	jmp    ff50a3fd <load_elf_exec+0x2ad>
ff50a32d:	83 7d fc 00          	cmpl   $0x0,-0x4(%ebp)
ff50a331:	75 3b                	jne    ff50a36e <load_elf_exec+0x21e>
ff50a333:	8b 45 f4             	mov    -0xc(%ebp),%eax
ff50a336:	8b 00                	mov    (%eax),%eax
ff50a338:	89 45 ec             	mov    %eax,-0x14(%ebp)
ff50a33b:	c7 45 f0 02 00 00 00 	movl   $0x2,-0x10(%ebp)
ff50a342:	8b 45 ec             	mov    -0x14(%ebp),%eax
ff50a345:	89 04 24             	mov    %eax,(%esp)
ff50a348:	e8 13 ee ff ff       	call   ff509160 <clearPhysPage>
ff50a34d:	8b 45 f4             	mov    -0xc(%ebp),%eax
ff50a350:	8b 00                	mov    (%eax),%eax
ff50a352:	8d 90 00 10 00 00    	lea    0x1000(%eax),%edx
ff50a358:	8b 45 f4             	mov    -0xc(%ebp),%eax
ff50a35b:	89 10                	mov    %edx,(%eax)
ff50a35d:	8b 45 f4             	mov    -0xc(%ebp),%eax
ff50a360:	8b 40 04             	mov    0x4(%eax),%eax
ff50a363:	8d 50 ff             	lea    -0x1(%eax),%edx
ff50a366:	8b 45 f4             	mov    -0xc(%ebp),%eax
ff50a369:	89 50 04             	mov    %edx,0x4(%eax)
ff50a36c:	eb 26                	jmp    ff50a394 <load_elf_exec+0x244>
ff50a36e:	8b 45 dc             	mov    -0x24(%ebp),%eax
ff50a371:	8b 50 04             	mov    0x4(%eax),%edx
ff50a374:	8b 45 d4             	mov    -0x2c(%ebp),%eax
ff50a377:	c1 e0 0c             	shl    $0xc,%eax
ff50a37a:	8d 04 02             	lea    (%edx,%eax,1),%eax
ff50a37d:	03 45 d8             	add    -0x28(%ebp),%eax
ff50a380:	89 c2                	mov    %eax,%edx
ff50a382:	b8 00 00 c0 00       	mov    $0xc00000,%eax
ff50a387:	8d 04 02             	lea    (%edx,%eax,1),%eax
ff50a38a:	89 45 ec             	mov    %eax,-0x14(%ebp)
ff50a38d:	c7 45 f0 02 00 00 00 	movl   $0x2,-0x10(%ebp)
ff50a394:	8b 45 f0             	mov    -0x10(%ebp),%eax
ff50a397:	89 c1                	mov    %eax,%ecx
ff50a399:	83 c9 04             	or     $0x4,%ecx
ff50a39c:	8b 45 dc             	mov    -0x24(%ebp),%eax
ff50a39f:	8b 50 08             	mov    0x8(%eax),%edx
ff50a3a2:	8b 45 d4             	mov    -0x2c(%ebp),%eax
ff50a3a5:	c1 e0 0c             	shl    $0xc,%eax
ff50a3a8:	8d 04 02             	lea    (%edx,%eax,1),%eax
ff50a3ab:	89 c2                	mov    %eax,%edx
ff50a3ad:	8b 45 10             	mov    0x10(%ebp),%eax
ff50a3b0:	89 44 24 0c          	mov    %eax,0xc(%esp)
ff50a3b4:	89 4c 24 08          	mov    %ecx,0x8(%esp)
ff50a3b8:	8b 45 ec             	mov    -0x14(%ebp),%eax
ff50a3bb:	89 44 24 04          	mov    %eax,0x4(%esp)
ff50a3bf:	89 14 24             	mov    %edx,(%esp)
ff50a3c2:	e8 29 8a ff ff       	call   ff502df0 <mapPage>
ff50a3c7:	81 7d f8 ff 0f 00 00 	cmpl   $0xfff,-0x8(%ebp)
ff50a3ce:	77 09                	ja     ff50a3d9 <load_elf_exec+0x289>
ff50a3d0:	c7 45 f8 00 00 00 00 	movl   $0x0,-0x8(%ebp)
ff50a3d7:	eb 07                	jmp    ff50a3e0 <load_elf_exec+0x290>
ff50a3d9:	81 6d f8 00 10 00 00 	subl   $0x1000,-0x8(%ebp)
ff50a3e0:	81 7d fc ff 0f 00 00 	cmpl   $0xfff,-0x4(%ebp)
ff50a3e7:	77 09                	ja     ff50a3f2 <load_elf_exec+0x2a2>
ff50a3e9:	c7 45 fc 00 00 00 00 	movl   $0x0,-0x4(%ebp)
ff50a3f0:	eb 07                	jmp    ff50a3f9 <load_elf_exec+0x2a9>
ff50a3f2:	81 6d fc 00 10 00 00 	subl   $0x1000,-0x4(%ebp)
ff50a3f9:	83 45 d4 01          	addl   $0x1,-0x2c(%ebp)
ff50a3fd:	83 7d f8 00          	cmpl   $0x0,-0x8(%ebp)
ff50a401:	0f 85 26 ff ff ff    	jne    ff50a32d <load_elf_exec+0x1dd>
ff50a407:	83 45 d0 01          	addl   $0x1,-0x30(%ebp)
ff50a40b:	83 45 dc 20          	addl   $0x20,-0x24(%ebp)
ff50a40f:	8b 45 d0             	mov    -0x30(%ebp),%eax
ff50a412:	3b 45 c8             	cmp    -0x38(%ebp),%eax
ff50a415:	0f 82 38 fe ff ff    	jb     ff50a253 <load_elf_exec+0x103>
ff50a41b:	8b 45 e8             	mov    -0x18(%ebp),%eax
ff50a41e:	89 04 24             	mov    %eax,(%esp)
ff50a421:	e8 fa ae ff ff       	call   ff505320 <startThread>
ff50a426:	c7 45 b8 00 00 00 00 	movl   $0x0,-0x48(%ebp)
ff50a42d:	8b 45 b8             	mov    -0x48(%ebp),%eax
ff50a430:	c9                   	leave  
ff50a431:	c3                   	ret    
ff50a432:	8d b4 26 00 00 00 00 	lea    0x0(%esi,%eiz,1),%esi
ff50a439:	8d bc 27 00 00 00 00 	lea    0x0(%edi,%eiz,1),%edi

ff50a440 <init2>:
ff50a440:	55                   	push   %ebp
ff50a441:	89 e5                	mov    %esp,%ebp
ff50a443:	83 ec 48             	sub    $0x48,%esp
ff50a446:	a1 3c c0 50 ff       	mov    0xff50c03c,%eax
ff50a44b:	0f b6 40 05          	movzbl 0x5(%eax),%eax
ff50a44f:	83 e0 0f             	and    $0xf,%eax
ff50a452:	84 c0                	test   %al,%al
ff50a454:	75 24                	jne    ff50a47a <init2+0x3a>
ff50a456:	c7 44 24 0c 65 02 00 	movl   $0x265,0xc(%esp)
ff50a45d:	00 
ff50a45e:	c7 44 24 08 95 68 50 	movl   $0xff506895,0x8(%esp)
ff50a465:	ff 
ff50a466:	c7 44 24 04 02 66 50 	movl   $0xff506602,0x4(%esp)
ff50a46d:	ff 
ff50a46e:	c7 04 24 9b 68 50 ff 	movl   $0xff50689b,(%esp)
ff50a475:	e8 96 60 ff ff       	call   ff500510 <printAssertMsg>
ff50a47a:	ba 00 c0 50 ff       	mov    $0xff50c000,%edx
ff50a47f:	b8 00 90 50 ff       	mov    $0xff509000,%eax
ff50a484:	89 d1                	mov    %edx,%ecx
ff50a486:	29 c1                	sub    %eax,%ecx
ff50a488:	89 c8                	mov    %ecx,%eax
ff50a48a:	89 45 e4             	mov    %eax,-0x1c(%ebp)
ff50a48d:	b8 00 00 40 ff       	mov    $0xff400000,%eax
ff50a492:	2d 00 10 00 00       	sub    $0x1000,%eax
ff50a497:	89 45 fc             	mov    %eax,-0x4(%ebp)
ff50a49a:	c7 04 24 00 30 00 00 	movl   $0x3000,(%esp)
ff50a4a1:	e8 ba ec ff ff       	call   ff509160 <clearPhysPage>
ff50a4a6:	c7 04 24 00 60 00 00 	movl   $0x6000,(%esp)
ff50a4ad:	e8 ae ec ff ff       	call   ff509160 <clearPhysPage>
ff50a4b2:	c7 04 24 00 40 00 00 	movl   $0x4000,(%esp)
ff50a4b9:	e8 a2 ec ff ff       	call   ff509160 <clearPhysPage>
ff50a4be:	c7 45 ec 00 40 40 ff 	movl   $0xff404000,-0x14(%ebp)
ff50a4c5:	ba 56 af 50 ff       	mov    $0xff50af56,%edx
ff50a4ca:	b8 00 90 50 ff       	mov    $0xff509000,%eax
ff50a4cf:	89 d1                	mov    %edx,%ecx
ff50a4d1:	29 c1                	sub    %eax,%ecx
ff50a4d3:	89 c8                	mov    %ecx,%eax
ff50a4d5:	89 44 24 04          	mov    %eax,0x4(%esp)
ff50a4d9:	c7 04 24 b4 68 50 ff 	movl   $0xff5068b4,(%esp)
ff50a4e0:	e8 6b 62 ff ff       	call   ff500750 <kprintf>
ff50a4e5:	ba 00 c0 50 ff       	mov    $0xff50c000,%edx
ff50a4ea:	b8 56 af 50 ff       	mov    $0xff50af56,%eax
ff50a4ef:	89 d1                	mov    %edx,%ecx
ff50a4f1:	29 c1                	sub    %eax,%ecx
ff50a4f3:	89 c8                	mov    %ecx,%eax
ff50a4f5:	89 44 24 04          	mov    %eax,0x4(%esp)
ff50a4f9:	c7 04 24 d8 68 50 ff 	movl   $0xff5068d8,(%esp)
ff50a500:	e8 4b 62 ff ff       	call   ff500750 <kprintf>
ff50a505:	0f b7 05 fc b2 50 ff 	movzwl 0xff50b2fc,%eax
ff50a50c:	66 85 c0             	test   %ax,%ax
ff50a50f:	75 11                	jne    ff50a522 <init2+0xe2>
ff50a511:	c7 04 24 fc 68 50 ff 	movl   $0xff5068fc,(%esp)
ff50a518:	e8 33 62 ff ff       	call   ff500750 <kprintf>
ff50a51d:	e9 1a 03 00 00       	jmp    ff50a83c <init2+0x3fc>
ff50a522:	0f b7 05 fe b2 50 ff 	movzwl 0xff50b2fe,%eax
ff50a529:	0f b7 c8             	movzwl %ax,%ecx
ff50a52c:	ba 00 90 50 ff       	mov    $0xff509000,%edx
ff50a531:	b8 00 00 c0 00       	mov    $0xc00000,%eax
ff50a536:	8d 04 02             	lea    (%edx,%eax,1),%eax
ff50a539:	89 04 cd 00 b3 50 ff 	mov    %eax,-0xaf4d00(,%ecx,8)
ff50a540:	0f b7 05 fe b2 50 ff 	movzwl 0xff50b2fe,%eax
ff50a547:	0f b7 c0             	movzwl %ax,%eax
ff50a54a:	89 45 c8             	mov    %eax,-0x38(%ebp)
ff50a54d:	8b 55 e4             	mov    -0x1c(%ebp),%edx
ff50a550:	8b 45 e4             	mov    -0x1c(%ebp),%eax
ff50a553:	25 00 f0 ff ff       	and    $0xfffff000,%eax
ff50a558:	39 c2                	cmp    %eax,%edx
ff50a55a:	74 17                	je     ff50a573 <init2+0x133>
ff50a55c:	8b 45 e4             	mov    -0x1c(%ebp),%eax
ff50a55f:	25 00 f0 ff ff       	and    $0xfffff000,%eax
ff50a564:	05 00 10 00 00       	add    $0x1000,%eax
ff50a569:	89 c2                	mov    %eax,%edx
ff50a56b:	c1 ea 0c             	shr    $0xc,%edx
ff50a56e:	89 55 cc             	mov    %edx,-0x34(%ebp)
ff50a571:	eb 0b                	jmp    ff50a57e <init2+0x13e>
ff50a573:	8b 45 e4             	mov    -0x1c(%ebp),%eax
ff50a576:	89 c1                	mov    %eax,%ecx
ff50a578:	c1 e9 0c             	shr    $0xc,%ecx
ff50a57b:	89 4d cc             	mov    %ecx,-0x34(%ebp)
ff50a57e:	8b 55 cc             	mov    -0x34(%ebp),%edx
ff50a581:	8b 45 c8             	mov    -0x38(%ebp),%eax
ff50a584:	89 14 c5 04 b3 50 ff 	mov    %edx,-0xaf4cfc(,%eax,8)
ff50a58b:	0f b7 05 fe b2 50 ff 	movzwl 0xff50b2fe,%eax
ff50a592:	83 c0 01             	add    $0x1,%eax
ff50a595:	66 a3 fe b2 50 ff    	mov    %ax,0xff50b2fe
ff50a59b:	8b 45 e4             	mov    -0x1c(%ebp),%eax
ff50a59e:	89 44 24 04          	mov    %eax,0x4(%esp)
ff50a5a2:	c7 04 24 30 69 50 ff 	movl   $0xff506930,(%esp)
ff50a5a9:	e8 a2 61 ff ff       	call   ff500750 <kprintf>
ff50a5ae:	a1 a4 af 50 ff       	mov    0xff50afa4,%eax
ff50a5b3:	89 04 24             	mov    %eax,(%esp)
ff50a5b6:	e8 e5 fa ff ff       	call   ff50a0a0 <isValidElfExe>
ff50a5bb:	84 c0                	test   %al,%al
ff50a5bd:	0f 84 6d 02 00 00    	je     ff50a830 <init2+0x3f0>
ff50a5c3:	8d 45 d4             	lea    -0x2c(%ebp),%eax
ff50a5c6:	c7 00 07 40 00 00    	movl   $0x4007,(%eax)
ff50a5cc:	c7 44 24 08 00 30 00 	movl   $0x3000,0x8(%esp)
ff50a5d3:	00 
ff50a5d4:	8d 45 d4             	lea    -0x2c(%ebp),%eax
ff50a5d7:	89 44 24 04          	mov    %eax,0x4(%esp)
ff50a5db:	8b 45 fc             	mov    -0x4(%ebp),%eax
ff50a5de:	89 04 24             	mov    %eax,(%esp)
ff50a5e1:	e8 5a 7c ff ff       	call   ff502240 <writePDE>
ff50a5e6:	8d 45 d8             	lea    -0x28(%ebp),%eax
ff50a5e9:	c7 00 07 50 00 00    	movl   $0x5007,(%eax)
ff50a5ef:	c7 44 24 08 00 30 00 	movl   $0x3000,0x8(%esp)
ff50a5f6:	00 
ff50a5f7:	8d 45 d8             	lea    -0x28(%ebp),%eax
ff50a5fa:	89 44 24 04          	mov    %eax,0x4(%esp)
ff50a5fe:	8b 45 fc             	mov    -0x4(%ebp),%eax
ff50a601:	89 04 24             	mov    %eax,(%esp)
ff50a604:	e8 97 80 ff ff       	call   ff5026a0 <writePTE>
ff50a609:	c7 45 e8 00 30 40 ff 	movl   $0xff403000,-0x18(%ebp)
ff50a610:	8b 45 e8             	mov    -0x18(%ebp),%eax
ff50a613:	83 c0 08             	add    $0x8,%eax
ff50a616:	89 45 f0             	mov    %eax,-0x10(%ebp)
ff50a619:	8b 45 f0             	mov    -0x10(%ebp),%eax
ff50a61c:	83 c0 04             	add    $0x4,%eax
ff50a61f:	89 45 f4             	mov    %eax,-0xc(%ebp)
ff50a622:	8b 55 f4             	mov    -0xc(%ebp),%edx
ff50a625:	0f b7 05 fe b2 50 ff 	movzwl 0xff50b2fe,%eax
ff50a62c:	0f b7 c0             	movzwl %ax,%eax
ff50a62f:	c1 e0 03             	shl    $0x3,%eax
ff50a632:	8d 04 02             	lea    (%edx,%eax,1),%eax
ff50a635:	89 45 f8             	mov    %eax,-0x8(%ebp)
ff50a638:	8b 55 f8             	mov    -0x8(%ebp),%edx
ff50a63b:	0f b7 05 fc b2 50 ff 	movzwl 0xff50b2fc,%eax
ff50a642:	0f b7 c0             	movzwl %ax,%eax
ff50a645:	c1 e0 03             	shl    $0x3,%eax
ff50a648:	8d 04 02             	lea    (%edx,%eax,1),%eax
ff50a64b:	89 45 e0             	mov    %eax,-0x20(%ebp)
ff50a64e:	c7 44 24 08 02 00 00 	movl   $0x2,0x8(%esp)
ff50a655:	00 
ff50a656:	c7 44 24 04 00 50 00 	movl   $0x5000,0x4(%esp)
ff50a65d:	00 
ff50a65e:	c7 04 24 00 30 40 ff 	movl   $0xff403000,(%esp)
ff50a665:	e8 36 86 ff ff       	call   ff502ca0 <kMapPage>
ff50a66a:	c7 45 dc 00 00 00 00 	movl   $0x0,-0x24(%ebp)
ff50a671:	eb 37                	jmp    ff50a6aa <init2+0x26a>
ff50a673:	8b 45 dc             	mov    -0x24(%ebp),%eax
ff50a676:	c1 e0 03             	shl    $0x3,%eax
ff50a679:	89 c2                	mov    %eax,%edx
ff50a67b:	03 55 f8             	add    -0x8(%ebp),%edx
ff50a67e:	8b 45 dc             	mov    -0x24(%ebp),%eax
ff50a681:	c1 e0 04             	shl    $0x4,%eax
ff50a684:	8b 80 c0 af 50 ff    	mov    -0xaf5040(%eax),%eax
ff50a68a:	89 02                	mov    %eax,(%edx)
ff50a68c:	8b 45 dc             	mov    -0x24(%ebp),%eax
ff50a68f:	c1 e0 03             	shl    $0x3,%eax
ff50a692:	89 c2                	mov    %eax,%edx
ff50a694:	03 55 f8             	add    -0x8(%ebp),%edx
ff50a697:	8b 45 dc             	mov    -0x24(%ebp),%eax
ff50a69a:	c1 e0 04             	shl    $0x4,%eax
ff50a69d:	8b 80 c4 af 50 ff    	mov    -0xaf503c(%eax),%eax
ff50a6a3:	89 42 04             	mov    %eax,0x4(%edx)
ff50a6a6:	83 45 dc 01          	addl   $0x1,-0x24(%ebp)
ff50a6aa:	0f b7 05 fc b2 50 ff 	movzwl 0xff50b2fc,%eax
ff50a6b1:	0f b7 c0             	movzwl %ax,%eax
ff50a6b4:	3b 45 dc             	cmp    -0x24(%ebp),%eax
ff50a6b7:	7f ba                	jg     ff50a673 <init2+0x233>
ff50a6b9:	8b 45 e0             	mov    -0x20(%ebp),%eax
ff50a6bc:	8d 50 18             	lea    0x18(%eax),%edx
ff50a6bf:	8b 45 e0             	mov    -0x20(%ebp),%eax
ff50a6c2:	25 ff 0f 00 00       	and    $0xfff,%eax
ff50a6c7:	03 45 fc             	add    -0x4(%ebp),%eax
ff50a6ca:	89 02                	mov    %eax,(%edx)
ff50a6cc:	8b 45 e0             	mov    -0x20(%ebp),%eax
ff50a6cf:	83 c0 14             	add    $0x14,%eax
ff50a6d2:	c7 00 05 00 00 00    	movl   $0x5,(%eax)
ff50a6d8:	8b 45 e0             	mov    -0x20(%ebp),%eax
ff50a6db:	83 c0 10             	add    $0x10,%eax
ff50a6de:	c7 00 00 30 00 00    	movl   $0x3000,(%eax)
ff50a6e4:	8b 45 e0             	mov    -0x20(%ebp),%eax
ff50a6e7:	8d 50 0c             	lea    0xc(%eax),%edx
ff50a6ea:	8b 45 f8             	mov    -0x8(%ebp),%eax
ff50a6ed:	25 ff 0f 00 00       	and    $0xfff,%eax
ff50a6f2:	03 45 fc             	add    -0x4(%ebp),%eax
ff50a6f5:	89 02                	mov    %eax,(%edx)
ff50a6f7:	8b 45 e0             	mov    -0x20(%ebp),%eax
ff50a6fa:	8d 50 08             	lea    0x8(%eax),%edx
ff50a6fd:	8b 45 f4             	mov    -0xc(%ebp),%eax
ff50a700:	25 ff 0f 00 00       	and    $0xfff,%eax
ff50a705:	03 45 fc             	add    -0x4(%ebp),%eax
ff50a708:	89 02                	mov    %eax,(%edx)
ff50a70a:	8b 45 e0             	mov    -0x20(%ebp),%eax
ff50a70d:	8d 50 04             	lea    0x4(%eax),%edx
ff50a710:	8b 45 f0             	mov    -0x10(%ebp),%eax
ff50a713:	25 ff 0f 00 00       	and    $0xfff,%eax
ff50a718:	03 45 fc             	add    -0x4(%ebp),%eax
ff50a71b:	89 02                	mov    %eax,(%edx)
ff50a71d:	8b 45 e8             	mov    -0x18(%ebp),%eax
ff50a720:	25 ff 0f 00 00       	and    $0xfff,%eax
ff50a725:	89 c2                	mov    %eax,%edx
ff50a727:	03 55 fc             	add    -0x4(%ebp),%edx
ff50a72a:	8b 45 e0             	mov    -0x20(%ebp),%eax
ff50a72d:	89 10                	mov    %edx,(%eax)
ff50a72f:	83 6d ec 04          	subl   $0x4,-0x14(%ebp)
ff50a733:	8b 45 e0             	mov    -0x20(%ebp),%eax
ff50a736:	83 c0 14             	add    $0x14,%eax
ff50a739:	25 ff 0f 00 00       	and    $0xfff,%eax
ff50a73e:	03 45 fc             	add    -0x4(%ebp),%eax
ff50a741:	89 c2                	mov    %eax,%edx
ff50a743:	8b 45 ec             	mov    -0x14(%ebp),%eax
ff50a746:	89 10                	mov    %edx,(%eax)
ff50a748:	83 6d ec 04          	subl   $0x4,-0x14(%ebp)
ff50a74c:	c7 04 24 00 30 40 ff 	movl   $0xff403000,(%esp)
ff50a753:	e8 08 89 ff ff       	call   ff503060 <kUnmapPage>
ff50a758:	8b 45 ec             	mov    -0x14(%ebp),%eax
ff50a75b:	25 ff 0f 00 00       	and    $0xfff,%eax
ff50a760:	03 45 fc             	add    -0x4(%ebp),%eax
ff50a763:	8b 15 a4 af 50 ff    	mov    0xff50afa4,%edx
ff50a769:	89 44 24 0c          	mov    %eax,0xc(%esp)
ff50a76d:	c7 44 24 08 00 30 00 	movl   $0x3000,0x8(%esp)
ff50a774:	00 
ff50a775:	c7 44 24 04 01 00 00 	movl   $0x1,0x4(%esp)
ff50a77c:	00 
ff50a77d:	89 14 24             	mov    %edx,(%esp)
ff50a780:	e8 cb f9 ff ff       	call   ff50a150 <load_elf_exec>
ff50a785:	66 a3 54 c0 50 ff    	mov    %ax,0xff50c054
ff50a78b:	0f b7 05 54 c0 50 ff 	movzwl 0xff50c054,%eax
ff50a792:	66 85 c0             	test   %ax,%ax
ff50a795:	74 0c                	je     ff50a7a3 <init2+0x363>
ff50a797:	c7 04 24 5c 69 50 ff 	movl   $0xff50695c,(%esp)
ff50a79e:	e8 ad 5f ff ff       	call   ff500750 <kprintf>
ff50a7a3:	c7 44 24 08 02 00 00 	movl   $0x2,0x8(%esp)
ff50a7aa:	00 
ff50a7ab:	c7 44 24 04 00 50 00 	movl   $0x5000,0x4(%esp)
ff50a7b2:	00 
ff50a7b3:	c7 04 24 00 30 40 ff 	movl   $0xff403000,(%esp)
ff50a7ba:	e8 e1 84 ff ff       	call   ff502ca0 <kMapPage>
ff50a7bf:	c7 44 24 08 08 00 00 	movl   $0x8,0x8(%esp)
ff50a7c6:	00 
ff50a7c7:	c7 44 24 04 82 69 50 	movl   $0xff506982,0x4(%esp)
ff50a7ce:	ff 
ff50a7cf:	8b 45 e8             	mov    -0x18(%ebp),%eax
ff50a7d2:	89 04 24             	mov    %eax,(%esp)
ff50a7d5:	e8 46 6e ff ff       	call   ff501620 <memcpy>
ff50a7da:	c7 44 24 08 04 00 00 	movl   $0x4,0x8(%esp)
ff50a7e1:	00 
ff50a7e2:	c7 44 24 04 fc b2 50 	movl   $0xff50b2fc,0x4(%esp)
ff50a7e9:	ff 
ff50a7ea:	8b 45 f0             	mov    -0x10(%ebp),%eax
ff50a7ed:	89 04 24             	mov    %eax,(%esp)
ff50a7f0:	e8 2b 6e ff ff       	call   ff501620 <memcpy>
ff50a7f5:	0f b7 05 fe b2 50 ff 	movzwl 0xff50b2fe,%eax
ff50a7fc:	0f b7 c0             	movzwl %ax,%eax
ff50a7ff:	c1 e0 03             	shl    $0x3,%eax
ff50a802:	89 44 24 08          	mov    %eax,0x8(%esp)
ff50a806:	c7 44 24 04 00 b3 50 	movl   $0xff50b300,0x4(%esp)
ff50a80d:	ff 
ff50a80e:	8b 45 f4             	mov    -0xc(%ebp),%eax
ff50a811:	89 04 24             	mov    %eax,(%esp)
ff50a814:	e8 07 6e ff ff       	call   ff501620 <memcpy>
ff50a819:	8d 45 d8             	lea    -0x28(%ebp),%eax
ff50a81c:	c7 00 00 00 00 00    	movl   $0x0,(%eax)
ff50a822:	c7 04 24 00 30 40 ff 	movl   $0xff403000,(%esp)
ff50a829:	e8 32 88 ff ff       	call   ff503060 <kUnmapPage>
ff50a82e:	eb 0c                	jmp    ff50a83c <init2+0x3fc>
ff50a830:	c7 04 24 8c 69 50 ff 	movl   $0xff50698c,(%esp)
ff50a837:	e8 14 5f ff ff       	call   ff500750 <kprintf>
ff50a83c:	c9                   	leave  
ff50a83d:	c3                   	ret    
ff50a83e:	66 90                	xchg   %ax,%ax

ff50a840 <showGrubSupport>:
ff50a840:	55                   	push   %ebp
ff50a841:	89 e5                	mov    %esp,%ebp
ff50a843:	83 ec 08             	sub    $0x8,%esp
ff50a846:	8b 45 08             	mov    0x8(%ebp),%eax
ff50a849:	8b 00                	mov    (%eax),%eax
ff50a84b:	83 e0 01             	and    $0x1,%eax
ff50a84e:	84 c0                	test   %al,%al
ff50a850:	74 0c                	je     ff50a85e <showGrubSupport+0x1e>
ff50a852:	c7 04 24 ac 69 50 ff 	movl   $0xff5069ac,(%esp)
ff50a859:	e8 f2 5e ff ff       	call   ff500750 <kprintf>
ff50a85e:	8b 45 08             	mov    0x8(%ebp),%eax
ff50a861:	8b 00                	mov    (%eax),%eax
ff50a863:	83 e0 02             	and    $0x2,%eax
ff50a866:	85 c0                	test   %eax,%eax
ff50a868:	74 0c                	je     ff50a876 <showGrubSupport+0x36>
ff50a86a:	c7 04 24 c8 69 50 ff 	movl   $0xff5069c8,(%esp)
ff50a871:	e8 da 5e ff ff       	call   ff500750 <kprintf>
ff50a876:	8b 45 08             	mov    0x8(%ebp),%eax
ff50a879:	8b 00                	mov    (%eax),%eax
ff50a87b:	83 e0 04             	and    $0x4,%eax
ff50a87e:	85 c0                	test   %eax,%eax
ff50a880:	74 0c                	je     ff50a88e <showGrubSupport+0x4e>
ff50a882:	c7 04 24 e0 69 50 ff 	movl   $0xff5069e0,(%esp)
ff50a889:	e8 c2 5e ff ff       	call   ff500750 <kprintf>
ff50a88e:	8b 45 08             	mov    0x8(%ebp),%eax
ff50a891:	8b 00                	mov    (%eax),%eax
ff50a893:	83 e0 08             	and    $0x8,%eax
ff50a896:	85 c0                	test   %eax,%eax
ff50a898:	74 0c                	je     ff50a8a6 <showGrubSupport+0x66>
ff50a89a:	c7 04 24 f9 69 50 ff 	movl   $0xff5069f9,(%esp)
ff50a8a1:	e8 aa 5e ff ff       	call   ff500750 <kprintf>
ff50a8a6:	8b 45 08             	mov    0x8(%ebp),%eax
ff50a8a9:	8b 00                	mov    (%eax),%eax
ff50a8ab:	83 e0 10             	and    $0x10,%eax
ff50a8ae:	85 c0                	test   %eax,%eax
ff50a8b0:	75 0c                	jne    ff50a8be <showGrubSupport+0x7e>
ff50a8b2:	8b 45 08             	mov    0x8(%ebp),%eax
ff50a8b5:	8b 00                	mov    (%eax),%eax
ff50a8b7:	83 e0 20             	and    $0x20,%eax
ff50a8ba:	85 c0                	test   %eax,%eax
ff50a8bc:	74 0c                	je     ff50a8ca <showGrubSupport+0x8a>
ff50a8be:	c7 04 24 0d 6a 50 ff 	movl   $0xff506a0d,(%esp)
ff50a8c5:	e8 86 5e ff ff       	call   ff500750 <kprintf>
ff50a8ca:	8b 45 08             	mov    0x8(%ebp),%eax
ff50a8cd:	8b 00                	mov    (%eax),%eax
ff50a8cf:	83 e0 40             	and    $0x40,%eax
ff50a8d2:	85 c0                	test   %eax,%eax
ff50a8d4:	74 0c                	je     ff50a8e2 <showGrubSupport+0xa2>
ff50a8d6:	c7 04 24 26 6a 50 ff 	movl   $0xff506a26,(%esp)
ff50a8dd:	e8 6e 5e ff ff       	call   ff500750 <kprintf>
ff50a8e2:	8b 45 08             	mov    0x8(%ebp),%eax
ff50a8e5:	8b 00                	mov    (%eax),%eax
ff50a8e7:	25 80 00 00 00       	and    $0x80,%eax
ff50a8ec:	85 c0                	test   %eax,%eax
ff50a8ee:	74 0c                	je     ff50a8fc <showGrubSupport+0xbc>
ff50a8f0:	c7 04 24 3d 6a 50 ff 	movl   $0xff506a3d,(%esp)
ff50a8f7:	e8 54 5e ff ff       	call   ff500750 <kprintf>
ff50a8fc:	8b 45 08             	mov    0x8(%ebp),%eax
ff50a8ff:	8b 00                	mov    (%eax),%eax
ff50a901:	25 00 01 00 00       	and    $0x100,%eax
ff50a906:	85 c0                	test   %eax,%eax
ff50a908:	74 0c                	je     ff50a916 <showGrubSupport+0xd6>
ff50a90a:	c7 04 24 54 6a 50 ff 	movl   $0xff506a54,(%esp)
ff50a911:	e8 3a 5e ff ff       	call   ff500750 <kprintf>
ff50a916:	8b 45 08             	mov    0x8(%ebp),%eax
ff50a919:	8b 00                	mov    (%eax),%eax
ff50a91b:	25 00 02 00 00       	and    $0x200,%eax
ff50a920:	85 c0                	test   %eax,%eax
ff50a922:	74 0c                	je     ff50a930 <showGrubSupport+0xf0>
ff50a924:	c7 04 24 6d 6a 50 ff 	movl   $0xff506a6d,(%esp)
ff50a92b:	e8 20 5e ff ff       	call   ff500750 <kprintf>
ff50a930:	8b 45 08             	mov    0x8(%ebp),%eax
ff50a933:	8b 00                	mov    (%eax),%eax
ff50a935:	25 00 04 00 00       	and    $0x400,%eax
ff50a93a:	85 c0                	test   %eax,%eax
ff50a93c:	74 0c                	je     ff50a94a <showGrubSupport+0x10a>
ff50a93e:	c7 04 24 8a 6a 50 ff 	movl   $0xff506a8a,(%esp)
ff50a945:	e8 06 5e ff ff       	call   ff500750 <kprintf>
ff50a94a:	8b 45 08             	mov    0x8(%ebp),%eax
ff50a94d:	8b 00                	mov    (%eax),%eax
ff50a94f:	25 00 08 00 00       	and    $0x800,%eax
ff50a954:	85 c0                	test   %eax,%eax
ff50a956:	74 0c                	je     ff50a964 <showGrubSupport+0x124>
ff50a958:	c7 04 24 a0 6a 50 ff 	movl   $0xff506aa0,(%esp)
ff50a95f:	e8 ec 5d ff ff       	call   ff500750 <kprintf>
ff50a964:	c9                   	leave  
ff50a965:	c3                   	ret    
ff50a966:	8d 76 00             	lea    0x0(%esi),%esi
ff50a969:	8d bc 27 00 00 00 00 	lea    0x0(%edi,%eiz,1),%edi

ff50a970 <showCPU_Features>:
ff50a970:	55                   	push   %ebp
ff50a971:	89 e5                	mov    %esp,%ebp
ff50a973:	83 ec 08             	sub    $0x8,%esp
ff50a976:	b8 01 00 00 00       	mov    $0x1,%eax
ff50a97b:	0f a2                	cpuid  
ff50a97d:	89 15 5c c0 50 ff    	mov    %edx,0xff50c05c
ff50a983:	0f b6 05 5f c0 50 ff 	movzbl 0xff50c05f,%eax
ff50a98a:	83 e0 40             	and    $0x40,%eax
ff50a98d:	84 c0                	test   %al,%al
ff50a98f:	74 0c                	je     ff50a99d <showCPU_Features+0x2d>
ff50a991:	c7 04 24 b0 6a 50 ff 	movl   $0xff506ab0,(%esp)
ff50a998:	e8 b3 5d ff ff       	call   ff500750 <kprintf>
ff50a99d:	0f b6 05 5e c0 50 ff 	movzbl 0xff50c05e,%eax
ff50a9a4:	83 e0 80             	and    $0xffffff80,%eax
ff50a9a7:	84 c0                	test   %al,%al
ff50a9a9:	74 0c                	je     ff50a9b7 <showCPU_Features+0x47>
ff50a9ab:	c7 04 24 b7 6a 50 ff 	movl   $0xff506ab7,(%esp)
ff50a9b2:	e8 99 5d ff ff       	call   ff500750 <kprintf>
ff50a9b7:	0f b6 05 5e c0 50 ff 	movzbl 0xff50c05e,%eax
ff50a9be:	83 e0 02             	and    $0x2,%eax
ff50a9c1:	84 c0                	test   %al,%al
ff50a9c3:	74 0c                	je     ff50a9d1 <showCPU_Features+0x61>
ff50a9c5:	c7 04 24 bc 6a 50 ff 	movl   $0xff506abc,(%esp)
ff50a9cc:	e8 7f 5d ff ff       	call   ff500750 <kprintf>
ff50a9d1:	0f b6 05 5d c0 50 ff 	movzbl 0xff50c05d,%eax
ff50a9d8:	83 e0 20             	and    $0x20,%eax
ff50a9db:	84 c0                	test   %al,%al
ff50a9dd:	74 0c                	je     ff50a9eb <showCPU_Features+0x7b>
ff50a9df:	c7 04 24 c3 6a 50 ff 	movl   $0xff506ac3,(%esp)
ff50a9e6:	e8 65 5d ff ff       	call   ff500750 <kprintf>
ff50a9eb:	0f b6 05 5f c0 50 ff 	movzbl 0xff50c05f,%eax
ff50a9f2:	83 e0 02             	and    $0x2,%eax
ff50a9f5:	84 c0                	test   %al,%al
ff50a9f7:	74 0c                	je     ff50aa05 <showCPU_Features+0x95>
ff50a9f9:	c7 04 24 c8 6a 50 ff 	movl   $0xff506ac8,(%esp)
ff50aa00:	e8 4b 5d ff ff       	call   ff500750 <kprintf>
ff50aa05:	0f b6 05 5f c0 50 ff 	movzbl 0xff50c05f,%eax
ff50aa0c:	83 e0 04             	and    $0x4,%eax
ff50aa0f:	84 c0                	test   %al,%al
ff50aa11:	74 0c                	je     ff50aa1f <showCPU_Features+0xaf>
ff50aa13:	c7 04 24 cd 6a 50 ff 	movl   $0xff506acd,(%esp)
ff50aa1a:	e8 31 5d ff ff       	call   ff500750 <kprintf>
ff50aa1f:	0f b6 05 5d c0 50 ff 	movzbl 0xff50c05d,%eax
ff50aa26:	83 e0 08             	and    $0x8,%eax
ff50aa29:	84 c0                	test   %al,%al
ff50aa2b:	74 0c                	je     ff50aa39 <showCPU_Features+0xc9>
ff50aa2d:	c7 04 24 d3 6a 50 ff 	movl   $0xff506ad3,(%esp)
ff50aa34:	e8 17 5d ff ff       	call   ff500750 <kprintf>
ff50aa39:	0f b6 05 5c c0 50 ff 	movzbl 0xff50c05c,%eax
ff50aa40:	83 e0 20             	and    $0x20,%eax
ff50aa43:	84 c0                	test   %al,%al
ff50aa45:	74 0c                	je     ff50aa53 <showCPU_Features+0xe3>
ff50aa47:	c7 04 24 e5 6a 50 ff 	movl   $0xff506ae5,(%esp)
ff50aa4e:	e8 fd 5c ff ff       	call   ff500750 <kprintf>
ff50aa53:	0f b6 05 5c c0 50 ff 	movzbl 0xff50c05c,%eax
ff50aa5a:	83 e0 08             	and    $0x8,%eax
ff50aa5d:	84 c0                	test   %al,%al
ff50aa5f:	74 0c                	je     ff50aa6d <showCPU_Features+0xfd>
ff50aa61:	c7 04 24 ea 6a 50 ff 	movl   $0xff506aea,(%esp)
ff50aa68:	e8 e3 5c ff ff       	call   ff500750 <kprintf>
ff50aa6d:	c9                   	leave  
ff50aa6e:	c3                   	ret    
ff50aa6f:	90                   	nop    

ff50aa70 <init>:
ff50aa70:	55                   	push   %ebp
ff50aa71:	89 e5                	mov    %esp,%ebp
ff50aa73:	53                   	push   %ebx
ff50aa74:	83 ec 44             	sub    $0x44,%esp
ff50aa77:	c7 45 f0 00 00 00 00 	movl   $0x0,-0x10(%ebp)
ff50aa7e:	e8 0d 57 ff ff       	call   ff500190 <init_serial>
ff50aa83:	e8 c8 59 ff ff       	call   ff500450 <initVideo>
ff50aa88:	c7 04 24 00 00 00 00 	movl   $0x0,(%esp)
ff50aa8f:	e8 dc 59 ff ff       	call   ff500470 <setVideoLowMem>
ff50aa94:	e8 47 5c ff ff       	call   ff5006e0 <clearScreen>
ff50aa99:	8b 45 08             	mov    0x8(%ebp),%eax
ff50aa9c:	89 04 24             	mov    %eax,(%esp)
ff50aa9f:	e8 9c fd ff ff       	call   ff50a840 <showGrubSupport>
ff50aaa4:	e8 c7 fe ff ff       	call   ff50a970 <showCPU_Features>
ff50aaa9:	8b 45 08             	mov    0x8(%ebp),%eax
ff50aaac:	8b 40 18             	mov    0x18(%eax),%eax
ff50aaaf:	05 00 00 40 ff       	add    $0xff400000,%eax
ff50aab4:	89 c2                	mov    %eax,%edx
ff50aab6:	8b 45 08             	mov    0x8(%ebp),%eax
ff50aab9:	89 50 18             	mov    %edx,0x18(%eax)
ff50aabc:	8b 45 08             	mov    0x8(%ebp),%eax
ff50aabf:	8b 50 14             	mov    0x14(%eax),%edx
ff50aac2:	8b 45 08             	mov    0x8(%ebp),%eax
ff50aac5:	8b 40 18             	mov    0x18(%eax),%eax
ff50aac8:	89 54 24 0c          	mov    %edx,0xc(%esp)
ff50aacc:	89 44 24 08          	mov    %eax,0x8(%esp)
ff50aad0:	8b 45 08             	mov    0x8(%ebp),%eax
ff50aad3:	89 44 24 04          	mov    %eax,0x4(%esp)
ff50aad7:	c7 04 24 f4 6a 50 ff 	movl   $0xff506af4,(%esp)
ff50aade:	e8 6d 5c ff ff       	call   ff500750 <kprintf>
ff50aae3:	8b 45 08             	mov    0x8(%ebp),%eax
ff50aae6:	8b 40 18             	mov    0x18(%eax),%eax
ff50aae9:	89 45 ec             	mov    %eax,-0x14(%ebp)
ff50aaec:	8b 45 08             	mov    0x8(%ebp),%eax
ff50aaef:	8b 40 14             	mov    0x14(%eax),%eax
ff50aaf2:	a3 a8 af 50 ff       	mov    %eax,0xff50afa8
ff50aaf7:	66 c7 05 fc b2 50 ff 	movw   $0x0,0xff50b2fc
ff50aafe:	00 00 
ff50ab00:	0f b7 05 fc b2 50 ff 	movzwl 0xff50b2fc,%eax
ff50ab07:	66 a3 fe b2 50 ff    	mov    %ax,0xff50b2fe
ff50ab0d:	8b 45 08             	mov    0x8(%ebp),%eax
ff50ab10:	8b 40 30             	mov    0x30(%eax),%eax
ff50ab13:	05 00 00 40 ff       	add    $0xff400000,%eax
ff50ab18:	89 c2                	mov    %eax,%edx
ff50ab1a:	8b 45 08             	mov    0x8(%ebp),%eax
ff50ab1d:	89 50 30             	mov    %edx,0x30(%eax)
ff50ab20:	8b 45 08             	mov    0x8(%ebp),%eax
ff50ab23:	8b 40 30             	mov    0x30(%eax),%eax
ff50ab26:	89 45 e8             	mov    %eax,-0x18(%ebp)
ff50ab29:	a1 a8 af 50 ff       	mov    0xff50afa8,%eax
ff50ab2e:	83 f8 32             	cmp    $0x32,%eax
ff50ab31:	7e 0e                	jle    ff50ab41 <init+0xd1>
ff50ab33:	c7 04 24 30 6b 50 ff 	movl   $0xff506b30,(%esp)
ff50ab3a:	e8 81 ea ff ff       	call   ff5095c0 <stopInit>
ff50ab3f:	eb 71                	jmp    ff50abb2 <init+0x142>
ff50ab41:	c7 45 f0 00 00 00 00 	movl   $0x0,-0x10(%ebp)
ff50ab48:	eb 5e                	jmp    ff50aba8 <init+0x138>
ff50ab4a:	0f b7 05 fc b2 50 ff 	movzwl 0xff50b2fc,%eax
ff50ab51:	83 c0 01             	add    $0x1,%eax
ff50ab54:	66 a3 fc b2 50 ff    	mov    %ax,0xff50b2fc
ff50ab5a:	83 7d f0 00          	cmpl   $0x0,-0x10(%ebp)
ff50ab5e:	75 12                	jne    ff50ab72 <init+0x102>
ff50ab60:	ba 00 00 40 ff       	mov    $0xff400000,%edx
ff50ab65:	8b 45 ec             	mov    -0x14(%ebp),%eax
ff50ab68:	8b 00                	mov    (%eax),%eax
ff50ab6a:	8d 04 02             	lea    (%edx,%eax,1),%eax
ff50ab6d:	a3 a4 af 50 ff       	mov    %eax,0xff50afa4
ff50ab72:	8b 45 f0             	mov    -0x10(%ebp),%eax
ff50ab75:	89 c1                	mov    %eax,%ecx
ff50ab77:	c1 e1 04             	shl    $0x4,%ecx
ff50ab7a:	8b 55 ec             	mov    -0x14(%ebp),%edx
ff50ab7d:	8b 02                	mov    (%edx),%eax
ff50ab7f:	89 81 c0 af 50 ff    	mov    %eax,-0xaf5040(%ecx)
ff50ab85:	8b 42 04             	mov    0x4(%edx),%eax
ff50ab88:	89 81 c4 af 50 ff    	mov    %eax,-0xaf503c(%ecx)
ff50ab8e:	8b 42 08             	mov    0x8(%edx),%eax
ff50ab91:	89 81 c8 af 50 ff    	mov    %eax,-0xaf5038(%ecx)
ff50ab97:	8b 42 0c             	mov    0xc(%edx),%eax
ff50ab9a:	89 81 cc af 50 ff    	mov    %eax,-0xaf5034(%ecx)
ff50aba0:	83 45 f0 01          	addl   $0x1,-0x10(%ebp)
ff50aba4:	83 45 ec 10          	addl   $0x10,-0x14(%ebp)
ff50aba8:	a1 a8 af 50 ff       	mov    0xff50afa8,%eax
ff50abad:	39 45 f0             	cmp    %eax,-0x10(%ebp)
ff50abb0:	7c 98                	jl     ff50ab4a <init+0xda>
ff50abb2:	c7 05 40 c0 50 ff 00 	movl   $0x400,0xff50c040
ff50abb9:	04 00 00 
ff50abbc:	c7 05 60 c0 50 ff 08 	movl   $0x8,0xff50c060
ff50abc3:	00 00 00 
ff50abc6:	a1 60 c0 50 ff       	mov    0xff50c060,%eax
ff50abcb:	8b 15 40 c0 50 ff    	mov    0xff50c040,%edx
ff50abd1:	89 44 24 08          	mov    %eax,0x8(%esp)
ff50abd5:	89 54 24 04          	mov    %edx,0x4(%esp)
ff50abd9:	c7 04 24 44 6b 50 ff 	movl   $0xff506b44,(%esp)
ff50abe0:	e8 6b 5b ff ff       	call   ff500750 <kprintf>
ff50abe5:	8b 45 08             	mov    0x8(%ebp),%eax
ff50abe8:	89 04 24             	mov    %eax,(%esp)
ff50abeb:	e8 f0 e9 ff ff       	call   ff5095e0 <initMemory>
ff50abf0:	85 c0                	test   %eax,%eax
ff50abf2:	79 0c                	jns    ff50ac00 <init+0x190>
ff50abf4:	c7 04 24 6c 6b 50 ff 	movl   $0xff506b6c,(%esp)
ff50abfb:	e8 c0 e9 ff ff       	call   ff5095c0 <stopInit>
ff50ac00:	8b 45 08             	mov    0x8(%ebp),%eax
ff50ac03:	8b 00                	mov    (%eax),%eax
ff50ac05:	83 e0 40             	and    $0x40,%eax
ff50ac08:	85 c0                	test   %eax,%eax
ff50ac0a:	0f 84 44 02 00 00    	je     ff50ae54 <init+0x3e4>
ff50ac10:	e9 25 02 00 00       	jmp    ff50ae3a <init+0x3ca>
ff50ac15:	c7 45 f8 00 00 00 00 	movl   $0x0,-0x8(%ebp)
ff50ac1c:	8b 45 e8             	mov    -0x18(%ebp),%eax
ff50ac1f:	8b 40 14             	mov    0x14(%eax),%eax
ff50ac22:	83 f8 01             	cmp    $0x1,%eax
ff50ac25:	0f 85 04 02 00 00    	jne    ff50ae2f <init+0x3bf>
ff50ac2b:	8b 45 e8             	mov    -0x18(%ebp),%eax
ff50ac2e:	8b 40 04             	mov    0x4(%eax),%eax
ff50ac31:	85 c0                	test   %eax,%eax
ff50ac33:	75 46                	jne    ff50ac7b <init+0x20b>
ff50ac35:	8b 45 e8             	mov    -0x18(%ebp),%eax
ff50ac38:	8b 50 04             	mov    0x4(%eax),%edx
ff50ac3b:	8b 45 e8             	mov    -0x18(%ebp),%eax
ff50ac3e:	8b 40 0c             	mov    0xc(%eax),%eax
ff50ac41:	8d 04 02             	lea    (%edx,%eax,1),%eax
ff50ac44:	3d 00 b0 00 00       	cmp    $0xb000,%eax
ff50ac49:	76 30                	jbe    ff50ac7b <init+0x20b>
ff50ac4b:	8b 45 e8             	mov    -0x18(%ebp),%eax
ff50ac4e:	c7 40 04 00 b0 00 00 	movl   $0xb000,0x4(%eax)
ff50ac55:	8b 45 e8             	mov    -0x18(%ebp),%eax
ff50ac58:	8b 40 0c             	mov    0xc(%eax),%eax
ff50ac5b:	8d 90 00 50 ff ff    	lea    -0xb000(%eax),%edx
ff50ac61:	8b 45 e8             	mov    -0x18(%ebp),%eax
ff50ac64:	89 50 0c             	mov    %edx,0xc(%eax)
ff50ac67:	8b 45 e8             	mov    -0x18(%ebp),%eax
ff50ac6a:	8b 40 0c             	mov    0xc(%eax),%eax
ff50ac6d:	89 c2                	mov    %eax,%edx
ff50ac6f:	81 e2 00 f0 ff ff    	and    $0xfffff000,%edx
ff50ac75:	8b 45 e8             	mov    -0x18(%ebp),%eax
ff50ac78:	89 50 0c             	mov    %edx,0xc(%eax)
ff50ac7b:	8b 45 e8             	mov    -0x18(%ebp),%eax
ff50ac7e:	8b 50 04             	mov    0x4(%eax),%edx
ff50ac81:	b8 00 00 10 00       	mov    $0x100000,%eax
ff50ac86:	39 c2                	cmp    %eax,%edx
ff50ac88:	77 61                	ja     ff50aceb <init+0x27b>
ff50ac8a:	8b 45 e8             	mov    -0x18(%ebp),%eax
ff50ac8d:	8b 48 0c             	mov    0xc(%eax),%ecx
ff50ac90:	ba 00 00 10 00       	mov    $0x100000,%edx
ff50ac95:	8b 45 e8             	mov    -0x18(%ebp),%eax
ff50ac98:	8b 40 04             	mov    0x4(%eax),%eax
ff50ac9b:	89 d3                	mov    %edx,%ebx
ff50ac9d:	29 c3                	sub    %eax,%ebx
ff50ac9f:	89 d8                	mov    %ebx,%eax
ff50aca1:	39 c1                	cmp    %eax,%ecx
ff50aca3:	76 46                	jbe    ff50aceb <init+0x27b>
ff50aca5:	8b 45 e8             	mov    -0x18(%ebp),%eax
ff50aca8:	8b 50 0c             	mov    0xc(%eax),%edx
ff50acab:	a1 ec b2 50 ff       	mov    0xff50b2ec,%eax
ff50acb0:	29 c2                	sub    %eax,%edx
ff50acb2:	8b 45 e8             	mov    -0x18(%ebp),%eax
ff50acb5:	8b 40 04             	mov    0x4(%eax),%eax
ff50acb8:	01 c2                	add    %eax,%edx
ff50acba:	b8 00 00 10 00       	mov    $0x100000,%eax
ff50acbf:	89 d1                	mov    %edx,%ecx
ff50acc1:	29 c1                	sub    %eax,%ecx
ff50acc3:	89 c8                	mov    %ecx,%eax
ff50acc5:	89 45 f4             	mov    %eax,-0xc(%ebp)
ff50acc8:	ba 00 00 10 00       	mov    $0x100000,%edx
ff50accd:	8b 45 e8             	mov    -0x18(%ebp),%eax
ff50acd0:	8b 40 04             	mov    0x4(%eax),%eax
ff50acd3:	29 c2                	sub    %eax,%edx
ff50acd5:	8b 45 e8             	mov    -0x18(%ebp),%eax
ff50acd8:	89 50 0c             	mov    %edx,0xc(%eax)
ff50acdb:	ba 00 00 10 00       	mov    $0x100000,%edx
ff50ace0:	a1 ec b2 50 ff       	mov    0xff50b2ec,%eax
ff50ace5:	8d 04 02             	lea    (%edx,%eax,1),%eax
ff50ace8:	89 45 f8             	mov    %eax,-0x8(%ebp)
ff50aceb:	8b 45 e8             	mov    -0x18(%ebp),%eax
ff50acee:	8b 40 0c             	mov    0xc(%eax),%eax
ff50acf1:	85 c0                	test   %eax,%eax
ff50acf3:	0f 84 b6 00 00 00    	je     ff50adaf <init+0x33f>
ff50acf9:	0f b7 05 fe b2 50 ff 	movzwl 0xff50b2fe,%eax
ff50ad00:	0f b7 d0             	movzwl %ax,%edx
ff50ad03:	8b 45 e8             	mov    -0x18(%ebp),%eax
ff50ad06:	8b 40 04             	mov    0x4(%eax),%eax
ff50ad09:	89 04 d5 00 b3 50 ff 	mov    %eax,-0xaf4d00(,%edx,8)
ff50ad10:	0f b7 05 fe b2 50 ff 	movzwl 0xff50b2fe,%eax
ff50ad17:	0f b7 c0             	movzwl %ax,%eax
ff50ad1a:	89 45 d4             	mov    %eax,-0x2c(%ebp)
ff50ad1d:	8b 45 e8             	mov    -0x18(%ebp),%eax
ff50ad20:	8b 40 0c             	mov    0xc(%eax),%eax
ff50ad23:	89 c2                	mov    %eax,%edx
ff50ad25:	8b 45 e8             	mov    -0x18(%ebp),%eax
ff50ad28:	8b 40 0c             	mov    0xc(%eax),%eax
ff50ad2b:	25 00 f0 ff ff       	and    $0xfffff000,%eax
ff50ad30:	39 c2                	cmp    %eax,%edx
ff50ad32:	75 10                	jne    ff50ad44 <init+0x2d4>
ff50ad34:	8b 45 e8             	mov    -0x18(%ebp),%eax
ff50ad37:	8b 40 0c             	mov    0xc(%eax),%eax
ff50ad3a:	89 c3                	mov    %eax,%ebx
ff50ad3c:	c1 eb 0c             	shr    $0xc,%ebx
ff50ad3f:	89 5d d8             	mov    %ebx,-0x28(%ebp)
ff50ad42:	eb 18                	jmp    ff50ad5c <init+0x2ec>
ff50ad44:	8b 45 e8             	mov    -0x18(%ebp),%eax
ff50ad47:	8b 40 0c             	mov    0xc(%eax),%eax
ff50ad4a:	25 00 f0 ff ff       	and    $0xfffff000,%eax
ff50ad4f:	05 00 10 00 00       	add    $0x1000,%eax
ff50ad54:	89 c2                	mov    %eax,%edx
ff50ad56:	c1 ea 0c             	shr    $0xc,%edx
ff50ad59:	89 55 d8             	mov    %edx,-0x28(%ebp)
ff50ad5c:	8b 5d d8             	mov    -0x28(%ebp),%ebx
ff50ad5f:	8b 4d d4             	mov    -0x2c(%ebp),%ecx
ff50ad62:	89 1c cd 04 b3 50 ff 	mov    %ebx,-0xaf4cfc(,%ecx,8)
ff50ad69:	0f b7 05 fe b2 50 ff 	movzwl 0xff50b2fe,%eax
ff50ad70:	0f b7 c0             	movzwl %ax,%eax
ff50ad73:	8b 14 c5 04 b3 50 ff 	mov    -0xaf4cfc(,%eax,8),%edx
ff50ad7a:	0f b7 05 fe b2 50 ff 	movzwl 0xff50b2fe,%eax
ff50ad81:	0f b7 c0             	movzwl %ax,%eax
ff50ad84:	8b 04 c5 00 b3 50 ff 	mov    -0xaf4d00(,%eax,8),%eax
ff50ad8b:	89 54 24 08          	mov    %edx,0x8(%esp)
ff50ad8f:	89 44 24 04          	mov    %eax,0x4(%esp)
ff50ad93:	c7 04 24 98 6b 50 ff 	movl   $0xff506b98,(%esp)
ff50ad9a:	e8 b1 59 ff ff       	call   ff500750 <kprintf>
ff50ad9f:	0f b7 05 fe b2 50 ff 	movzwl 0xff50b2fe,%eax
ff50ada6:	83 c0 01             	add    $0x1,%eax
ff50ada9:	66 a3 fe b2 50 ff    	mov    %ax,0xff50b2fe
ff50adaf:	83 7d f8 00          	cmpl   $0x0,-0x8(%ebp)
ff50adb3:	74 7a                	je     ff50ae2f <init+0x3bf>
ff50adb5:	81 7d f4 ff 0f 00 00 	cmpl   $0xfff,-0xc(%ebp)
ff50adbc:	76 71                	jbe    ff50ae2f <init+0x3bf>
ff50adbe:	0f b7 05 fe b2 50 ff 	movzwl 0xff50b2fe,%eax
ff50adc5:	0f b7 d0             	movzwl %ax,%edx
ff50adc8:	8b 45 f8             	mov    -0x8(%ebp),%eax
ff50adcb:	89 04 d5 00 b3 50 ff 	mov    %eax,-0xaf4d00(,%edx,8)
ff50add2:	0f b7 05 fe b2 50 ff 	movzwl 0xff50b2fe,%eax
ff50add9:	0f b7 d0             	movzwl %ax,%edx
ff50addc:	8b 45 f4             	mov    -0xc(%ebp),%eax
ff50addf:	c1 e8 0c             	shr    $0xc,%eax
ff50ade2:	89 04 d5 04 b3 50 ff 	mov    %eax,-0xaf4cfc(,%edx,8)
ff50ade9:	0f b7 05 fe b2 50 ff 	movzwl 0xff50b2fe,%eax
ff50adf0:	0f b7 c0             	movzwl %ax,%eax
ff50adf3:	8b 14 c5 04 b3 50 ff 	mov    -0xaf4cfc(,%eax,8),%edx
ff50adfa:	0f b7 05 fe b2 50 ff 	movzwl 0xff50b2fe,%eax
ff50ae01:	0f b7 c0             	movzwl %ax,%eax
ff50ae04:	8b 04 c5 00 b3 50 ff 	mov    -0xaf4d00(,%eax,8),%eax
ff50ae0b:	89 54 24 08          	mov    %edx,0x8(%esp)
ff50ae0f:	89 44 24 04          	mov    %eax,0x4(%esp)
ff50ae13:	c7 04 24 98 6b 50 ff 	movl   $0xff506b98,(%esp)
ff50ae1a:	e8 31 59 ff ff       	call   ff500750 <kprintf>
ff50ae1f:	0f b7 05 fe b2 50 ff 	movzwl 0xff50b2fe,%eax
ff50ae26:	83 c0 01             	add    $0x1,%eax
ff50ae29:	66 a3 fe b2 50 ff    	mov    %ax,0xff50b2fe
ff50ae2f:	8b 45 e8             	mov    -0x18(%ebp),%eax
ff50ae32:	8b 00                	mov    (%eax),%eax
ff50ae34:	83 c0 04             	add    $0x4,%eax
ff50ae37:	01 45 e8             	add    %eax,-0x18(%ebp)
ff50ae3a:	8b 4d e8             	mov    -0x18(%ebp),%ecx
ff50ae3d:	8b 45 08             	mov    0x8(%ebp),%eax
ff50ae40:	8b 50 2c             	mov    0x2c(%eax),%edx
ff50ae43:	8b 45 08             	mov    0x8(%ebp),%eax
ff50ae46:	8b 40 30             	mov    0x30(%eax),%eax
ff50ae49:	8d 04 02             	lea    (%edx,%eax,1),%eax
ff50ae4c:	39 c1                	cmp    %eax,%ecx
ff50ae4e:	0f 82 c1 fd ff ff    	jb     ff50ac15 <init+0x1a5>
ff50ae54:	e8 f7 ea ff ff       	call   ff509950 <initInterrupts>
ff50ae59:	a1 34 c0 50 ff       	mov    0xff50c034,%eax
ff50ae5e:	89 04 24             	mov    %eax,(%esp)
ff50ae61:	e8 aa ea ff ff       	call   ff509910 <initScheduler>
ff50ae66:	8b 15 50 c0 50 ff    	mov    0xff50c050,%edx
ff50ae6c:	0f b6 42 05          	movzbl 0x5(%edx),%eax
ff50ae70:	83 e0 f0             	and    $0xfffffff0,%eax
ff50ae73:	83 c8 04             	or     $0x4,%eax
ff50ae76:	88 42 05             	mov    %al,0x5(%edx)
ff50ae79:	a1 50 c0 50 ff       	mov    0xff50c050,%eax
ff50ae7e:	85 c0                	test   %eax,%eax
ff50ae80:	75 0c                	jne    ff50ae8e <init+0x41e>
ff50ae82:	c7 04 24 bc 6b 50 ff 	movl   $0xff506bbc,(%esp)
ff50ae89:	e8 32 e7 ff ff       	call   ff5095c0 <stopInit>
ff50ae8e:	a1 50 c0 50 ff       	mov    0xff50c050,%eax
ff50ae93:	89 c2                	mov    %eax,%edx
ff50ae95:	a1 3c c0 50 ff       	mov    0xff50c03c,%eax
ff50ae9a:	89 d1                	mov    %edx,%ecx
ff50ae9c:	29 c1                	sub    %eax,%ecx
ff50ae9e:	89 c8                	mov    %ecx,%eax
ff50aea0:	c1 f8 03             	sar    $0x3,%eax
ff50aea3:	69 c0 a3 8b 2e ba    	imul   $0xba2e8ba3,%eax,%eax
ff50aea9:	66 85 c0             	test   %ax,%ax
ff50aeac:	75 14                	jne    ff50aec2 <init+0x452>
ff50aeae:	c7 45 e4 c0 5f 40 ff 	movl   $0xff405fc0,-0x1c(%ebp)
ff50aeb5:	a1 08 c0 50 ff       	mov    0xff50c008,%eax
ff50aeba:	c7 00 00 60 40 ff    	movl   $0xff406000,(%eax)
ff50aec0:	eb 1e                	jmp    ff50aee0 <init+0x470>
ff50aec2:	a1 50 c0 50 ff       	mov    0xff50c050,%eax
ff50aec7:	83 c0 18             	add    $0x18,%eax
ff50aeca:	89 45 e4             	mov    %eax,-0x1c(%ebp)
ff50aecd:	8b 15 08 c0 50 ff    	mov    0xff50c008,%edx
ff50aed3:	a1 50 c0 50 ff       	mov    0xff50c050,%eax
ff50aed8:	83 c0 18             	add    $0x18,%eax
ff50aedb:	83 c0 40             	add    $0x40,%eax
ff50aede:	89 02                	mov    %eax,(%edx)
ff50aee0:	8b 45 e4             	mov    -0x1c(%ebp),%eax
ff50aee3:	89 44 24 04          	mov    %eax,0x4(%esp)
ff50aee7:	c7 04 24 e1 6b 50 ff 	movl   $0xff506be1,(%esp)
ff50aeee:	e8 5d 58 ff ff       	call   ff500750 <kprintf>
ff50aef3:	a1 3c c0 50 ff       	mov    0xff50c03c,%eax
ff50aef8:	0f b6 40 05          	movzbl 0x5(%eax),%eax
ff50aefc:	83 e0 0f             	and    $0xf,%eax
ff50aeff:	84 c0                	test   %al,%al
ff50af01:	75 24                	jne    ff50af27 <init+0x4b7>
ff50af03:	c7 44 24 0c 8e 03 00 	movl   $0x38e,0xc(%esp)
ff50af0a:	00 
ff50af0b:	c7 44 24 08 ef 6a 50 	movl   $0xff506aef,0x8(%esp)
ff50af12:	ff 
ff50af13:	c7 44 24 04 02 66 50 	movl   $0xff506602,0x4(%esp)
ff50af1a:	ff 
ff50af1b:	c7 04 24 9b 68 50 ff 	movl   $0xff50689b,(%esp)
ff50af22:	e8 e9 55 ff ff       	call   ff500510 <printAssertMsg>
ff50af27:	a1 50 c0 50 ff       	mov    0xff50c050,%eax
ff50af2c:	8b 08                	mov    (%eax),%ecx
ff50af2e:	0f 20 da             	mov    %cr3,%edx
ff50af31:	39 d1                	cmp    %edx,%ecx
ff50af33:	74 03                	je     ff50af38 <_skip>
ff50af35:	0f 22 d9             	mov    %ecx,%cr3

ff50af38 <_skip>:
ff50af38:	8b 65 e4             	mov    -0x1c(%ebp),%esp
ff50af3b:	61                   	popa   
ff50af3c:	66 07                	popw   %es
ff50af3e:	66 1f                	popw   %ds
ff50af40:	83 c4 08             	add    $0x8,%esp
ff50af43:	cf                   	iret   
ff50af44:	c7 04 24 f0 6b 50 ff 	movl   $0xff506bf0,(%esp)
ff50af4b:	e8 70 e6 ff ff       	call   ff5095c0 <stopInit>
ff50af50:	83 c4 44             	add    $0x44,%esp
ff50af53:	5b                   	pop    %ebx
ff50af54:	5d                   	pop    %ebp
ff50af55:	c3                   	ret    

ff50af56 <kdData>:
ff50af56:	45                   	inc    %ebp
ff50af57:	72 72                	jb     ff50afcb <kBootModules+0xb>
ff50af59:	6f                   	outsl  %ds:(%esi),(%dx)
ff50af5a:	72 3a                	jb     ff50af96 <idtPointer+0x3>
ff50af5c:	20 4f 6e             	and    %cl,0x6e(%edi)
ff50af5f:	6c                   	insb   (%dx),%es:(%edi)
ff50af60:	79 20                	jns    ff50af82 <kdData+0x2c>
ff50af62:	4d                   	dec    %ebp
ff50af63:	75 6c                	jne    ff50afd1 <kBootModules+0x11>
ff50af65:	74 69                	je     ff50afd0 <kBootModules+0x10>
ff50af67:	62 6f 6f             	bound  %ebp,0x6f(%edi)
ff50af6a:	74 2d                	je     ff50af99 <idtPointer+0x6>
ff50af6c:	63 6f 6d             	arpl   %bp,0x6d(%edi)
ff50af6f:	70 6c                	jo     ff50afdd <kBootModules+0x1d>
ff50af71:	69 61 6e 74 20 6c 6f 	imul   $0x6f6c2074,0x6e(%ecx),%esp
ff50af78:	61                   	popa   
ff50af79:	64                   	fs
ff50af7a:	65                   	gs
ff50af7b:	72 73                	jb     ff50aff0 <kBootModules+0x30>
ff50af7d:	20 61 72             	and    %ah,0x72(%ecx)
ff50af80:	65 20 73 75          	and    %dh,%gs:0x75(%ebx)
ff50af84:	70 70                	jo     ff50aff6 <kBootModules+0x36>
ff50af86:	6f                   	outsl  %ds:(%esi),(%dx)
ff50af87:	72 74                	jb     ff50affd <kBootModules+0x3d>
ff50af89:	65 64 2e 00 98 02 00 	add    %bl,%cs:%fs:%gs:0x400d0002(%eax)
ff50af90:	0d 40 

ff50af8d <gdtPointer>:
ff50af8d:	98                   	cwtl   
ff50af8e:	02 00                	add    (%eax),%al
ff50af90:	0d 40 ff 00 08       	or     $0x800ff40,%eax

ff50af93 <idtPointer>:
ff50af93:	00 08                	add    %cl,(%eax)
ff50af95:	00 05 40 ff 00 00    	add    %al,0xff40
ff50af9b:	00 00                	add    %al,(%eax)
ff50af9d:	00 00                	add    %al,(%eax)
	...

ff50afa0 <kernelEnd>:
ff50afa0:	00 00                	add    %al,(%eax)
	...

ff50afa4 <init_server_img>:
ff50afa4:	00 00                	add    %al,(%eax)
	...

ff50afa8 <numBootMods>:
	...

ff50afc0 <kBootModules>:
	...

ff50b2e0 <totalPhysMem>:
ff50b2e0:	00 00                	add    %al,(%eax)
	...

ff50b2e4 <startPhysPages>:
ff50b2e4:	00 00                	add    %al,(%eax)
	...

ff50b2e8 <totalPages>:
ff50b2e8:	00 00                	add    %al,(%eax)
	...

ff50b2ec <totalKSize>:
ff50b2ec:	00 00                	add    %al,(%eax)
	...

ff50b2f0 <grubBootInfo>:
ff50b2f0:	00 00                	add    %al,(%eax)
	...

ff50b2f4 <modulesStart>:
ff50b2f4:	00 00                	add    %al,(%eax)
	...

ff50b2f8 <totalModulesSize>:
ff50b2f8:	00 00                	add    %al,(%eax)
	...

ff50b2fc <boot_info>:
ff50b2fc:	00 00                	add    %al,(%eax)
	...

ff50b300 <mem_area>:
	...

Disassembly of section .bss:

ff50c000 <kBss>:
ff50c000:	00 00                	add    %al,(%eax)
	...

ff50c004 <tempMapped>:
ff50c004:	00 00                	add    %al,(%eax)
	...

ff50c008 <tssEsp0>:
ff50c008:	00 00                	add    %al,(%eax)
	...

ff50c00c <badAssertHlt>:
ff50c00c:	00 00                	add    %al,(%eax)
	...

ff50c010 <upper2>:
ff50c010:	00 00                	add    %al,(%eax)
	...

ff50c014 <useLowMem>:
ff50c014:	00 00                	add    %al,(%eax)
	...

ff50c018 <lower2>:
ff50c018:	00 00                	add    %al,(%eax)
	...

ff50c01c <drive_info_t>:
	...

ff50c028 <upper1>:
ff50c028:	00 00                	add    %al,(%eax)
	...

ff50c02c <incSchedCount_counter>:
ff50c02c:	00 00                	add    %al,(%eax)
	...

ff50c030 <tssIOBitmap>:
ff50c030:	00 00                	add    %al,(%eax)
	...

ff50c034 <kernelAddrSpace>:
ff50c034:	00 00                	add    %al,(%eax)
	...

ff50c038 <lower1>:
ff50c038:	00 00                	add    %al,(%eax)
	...

ff50c03c <tcbTable>:
ff50c03c:	00 00                	add    %al,(%eax)
	...

ff50c040 <maxThreads>:
ff50c040:	00 00                	add    %al,(%eax)
	...

ff50c044 <runQueues>:
ff50c044:	00 00                	add    %al,(%eax)
	...

ff50c048 <tcbNodes>:
ff50c048:	00 00                	add    %al,(%eax)
	...

ff50c04c <sleepQueue>:
ff50c04c:	00 00                	add    %al,(%eax)
	...

ff50c050 <currentThread>:
ff50c050:	00 00                	add    %al,(%eax)
	...

ff50c054 <init_server_tid>:
ff50c054:	00 00                	add    %al,(%eax)
	...

ff50c058 <__default_sig_handler>:
ff50c058:	00 00                	add    %al,(%eax)
	...

ff50c05c <cpuFeatures>:
ff50c05c:	00 00                	add    %al,(%eax)
	...

ff50c060 <maxRunQueues>:
ff50c060:	00 00                	add    %al,(%eax)
	...

ff50c064 <idleThread>:
ff50c064:	00 00                	add    %al,(%eax)
	...
